m68k-amigaos-objdump -b binary -D med.rom --adjust-vma=0x00f80000 | less

med.rom:     file format binary


Disassembly of section .data:

00f80000  .data:
  f80000:	1114           	move.b (a4),-(a0)
  f80002:	4ef9 00f8 0010 	jmp 0xf80010
  f80008:	4e71           	nop
  f8000a:	4e75           	rts
  f8000c:	0000 0000      	ori.b #0,d0
  f80010:	203c 0002 0000 	move.l #131072,d0
  f80016:	51c8 fffe      	dbf d0,0xf80016
  f8001a:	7003           	moveq #3,d0
  f8001c:	4640           	not.w d0
  f8001e:	2e40           	movea.l d0,sp
  f80020:	13fc 0003 00bf 	move.b #3,0xbfe201
  f80026:	e201 
  f80028:	13fc 0002 00bf 	move.b #2,0xbfe001
  f8002e:	e001 
  f80030:	4ef9 00f8 012a 	jmp 0xf8012a
  f80036:	4e75           	rts
  f80038:	13fc 007f 00bf 	move.b #127,0xbfed01
  f8003e:	ed01 
  f80040:	33fc 7fff 00df 	move.w #32767,0xdff09a
  f80046:	f09a 
  f80048:	207c 00df f09c 	movea.l #14676124,a0
  f8004e:	30bc 7fff      	move.w #32767,(a0)
  f80052:	30bc 7fff      	move.w #32767,(a0)
  f80056:	33fc 7fff 00df 	move.w #32767,0xdff096
  f8005c:	f096 
  f8005e:	207c 00bf ee01 	movea.l #12578305,a0
  f80064:	4210           	clr.b (a0)
  f80066:	4239 00bf ef01 	clr.b 0xbfef01
  f8006c:	4210           	clr.b (a0)
  f8006e:	4279 00df f0a8 	clr.w 0xdff0a8
  f80074:	4279 00df f0b8 	clr.w 0xdff0b8
  f8007a:	4279 00df f0c8 	clr.w 0xdff0c8
  f80080:	4279 00df f0d8 	clr.w 0xdff0d8
  f80086:	4e75           	rts
  f80088:	0844 0000      	bchg #0,d4
  f8008c:	2f0c           	move.l a4,-(sp)
  f8008e:	33fc c008 00df 	move.w #-16376,0xdff09a
  f80094:	f09a 
  f80096:	487a fff0      	pea 0xf80088(pc)
  f8009a:	61ff 0000 3c60 	bsr.l 0xf83cfc
  f800a0:	13fc 0088 00bf 	move.b #-120,0xbfed01
  f800a6:	ed01 
  f800a8:	588f           	addq.l #4,sp
  f800aa:	285f           	movea.l (sp)+,a4
  f800ac:	4e75           	rts
  f800ae:	2f0b           	move.l a3,-(sp)
  f800b0:	2f0a           	move.l a2,-(sp)
  f800b2:	41f9 00f8 baa0 	lea 0xf8baa0,a0
  f800b8:	45f9 0000 0000 	lea 0x0,a2
  f800be:	47f9 0000 2324 	lea 0x2324,a3
  f800c4:	2f0a           	move.l a2,-(sp)
  f800c6:	2f08           	move.l a0,-(sp)
  f800c8:	2f3c 0001 0000 	move.l #65536,-(sp)
  f800ce:	61ff 0000 aebc 	bsr.l 0xf8af8c
  f800d4:	2f0b           	move.l a3,-(sp)
  f800d6:	42a7           	clr.l -(sp)
  f800d8:	4872 0170 0001 	pea (65536,a2)
  f800de:	0000 
  f800e0:	61ff 0000 b012 	bsr.l 0xf8b0f4
  f800e6:	203c 0001 7ffe 	move.l #98302,d0
  f800ec:	2840           	movea.l d0,a4
  f800ee:	21cc 0100      	move.l a4,0x100
  f800f2:	4fef 0018      	lea 24(sp),sp
  f800f6:	245f           	movea.l (sp)+,a2
  f800f8:	265f           	movea.l (sp)+,a3
  f800fa:	4e75           	rts
  f800fc:	61ff 0000 8f42 	bsr.l 0xf89040
  f80102:	60ff 0000 117a 	bra.l 0xf8127e
  f80108:	0a1b 5b33      	eori.b #51,(a3)+
  f8010c:	316d 001b 5b30 	move.w 27(a5),23344(a0)
  f80112:	6d0a           	blt.s 0xf8011e
  f80114:	0008           	.short 0x0008
  f80116:	4200           	clr.b d0
  f80118:	0846 0008      	bchg #8,d6
  f8011c:	4700           	chk.l d0,d3
  f8011e:	0848           	.short 0x0848
  f80120:	0008           	.short 0x0008
  f80122:	4900           	chk.l d0,d4
  f80124:	084a           	.short 0x084a
  f80126:	000d           	.short 0x000d
  f80128:	0000 2f0c      	ori.b #12,d0
  f8012c:	2f0a           	move.l a2,-(sp)
  f8012e:	61ff ffff ff7e 	bsr.l 0xf800ae
  f80134:	42a7           	clr.l -(sp)
  f80136:	61ff 0000 4fb4 	bsr.l 0xf850ec
  f8013c:	61ff ffff fefa 	bsr.l 0xf80038
  f80142:	61ff 0000 3aaa 	bsr.l 0xf83bee
  f80148:	487a ffbe      	pea 0xf80108(pc)
  f8014c:	61ff 0000 3bae 	bsr.l 0xf83cfc
  f80152:	45fa 00b2      	lea 0xf80206(pc),a2
  f80156:	2f0a           	move.l a2,-(sp)
  f80158:	61ff 0000 3ba2 	bsr.l 0xf83cfc
  f8015e:	487a ffaf      	pea 0xf8010f(pc)
  f80162:	61ff 0000 3b98 	bsr.l 0xf83cfc
  f80168:	61ff 0000 0fda 	bsr.l 0xf81144
  f8016e:	4878 0041      	pea 0x41
  f80172:	61ff 0000 3ac6 	bsr.l 0xf83c3a
  f80178:	61ff ffff ff12 	bsr.l 0xf8008c
  f8017e:	487a ff95      	pea 0xf80115(pc)
  f80182:	61ff 0000 3b78 	bsr.l 0xf83cfc
  f80188:	61ff 0000 31a8 	bsr.l 0xf83332
  f8018e:	487a ff88      	pea 0xf80118(pc)
  f80192:	61ff 0000 3b68 	bsr.l 0xf83cfc
  f80198:	2f0a           	move.l a2,-(sp)
  f8019a:	61ff 0000 314e 	bsr.l 0xf832ea
  f801a0:	4fef 0020      	lea 32(sp),sp
  f801a4:	61ff 0000 44c6 	bsr.l 0xf8466c
  f801aa:	487a ff6f      	pea 0xf8011b(pc)
  f801ae:	61ff 0000 3b4c 	bsr.l 0xf83cfc
  f801b4:	61ff 0000 112e 	bsr.l 0xf812e4
  f801ba:	487a ff62      	pea 0xf8011e(pc)
  f801be:	61ff 0000 3b3c 	bsr.l 0xf83cfc
  f801c4:	61ff 0000 3d24 	bsr.l 0xf83eea
  f801ca:	487a ff55      	pea 0xf80121(pc)
  f801ce:	61ff 0000 3b2c 	bsr.l 0xf83cfc
  f801d4:	61ff 0000 0d9a 	bsr.l 0xf80f70
  f801da:	487a ff48      	pea 0xf80124(pc)
  f801de:	61ff 0000 3b1c 	bsr.l 0xf83cfc
  f801e4:	61ff 0000 97ac 	bsr.l 0xf89992
  f801ea:	61ff 0000 977e 	bsr.l 0xf8996a
  f801f0:	487a ff35      	pea 0xf80127(pc)
  f801f4:	61ff 0000 3b06 	bsr.l 0xf83cfc
  f801fa:	4fef 0014      	lea 20(sp),sp
  f801fe:	61ff ffff fefc 	bsr.l 0xf800fc
  f80204:	60f8           	bra.s 0xf801fe
  f80206:	524f           	addq.w #1,sp
  f80208:	4d20           	chk.l -(a0),d6
  f8020a:	4d45           	.short 0x4d45
  f8020c:	4420           	neg.b -(a0)
  f8020e:	302e 3120      	move.w 12576(a6),d0
  f80212:	2832 3032      	move.l (50,a2,d3.w),d4
  f80216:	352d 3037      	move.w 12343(a5),-(a2)
  f8021a:	2d31 3820      	move.l (32,a1,d3.l),-(a6)
  f8021e:	3232 3a32      	move.w (50,a2,d3.l*2),d1
  f80222:	373a 3539      	move.w 0xf8375d(pc),-(a3)
  f80226:	290a           	move.l a2,-(a4)
  f80228:	0000 0000      	ori.b #0,d0
  f8022c:	202f 0004      	move.l 4(sp),d0
  f80230:	0680 003a 0000 	addi.l #3801088,d0
  f80236:	e588           	lsl.l #2,d0
  f80238:	2040           	movea.l d0,a0
  f8023a:	e9e8 0004 0002 	bfextu 2(a0),0,4,d0
  f80240:	1210           	move.b (a0),d1
  f80242:	0201 00f0      	andi.b #-16,d1
  f80246:	8001           	or.b d1,d0
  f80248:	4e75           	rts
  f8024a:	202f 0004      	move.l 4(sp),d0
  f8024e:	0680 3fc0 0000 	addi.l #1069547520,d0
  f80254:	e588           	lsl.l #2,d0
  f80256:	2040           	movea.l d0,a0
  f80258:	e9e8 0004 0100 	bfextu 256(a0),0,4,d0
  f8025e:	1210           	move.b (a0),d1
  f80260:	0201 00f0      	andi.b #-16,d1
  f80264:	8001           	or.b d1,d0
  f80266:	4e75           	rts
  f80268:	2f02           	move.l d2,-(sp)
  f8026a:	4282           	clr.l d2
  f8026c:	2f02           	move.l d2,-(sp)
  f8026e:	61ff ffff ffbc 	bsr.l 0xf8022c
  f80274:	588f           	addq.l #4,sp
  f80276:	4a00           	tst.b d0
  f80278:	660e           	bne.s 0xf80288
  f8027a:	5282           	addq.l #1,d2
  f8027c:	7010           	moveq #16,d0
  f8027e:	b082           	cmp.l d2,d0
  f80280:	66ea           	bne.s 0xf8026c
  f80282:	4280           	clr.l d0
  f80284:	241f           	move.l (sp)+,d2
  f80286:	4e75           	rts
  f80288:	4282           	clr.l d2
  f8028a:	2f02           	move.l d2,-(sp)
  f8028c:	61ff ffff ff9e 	bsr.l 0xf8022c
  f80292:	588f           	addq.l #4,sp
  f80294:	0c00 00ff      	cmpi.b #-1,d0
  f80298:	6608           	bne.s 0xf802a2
  f8029a:	5282           	addq.l #1,d2
  f8029c:	7210           	moveq #16,d1
  f8029e:	b282           	cmp.l d2,d1
  f802a0:	66e8           	bne.s 0xf8028a
  f802a2:	7210           	moveq #16,d1
  f802a4:	b282           	cmp.l d2,d1
  f802a6:	56c0           	sne d0
  f802a8:	49c0           	extb.l d0
  f802aa:	4480           	neg.l d0
  f802ac:	60d6           	bra.s 0xf80284
  f802ae:	2f02           	move.l d2,-(sp)
  f802b0:	4282           	clr.l d2
  f802b2:	2f02           	move.l d2,-(sp)
  f802b4:	61ff ffff ff94 	bsr.l 0xf8024a
  f802ba:	588f           	addq.l #4,sp
  f802bc:	4a00           	tst.b d0
  f802be:	660e           	bne.s 0xf802ce
  f802c0:	5282           	addq.l #1,d2
  f802c2:	7010           	moveq #16,d0
  f802c4:	b082           	cmp.l d2,d0
  f802c6:	66ea           	bne.s 0xf802b2
  f802c8:	4280           	clr.l d0
  f802ca:	241f           	move.l (sp)+,d2
  f802cc:	4e75           	rts
  f802ce:	4282           	clr.l d2
  f802d0:	2f02           	move.l d2,-(sp)
  f802d2:	61ff ffff ff76 	bsr.l 0xf8024a
  f802d8:	588f           	addq.l #4,sp
  f802da:	0c00 00ff      	cmpi.b #-1,d0
  f802de:	6608           	bne.s 0xf802e8
  f802e0:	5282           	addq.l #1,d2
  f802e2:	7210           	moveq #16,d1
  f802e4:	b282           	cmp.l d2,d1
  f802e6:	66e8           	bne.s 0xf802d0
  f802e8:	7210           	moveq #16,d1
  f802ea:	b282           	cmp.l d2,d1
  f802ec:	56c0           	sne d0
  f802ee:	49c0           	extb.l d0
  f802f0:	4480           	neg.l d0
  f802f2:	60d6           	bra.s 0xf802ca
  f802f4:	5a25           	addq.b #5,-(a5)
  f802f6:	6320           	bls.s 0xf80318
  f802f8:	6175           	bsr.s 0xf8036f
  f802fa:	746f           	moveq #111,d2
  f802fc:	636f           	bls.s 0xf8036d
  f802fe:	6e66           	bgt.s 0xf80366
  f80300:	6967           	bvs.s 0xf80369
  f80302:	2061           	movea.l -(a1),a0
  f80304:	7420           	moveq #32,d2
  f80306:	2530 3878      	move.l (120,a0,d3.l),-(a2)
  f8030a:	2020           	move.l -(a0),d0
  f8030c:	7369           	.short 0x7369
  f8030e:	7a65           	moveq #101,d5
  f80310:	2025           	move.l -(a5),d0
  f80312:	3038 7820      	move.w 0x7820,d0
  f80316:	2030 7825      	move.l (37,a0,d7.l),d0
  f8031a:	3034 782e      	move.w (46,a4,d7.l),d0
  f8031e:	3078 2530      	movea.w 0x2530,a0
  f80322:	3278 2025      	movea.w 0x2025,a1
  f80326:	7520           	.short 0x7520
  f80328:	2f20           	move.l -(a0),-(sp)
  f8032a:	2575 0a00 2f0c 	move.l (0,a5,d0.l*2),12044(a2)
  f80330:	2f02           	move.l d2,-(sp)
  f80332:	206f 000c      	movea.l 12(sp),a0
  f80336:	1028 0004      	move.b 4(a0),d0
  f8033a:	0c00 0001      	cmpi.b #1,d0
  f8033e:	673e           	beq.s 0xf8037e
  f80340:	0c00 0002      	cmpi.b #2,d0
  f80344:	673c           	beq.s 0xf80382
  f80346:	703f           	moveq #63,d0
  f80348:	4282           	clr.l d2
  f8034a:	1428 0005      	move.b 5(a0),d2
  f8034e:	4281           	clr.l d1
  f80350:	3228 0006      	move.w 6(a0),d1
  f80354:	2f02           	move.l d2,-(sp)
  f80356:	2f01           	move.l d1,-(sp)
  f80358:	2f02           	move.l d2,-(sp)
  f8035a:	2f01           	move.l d1,-(sp)
  f8035c:	2f28 000c      	move.l 12(a0),-(sp)
  f80360:	2f28 0008      	move.l 8(a0),-(sp)
  f80364:	723f           	moveq #63,d1
  f80366:	c280           	and.l d0,d1
  f80368:	2f01           	move.l d1,-(sp)
  f8036a:	487a ff88      	pea 0xf802f4(pc)
  f8036e:	61ff 0000 20ec 	bsr.l 0xf8245c
  f80374:	4fef 0020      	lea 32(sp),sp
  f80378:	241f           	move.l (sp)+,d2
  f8037a:	285f           	movea.l (sp)+,a4
  f8037c:	4e75           	rts
  f8037e:	7032           	moveq #50,d0
  f80380:	60c6           	bra.s 0xf80348
  f80382:	7033           	moveq #51,d0
  f80384:	60c2           	bra.s 0xf80348
  f80386:	5a32 005a      	addq.b #5,(90,a2,d0.w)
  f8038a:	3300           	move.w d0,-(a1)
  f8038c:	436f           	.short 0x436f
  f8038e:	756c           	.short 0x756c
  f80390:	6420           	bcc.s 0xf803b2
  f80392:	6e6f           	bgt.s 0xf80403
  f80394:	7420           	moveq #32,d2
  f80396:	616c           	bsr.s 0xf80404
  f80398:	6c6f           	bge.s 0xf80409
  f8039a:	6361           	bls.s 0xf803fd
  f8039c:	7465           	moveq #101,d2
  f8039e:	0020 2530      	ori.b #48,-(a0)
  f803a2:	3878 0020      	movea.w 0x20,a4
  f803a6:	696e           	bvs.s 0xf80416
  f803a8:	2025           	move.l -(a5),d0
  f803aa:	7320           	.short 0x7320
  f803ac:	7370           	.short 0x7370
  f803ae:	6163           	bsr.s 0xf80413
  f803b0:	650a           	bcs.s 0xf803bc
  f803b2:	0000 48e7      	ori.b #-25,d0
  f803b6:	3e28 242f      	move.w 9263(a0),d7
  f803ba:	0020 282f      	ori.b #47,-(a0)
  f803be:	0024 2a2f      	ori.b #47,-(a4)
  f803c2:	0028 246c 8002 	ori.b #108,-32766(a0)
  f803c8:	2202           	move.l d2,d1
  f803ca:	d284           	add.l d4,d1
  f803cc:	4a8a           	tst.l a2
  f803ce:	663c           	bne.s 0xf8040c
  f803d0:	487a ffba      	pea 0xf8038c(pc)
  f803d4:	61ff 0000 2086 	bsr.l 0xf8245c
  f803da:	588f           	addq.l #4,sp
  f803dc:	4a82           	tst.l d2
  f803de:	670e           	beq.s 0xf803ee
  f803e0:	2f02           	move.l d2,-(sp)
  f803e2:	487a ffbb      	pea 0xf8039f(pc)
  f803e6:	61ff 0000 2074 	bsr.l 0xf8245c
  f803ec:	508f           	addq.l #8,sp
  f803ee:	41fa ff99      	lea 0xf80389(pc),a0
  f803f2:	5785           	subq.l #3,d5
  f803f4:	6604           	bne.s 0xf803fa
  f803f6:	41fa ff8e      	lea 0xf80386(pc),a0
  f803fa:	2f08           	move.l a0,-(sp)
  f803fc:	487a ffa7      	pea 0xf803a5(pc)
  f80400:	61ff 0000 205a 	bsr.l 0xf8245c
  f80406:	508f           	addq.l #8,sp
  f80408:	6000 00a2      	bra.w 0xf804ac
  f8040c:	1c2a 0004      	move.b 4(a2),d6
  f80410:	4280           	clr.l d0
  f80412:	1006           	move.b d6,d0
  f80414:	ba80           	cmp.l d0,d5
  f80416:	6600 009c      	bne.w 0xf804b4
  f8041a:	202a 000c      	move.l 12(a2),d0
  f8041e:	b880           	cmp.l d0,d4
  f80420:	6200 0092      	bhi.w 0xf804b4
  f80424:	4a82           	tst.l d2
  f80426:	6742           	beq.s 0xf8046a
  f80428:	262a 0008      	move.l 8(a2),d3
  f8042c:	b483           	cmp.l d3,d2
  f8042e:	6500 0084      	bcs.w 0xf804b4
  f80432:	d083           	add.l d3,d0
  f80434:	b280           	cmp.l d0,d1
  f80436:	627c           	bhi.s 0xf804b4
  f80438:	b483           	cmp.l d3,d2
  f8043a:	632e           	bls.s 0xf8046a
  f8043c:	4878 0010      	pea 0x10
  f80440:	61ff 0000 4396 	bsr.l 0xf847d8
  f80446:	2040           	movea.l d0,a0
  f80448:	1146 0004      	move.b d6,4(a0)
  f8044c:	2002           	move.l d2,d0
  f8044e:	9083           	sub.l d3,d0
  f80450:	2140 000c      	move.l d0,12(a0)
  f80454:	2142 0008      	move.l d2,8(a0)
  f80458:	2092           	move.l (a2),(a0)
  f8045a:	d6aa 000c      	add.l 12(a2),d3
  f8045e:	9682           	sub.l d2,d3
  f80460:	2543 000c      	move.l d3,12(a2)
  f80464:	2488           	move.l a0,(a2)
  f80466:	588f           	addq.l #4,sp
  f80468:	2448           	movea.l a0,a2
  f8046a:	242a 000c      	move.l 12(a2),d2
  f8046e:	2004           	move.l d4,d0
  f80470:	0680 0001 0000 	addi.l #65536,d0
  f80476:	b082           	cmp.l d2,d0
  f80478:	6228           	bhi.s 0xf804a2
  f8047a:	4878 0010      	pea 0x10
  f8047e:	61ff 0000 4358 	bsr.l 0xf847d8
  f80484:	2040           	movea.l d0,a0
  f80486:	116a 0004 0004 	move.b 4(a2),4(a0)
  f8048c:	9484           	sub.l d4,d2
  f8048e:	2142 000c      	move.l d2,12(a0)
  f80492:	202a 0008      	move.l 8(a2),d0
  f80496:	d084           	add.l d4,d0
  f80498:	2140 0008      	move.l d0,8(a0)
  f8049c:	2092           	move.l (a2),(a0)
  f8049e:	2488           	move.l a0,(a2)
  f804a0:	588f           	addq.l #4,sp
  f804a2:	2544 000c      	move.l d4,12(a2)
  f804a6:	5505           	subq.b #2,d5
  f804a8:	1545 0004      	move.b d5,4(a2)
  f804ac:	200a           	move.l a2,d0
  f804ae:	4cdf 147c      	movem.l (sp)+,d2-d6/a2/a4
  f804b2:	4e75           	rts
  f804b4:	2452           	movea.l (a2),a2
  f804b6:	6000 ff14      	bra.w 0xf803cc
  f804ba:	2f02           	move.l d2,-(sp)
  f804bc:	242f 0008      	move.l 8(sp),d2
  f804c0:	4878 0010      	pea 0x10
  f804c4:	61ff 0000 4312 	bsr.l 0xf847d8
  f804ca:	2040           	movea.l d0,a0
  f804cc:	588f           	addq.l #4,sp
  f804ce:	4a80           	tst.l d0
  f804d0:	6718           	beq.s 0xf804ea
  f804d2:	1142 0004      	move.b d2,4(a0)
  f804d6:	216f 000c 0008 	move.l 12(sp),8(a0)
  f804dc:	216f 0010 000c 	move.l 16(sp),12(a0)
  f804e2:	20ac 8002      	move.l -32766(a4),(a0)
  f804e6:	2940 8002      	move.l d0,-32766(a4)
  f804ea:	241f           	move.l (sp)+,d2
  f804ec:	4e75           	rts
  f804ee:	2f0a           	move.l a2,-(sp)
  f804f0:	2f02           	move.l d2,-(sp)
  f804f2:	246f 000c      	movea.l 12(sp),a2
  f804f6:	0c2a 0001 0004 	cmpi.b #1,4(a2)
  f804fc:	663c           	bne.s 0xf8053a
  f804fe:	4878 0004      	pea 0x4
  f80502:	61ff ffff fd28 	bsr.l 0xf8022c
  f80508:	1400           	move.b d0,d2
  f8050a:	7005           	moveq #5,d0
  f8050c:	2e80           	move.l d0,(sp)
  f8050e:	61ff ffff fd1c 	bsr.l 0xf8022c
  f80514:	e14a           	lsl.w #8,d2
  f80516:	0240 00ff      	andi.w #255,d0
  f8051a:	8440           	or.w d0,d2
  f8051c:	4642           	not.w d2
  f8051e:	3542 0006      	move.w d2,6(a2)
  f80522:	7201           	moveq #1,d1
  f80524:	2e81           	move.l d1,(sp)
  f80526:	61ff ffff fd04 	bsr.l 0xf8022c
  f8052c:	588f           	addq.l #4,sp
  f8052e:	4600           	not.b d0
  f80530:	1540 0005      	move.b d0,5(a2)
  f80534:	241f           	move.l (sp)+,d2
  f80536:	245f           	movea.l (sp)+,a2
  f80538:	4e75           	rts
  f8053a:	4878 0004      	pea 0x4
  f8053e:	61ff ffff fd0a 	bsr.l 0xf8024a
  f80544:	1400           	move.b d0,d2
  f80546:	7005           	moveq #5,d0
  f80548:	2e80           	move.l d0,(sp)
  f8054a:	61ff ffff fcfe 	bsr.l 0xf8024a
  f80550:	e14a           	lsl.w #8,d2
  f80552:	0240 00ff      	andi.w #255,d0
  f80556:	8440           	or.w d0,d2
  f80558:	4642           	not.w d2
  f8055a:	3542 0006      	move.w d2,6(a2)
  f8055e:	7201           	moveq #1,d1
  f80560:	2e81           	move.l d1,(sp)
  f80562:	61ff ffff fce6 	bsr.l 0xf8024a
  f80568:	60c2           	bra.s 0xf8052c
  f8056a:	496e           	.short 0x496e
  f8056c:	7661           	moveq #97,d3
  f8056e:	6c69           	bge.s 0xf805d9
  f80570:	6420           	bcc.s 0xf80592
  f80572:	626f           	bhi.s 0xf805e3
  f80574:	6172           	bsr.s 0xf805e8
  f80576:	6420           	bcc.s 0xf80598
  f80578:	2825           	move.l -(a5),d4
  f8057a:	7829           	moveq #41,d4
  f8057c:	2064           	movea.l -(a4),a0
  f8057e:	6574           	bcs.s 0xf805f4
  f80580:	6563           	bcs.s 0xf805e5
  f80582:	7465           	moveq #101,d2
  f80584:	6420           	bcc.s 0xf805a6
  f80586:	666f           	bne.s 0xf805f7
  f80588:	7220           	moveq #32,d1
  f8058a:	5a6f 7272      	addq.w #5,29298(sp)
  f8058e:	6f20           	ble.s 0xf805b0
  f80590:	4949           	.short 0x4949
  f80592:	490a           	.short 0x490a
  f80594:	0041 6464      	ori.w #25700,d1
  f80598:	7265           	moveq #101,d1
  f8059a:	7373           	.short 0x7373
  f8059c:	2025           	move.l -(a5),d0
  f8059e:	3038 7820      	move.w 0x7820,d0
  f805a2:	6e6f           	bgt.s 0xf80613
  f805a4:	7420           	moveq #32,d2
  f805a6:	616c           	bsr.s 0xf80614
  f805a8:	6967           	bvs.s 0xf80611
  f805aa:	6e65           	bgt.s 0xf80611
  f805ac:	6420           	bcc.s 0xf805ce
  f805ae:	746f           	moveq #111,d2
  f805b0:	2064           	movea.l -(a4),a0
  f805b2:	6576           	bcs.s 0xf8062a
  f805b4:	6963           	bvs.s 0xf80619
  f805b6:	6520           	bcs.s 0xf805d8
  f805b8:	7369           	.short 0x7369
  f805ba:	7a65           	moveq #101,d5
  f805bc:	2025           	move.l -(a5),d0
  f805be:	3038 783b      	move.w 0x783b,d0
  f805c2:	2074 7279      	movea.l (121,a4,d7.w*2),a0
  f805c6:	2025           	move.l -(a5),d0
  f805c8:	3038 780a      	move.w 0x780a,d0
  f805cc:	0000 48e7      	ori.b #-25,d0
  f805d0:	3828 42a7      	move.w 17063(a0),d4
  f805d4:	61ff ffff fc74 	bsr.l 0xf8024a
  f805da:	588f           	addq.l #4,sp
  f805dc:	1200           	move.b d0,d1
  f805de:	ec09           	lsr.b #6,d1
  f805e0:	0c01 0002      	cmpi.b #2,d1
  f805e4:	671e           	beq.s 0xf80604
  f805e6:	0280 0000 00ff 	andi.l #255,d0
  f805ec:	2f00           	move.l d0,-(sp)
  f805ee:	487a ff7a      	pea 0xf8056a(pc)
  f805f2:	61ff 0000 1e68 	bsr.l 0xf8245c
  f805f8:	508f           	addq.l #8,sp
  f805fa:	7801           	moveq #1,d4
  f805fc:	2004           	move.l d4,d0
  f805fe:	4cdf 141c      	movem.l (sp)+,d2-d4/a2/a4
  f80602:	4e75           	rts
  f80604:	7207           	moveq #7,d1
  f80606:	c280           	and.l d0,d1
  f80608:	0800 0005      	btst #5,d0
  f8060c:	6750           	beq.s 0xf8065e
  f8060e:	2630 1db0 00f8 	move.l (16257154,d1.l*4),d3
  f80614:	1082 
  f80616:	4878 0004      	pea 0x4
  f8061a:	2f03           	move.l d3,-(sp)
  f8061c:	2f2f 0020      	move.l 32(sp),-(sp)
  f80620:	61ff ffff fd92 	bsr.l 0xf803b4
  f80626:	2440           	movea.l d0,a2
  f80628:	4fef 000c      	lea 12(sp),sp
  f8062c:	4a80           	tst.l d0
  f8062e:	672a           	beq.s 0xf8065a
  f80630:	242a 0008      	move.l 8(a2),d2
  f80634:	2003           	move.l d3,d0
  f80636:	5380           	subq.l #1,d0
  f80638:	2800           	move.l d0,d4
  f8063a:	c882           	and.l d2,d4
  f8063c:	672a           	beq.s 0xf80668
  f8063e:	d082           	add.l d2,d0
  f80640:	2203           	move.l d3,d1
  f80642:	4481           	neg.l d1
  f80644:	c081           	and.l d1,d0
  f80646:	2f00           	move.l d0,-(sp)
  f80648:	2f03           	move.l d3,-(sp)
  f8064a:	2f02           	move.l d2,-(sp)
  f8064c:	487a ff47      	pea 0xf80595(pc)
  f80650:	61ff 0000 1e0a 	bsr.l 0xf8245c
  f80656:	4fef 0010      	lea 16(sp),sp
  f8065a:	7806           	moveq #6,d4
  f8065c:	609e           	bra.s 0xf805fc
  f8065e:	2630 1db0 00f8 	move.l (16257250,d1.l*4),d3
  f80664:	10e2 
  f80666:	60ae           	bra.s 0xf80616
  f80668:	2f0a           	move.l a2,-(sp)
  f8066a:	61ff ffff fe82 	bsr.l 0xf804ee
  f80670:	7010           	moveq #16,d0
  f80672:	e0aa           	lsr.l d0,d2
  f80674:	13c2 ff00 0048 	move.b d2,0xff000048
  f8067a:	33c2 ff00 0044 	move.w d2,0xff000044
  f80680:	2f0a           	move.l a2,-(sp)
  f80682:	61ff ffff fcaa 	bsr.l 0xf8032e
  f80688:	508f           	addq.l #8,sp
  f8068a:	6000 ff70      	bra.w 0xf805fc
  f8068e:	496e           	.short 0x496e
  f80690:	7661           	moveq #97,d3
  f80692:	6c69           	bge.s 0xf806fd
  f80694:	6420           	bcc.s 0xf806b6
  f80696:	626f           	bhi.s 0xf80707
  f80698:	6172           	bsr.s 0xf8070c
  f8069a:	6420           	bcc.s 0xf806bc
  f8069c:	2825           	move.l -(a5),d4
  f8069e:	7829           	moveq #41,d4
  f806a0:	2064           	movea.l -(a4),a0
  f806a2:	6574           	bcs.s 0xf80718
  f806a4:	6563           	bcs.s 0xf80709
  f806a6:	7465           	moveq #101,d2
  f806a8:	6420           	bcc.s 0xf806ca
  f806aa:	666f           	bne.s 0xf8071b
  f806ac:	7220           	moveq #32,d1
  f806ae:	5a6f 7272      	addq.w #5,29298(sp)
  f806b2:	6f20           	ble.s 0xf806d4
  f806b4:	4949           	.short 0x4949
  f806b6:	0a00 48e7      	eori.b #-25,d0
  f806ba:	3c28 42a7      	move.w 17063(a0),d6
  f806be:	61ff ffff fb6c 	bsr.l 0xf8022c
  f806c4:	588f           	addq.l #4,sp
  f806c6:	1200           	move.b d0,d1
  f806c8:	ec09           	lsr.b #6,d1
  f806ca:	0c01 0002      	cmpi.b #2,d1
  f806ce:	6724           	beq.s 0xf806f4
  f806d0:	0c01 0003      	cmpi.b #3,d1
  f806d4:	677a           	beq.s 0xf80750
  f806d6:	0280 0000 00ff 	andi.l #255,d0
  f806dc:	2f00           	move.l d0,-(sp)
  f806de:	487a ffae      	pea 0xf8068e(pc)
  f806e2:	61ff 0000 1d78 	bsr.l 0xf8245c
  f806e8:	508f           	addq.l #8,sp
  f806ea:	7801           	moveq #1,d4
  f806ec:	2004           	move.l d4,d0
  f806ee:	4cdf 143c      	movem.l (sp)+,d2-d5/a2/a4
  f806f2:	4e75           	rts
  f806f4:	0800 0005      	btst #5,d0
  f806f8:	6766           	beq.s 0xf80760
  f806fa:	7207           	moveq #7,d1
  f806fc:	c081           	and.l d1,d0
  f806fe:	2630 0db0 00f8 	move.l (16257154,d0.l*4),d3
  f80704:	1082 
  f80706:	7a01           	moveq #1,d5
  f80708:	4878 0003      	pea 0x3
  f8070c:	2f03           	move.l d3,-(sp)
  f8070e:	2f2f 0024      	move.l 36(sp),-(sp)
  f80712:	61ff ffff fca0 	bsr.l 0xf803b4
  f80718:	2440           	movea.l d0,a2
  f8071a:	4fef 000c      	lea 12(sp),sp
  f8071e:	4a80           	tst.l d0
  f80720:	672a           	beq.s 0xf8074c
  f80722:	242a 0008      	move.l 8(a2),d2
  f80726:	2003           	move.l d3,d0
  f80728:	5380           	subq.l #1,d0
  f8072a:	2800           	move.l d0,d4
  f8072c:	c882           	and.l d2,d4
  f8072e:	6734           	beq.s 0xf80764
  f80730:	d082           	add.l d2,d0
  f80732:	2203           	move.l d3,d1
  f80734:	4481           	neg.l d1
  f80736:	c081           	and.l d1,d0
  f80738:	2f00           	move.l d0,-(sp)
  f8073a:	2f03           	move.l d3,-(sp)
  f8073c:	2f02           	move.l d2,-(sp)
  f8073e:	487a fe55      	pea 0xf80595(pc)
  f80742:	61ff 0000 1d18 	bsr.l 0xf8245c
  f80748:	4fef 0010      	lea 16(sp),sp
  f8074c:	7806           	moveq #6,d4
  f8074e:	609c           	bra.s 0xf806ec
  f80750:	4285           	clr.l d5
  f80752:	7607           	moveq #7,d3
  f80754:	c083           	and.l d3,d0
  f80756:	2630 0db0 00f8 	move.l (16257250,d0.l*4),d3
  f8075c:	10e2 
  f8075e:	60a8           	bra.s 0xf80708
  f80760:	7a01           	moveq #1,d5
  f80762:	60ee           	bra.s 0xf80752
  f80764:	2f0a           	move.l a2,-(sp)
  f80766:	61ff ffff fd86 	bsr.l 0xf804ee
  f8076c:	2202           	move.l d2,d1
  f8076e:	700c           	moveq #12,d0
  f80770:	e0a9           	lsr.l d0,d1
  f80772:	2002           	move.l d2,d0
  f80774:	7610           	moveq #16,d3
  f80776:	e6a8           	lsr.l d3,d0
  f80778:	588f           	addq.l #4,sp
  f8077a:	4a85           	tst.l d5
  f8077c:	6716           	beq.s 0xf80794
  f8077e:	2602           	move.l d2,d3
  f80780:	7a14           	moveq #20,d5
  f80782:	eaab           	lsr.l d5,d3
  f80784:	13c3 00e8 0046 	move.b d3,0xe80046
  f8078a:	7618           	moveq #24,d3
  f8078c:	e6aa           	lsr.l d3,d2
  f8078e:	13c2 00e8 0044 	move.b d2,0xe80044
  f80794:	13c1 00e8 004a 	move.b d1,0xe8004a
  f8079a:	13c0 00e8 0048 	move.b d0,0xe80048
  f807a0:	2f0a           	move.l a2,-(sp)
  f807a2:	61ff ffff fb8a 	bsr.l 0xf8032e
  f807a8:	588f           	addq.l #4,sp
  f807aa:	6000 ff40      	bra.w 0xf806ec
  f807ae:	2020           	move.l -(a0),d0
  f807b0:	2025           	move.l -(a5),d0
  f807b2:	3032 7820      	move.w (32,a2,d7.l),d0
  f807b6:	2020           	move.l -(a0),d0
  f807b8:	2530 3278      	move.l (120,a0,d3.w*2),-(a2)
  f807bc:	0000 2f0c      	ori.b #12,d0
  f807c0:	2f02           	move.l d2,-(sp)
  f807c2:	202f 0010      	move.l 16(sp),d0
  f807c6:	2200           	move.l d0,d1
  f807c8:	e489           	lsr.l #2,d1
  f807ca:	206f 000c      	movea.l 12(sp),a0
  f807ce:	1430 1800      	move.b (0,a0,d1.l),d2
  f807d2:	4281           	clr.l d1
  f807d4:	1202           	move.b d2,d1
  f807d6:	2f01           	move.l d1,-(sp)
  f807d8:	2f00           	move.l d0,-(sp)
  f807da:	487a ffd2      	pea 0xf807ae(pc)
  f807de:	61ff 0000 1c7c 	bsr.l 0xf8245c
  f807e4:	4fef 000c      	lea 12(sp),sp
  f807e8:	1002           	move.b d2,d0
  f807ea:	241f           	move.l (sp)+,d2
  f807ec:	285f           	movea.l (sp)+,a4
  f807ee:	4e75           	rts
  f807f0:	205a           	movea.l (a2)+,a0
  f807f2:	6f72           	ble.s 0xf80866
  f807f4:	726f           	moveq #111,d1
  f807f6:	5f52           	subq.w #7,(a2)
  f807f8:	6573           	bcs.s 0xf8086d
  f807fa:	6572           	bcs.s 0xf8086e
  f807fc:	7665           	moveq #101,d3
  f807fe:	6400 205a      	bcc.w 0xf8285a
  f80802:	6f72           	ble.s 0xf80876
  f80804:	726f           	moveq #111,d1
  f80806:	4949           	.short 0x4949
  f80808:	4900           	chk.l d0,d4
  f8080a:	205a           	movea.l (a2)+,a0
  f8080c:	6f72           	ble.s 0xf80880
  f8080e:	726f           	moveq #111,d1
  f80810:	4949           	.short 0x4949
  f80812:	0020 4d65      	ori.b #101,-(a0)
  f80816:	6d6f           	blt.s 0xf80887
  f80818:	7279           	moveq #121,d1
  f8081a:	0020 5369      	ori.b #105,-(a0)
  f8081e:	7a65           	moveq #101,d5
  f80820:	3d25           	move.w -(a5),-(a6)
  f80822:	7300           	.short 0x7300
  f80824:	2041           	movea.l d1,a0
  f80826:	7574           	.short 0x7574
  f80828:	6f62           	ble.s 0xf8088c
  f8082a:	6f6f           	ble.s 0xf8089b
  f8082c:	7400           	moveq #0,d2
  f8082e:	204c           	movea.l a4,a0
  f80830:	696e           	bvs.s 0xf808a0
  f80832:	6b2d           	bmi.s 0xf80861
  f80834:	746f           	moveq #111,d2
  f80836:	2d6e 6578 7400 	move.l 25976(a6),29696(a6)
  f8083c:	2050           	movea.l (a0),a0
  f8083e:	726f           	moveq #111,d1
  f80840:	6475           	bcc.s 0xf808b7
  f80842:	6374           	bls.s 0xf808b8
  f80844:	3d30 7825      	move.w (37,a0,d7.l),-(a6)
  f80848:	3032 780a      	move.w (10,a2,d7.l),d0
  f8084c:	0020 4465      	ori.b #101,-(a0)
  f80850:	7669           	moveq #105,d3
  f80852:	6365           	bls.s 0xf808b9
  f80854:	2d4d 656d      	move.l a5,25965(a6)
  f80858:	6f72           	ble.s 0xf808cc
  f8085a:	7900           	.short 0x7900
  f8085c:	2044           	movea.l d4,a0
  f8085e:	6576           	bcs.s 0xf808d6
  f80860:	6963           	bvs.s 0xf808c5
  f80862:	652d           	bcs.s 0xf80891
  f80864:	494f           	.short 0x494f
  f80866:	0020 4669      	ori.b #105,-(a0)
  f8086a:	742d           	moveq #45,d2
  f8086c:	5a6f 7272      	addq.w #5,29298(sp)
  f80870:	6f49           	ble.s 0xf808bb
  f80872:	4900           	chk.l d0,d4
  f80874:	2046           	movea.l d6,a0
  f80876:	6974           	bvs.s 0xf808ec
  f80878:	2d61 6e79      	move.l -(a1),28281(a6)
  f8087c:	7768           	.short 0x7768
  f8087e:	6572           	bcs.s 0xf808f2
  f80880:	6500 204e      	bcs.w 0xf828d0
  f80884:	6f53           	ble.s 0xf808d9
  f80886:	6875           	bvc.s 0xf808fd
  f80888:	7475           	moveq #117,d2
  f8088a:	7000           	moveq #0,d0
  f8088c:	2043           	movea.l d3,a0
  f8088e:	616e           	bsr.s 0xf808fe
  f80890:	5368 7574      	subq.w #1,30068(a0)
  f80894:	7570           	.short 0x7570
  f80896:	0020 496e      	ori.b #110,-(a0)
  f8089a:	7661           	moveq #97,d3
  f8089c:	6c69           	bge.s 0xf80907
  f8089e:	645f           	bcc.s 0xf808ff
  f808a0:	5253           	addq.w #1,(a3)
  f808a2:	5644           	addq.w #3,d4
  f808a4:	0020 5369      	ori.b #105,-(a0)
  f808a8:	7a65           	moveq #101,d5
  f808aa:	4578           	.short 0x4578
  f808ac:	7400           	moveq #0,d2
  f808ae:	2025           	move.l -(a5),d0
  f808b0:	730a           	.short 0x730a
  f808b2:	0020 5265      	ori.b #101,-(a0)
  f808b6:	7365           	.short 0x7365
  f808b8:	7276           	moveq #118,d1
  f808ba:	6564           	bcs.s 0xf80920
  f808bc:	3a20           	move.w -(a0),d5
  f808be:	7368           	.short 0x7368
  f808c0:	6f75           	ble.s 0xf80937
  f808c2:	6c64           	bge.s 0xf80928
  f808c4:	2062           	movea.l -(a2),a0
  f808c6:	6520           	bcs.s 0xf808e8
  f808c8:	3078 3030      	movea.w 0x3030,a0
  f808cc:	0020 4d66      	ori.b #102,-(a0)
  f808d0:	6720           	beq.s 0xf808f2
  f808d2:	4e75           	rts
  f808d4:	6d62           	blt.s 0xf80938
  f808d6:	6572           	bcs.s 0xf8094a
  f808d8:	2068 6967      	movea.l 26983(a0),a0
  f808dc:	6820           	bvc.s 0xf808fe
  f808de:	6279           	bhi.s 0xf80959
  f808e0:	7465           	moveq #101,d2
  f808e2:	0020 4d66      	ori.b #102,-(a0)
  f808e6:	6720           	beq.s 0xf80908
  f808e8:	4e75           	rts
  f808ea:	6d62           	blt.s 0xf8094e
  f808ec:	6572           	bcs.s 0xf80960
  f808ee:	206c 6f77      	movea.l 28535(a4),a0
  f808f2:	2062           	movea.l -(a2),a0
  f808f4:	7974           	.short 0x7974
  f808f6:	6520           	bcs.s 0xf80918
  f808f8:	2020           	move.l -(a0),d0
  f808fa:	2049           	movea.l a1,a0
  f808fc:	4420           	neg.b -(a0)
  f808fe:	3078 2530      	movea.w 0x2530,a0
  f80902:	3478 2e30      	movea.w 0x2e30,a2
  f80906:	7825           	moveq #37,d4
  f80908:	3032 7820      	move.w (32,a2,d7.l),d0
  f8090c:	2025           	move.l -(a5),d0
  f8090e:	7520           	.short 0x7520
  f80910:	2f20           	move.l -(a0),-(sp)
  f80912:	2575 0a00 2053 	move.l (0,a5,d0.l*2),8275(a2)
  f80918:	6572           	bcs.s 0xf8098c
  f8091a:	6961           	bvs.s 0xf8097d
  f8091c:	6c20           	bge.s 0xf8093e
  f8091e:	6e75           	bgt.s 0xf80995
  f80920:	6d62           	blt.s 0xf80984
  f80922:	6572           	bcs.s 0xf80996
  f80924:	2062           	movea.l -(a2),a0
  f80926:	7974           	.short 0x7974
  f80928:	6520           	bcs.s 0xf8094a
  f8092a:	2564 0020      	move.l -(a4),32(a2)
  f8092e:	2020           	move.l -(a0),d0
  f80930:	5365           	subq.w #1,-(a5)
  f80932:	7269           	moveq #105,d1
  f80934:	616c           	bsr.s 0xf809a2
  f80936:	3d30 7825      	move.w (37,a0,d7.l),-(a6)
  f8093a:	3038 7800      	move.w 0x7800,d0
  f8093e:	204f           	movea.l sp,a0
  f80940:	7074           	moveq #116,d0
  f80942:	696f           	bvs.s 0xf809b3
  f80944:	6e20           	bgt.s 0xf80966
  f80946:	524f           	addq.w #1,sp
  f80948:	4d20           	chk.l -(a0),d6
  f8094a:	7665           	moveq #101,d3
  f8094c:	6374           	bls.s 0xf809c2
  f8094e:	6f72           	ble.s 0xf809c2
  f80950:	2068 6967      	movea.l 26983(a0),a0
  f80954:	6800 204f      	bvc.w 0xf829a5
  f80958:	7074           	moveq #116,d0
  f8095a:	696f           	bvs.s 0xf809cb
  f8095c:	6e20           	bgt.s 0xf8097e
  f8095e:	524f           	addq.w #1,sp
  f80960:	4d20           	chk.l -(a0),d6
  f80962:	7665           	moveq #101,d3
  f80964:	6374           	bls.s 0xf809da
  f80966:	6f72           	ble.s 0xf809da
  f80968:	206c 6f77      	movea.l 28535(a4),a0
  f8096c:	2020           	move.l -(a0),d0
  f8096e:	4f66           	.short 0x4f66
  f80970:	6673           	bne.s 0xf809e5
  f80972:	6574           	bcs.s 0xf809e8
  f80974:	3d30 7825      	move.w (37,a0,d7.l),-(a6)
  f80978:	3034 780a      	move.w (10,a4,d7.l),d0
  f8097c:	0020 2052      	ori.b #82,-(a0)
  f80980:	6567           	bcs.s 0xf809e9
  f80982:	2044           	movea.l d4,a0
  f80984:	6174           	bsr.s 0xf809fa
  f80986:	6120           	bsr.s 0xf809a8
  f80988:	4465           	neg.w -(a5)
  f8098a:	636f           	bls.s 0xf809fb
  f8098c:	6465           	bcc.s 0xf809f3
  f8098e:	0000 48e7      	ori.b #-25,d0
  f80992:	3c3c 246f      	move.w #9327,d6
  f80996:	0024 4280      	ori.b #-128,-(a4)
  f8099a:	4a32 0800      	tst.b (0,a2,d0.l)
  f8099e:	6610           	bne.s 0xf809b0
  f809a0:	5280           	addq.l #1,d0
  f809a2:	7211           	moveq #17,d1
  f809a4:	b280           	cmp.l d0,d1
  f809a6:	66f2           	bne.s 0xf8099a
  f809a8:	7005           	moveq #5,d0
  f809aa:	4cdf 3c3c      	movem.l (sp)+,d2-d5/a2-a5
  f809ae:	4e75           	rts
  f809b0:	4280           	clr.l d0
  f809b2:	0c32 00ff 0800 	cmpi.b #-1,(0,a2,d0.l)
  f809b8:	6668           	bne.s 0xf80a22
  f809ba:	5280           	addq.l #1,d0
  f809bc:	7211           	moveq #17,d1
  f809be:	b280           	cmp.l d0,d1
  f809c0:	66f0           	bne.s 0xf809b2
  f809c2:	60e4           	bra.s 0xf809a8
  f809c4:	0c00 0003      	cmpi.b #3,d0
  f809c8:	6710           	beq.s 0xf809da
  f809ca:	487a fe24      	pea 0xf807f0(pc)
  f809ce:	61ff 0000 1a8c 	bsr.l 0xf8245c
  f809d4:	588f           	addq.l #4,sp
  f809d6:	4283           	clr.l d3
  f809d8:	607e           	bra.s 0xf80a58
  f809da:	487a fe2e      	pea 0xf8080a(pc)
  f809de:	60ee           	bra.s 0xf809ce
  f809e0:	41f0 09b0 00f8 	lea (16257282,d0.l),a0
  f809e6:	1102 
  f809e8:	6000 009c      	bra.w 0xf80a86
  f809ec:	4285           	clr.l d5
  f809ee:	6000 00ba      	bra.w 0xf80aaa
  f809f2:	487a fe68      	pea 0xf8085c(pc)
  f809f6:	6000 010a      	bra.w 0xf80b02
  f809fa:	4a00           	tst.b d0
  f809fc:	6c08           	bge.s 0xf80a06
  f809fe:	487a fe67      	pea 0xf80867(pc)
  f80a02:	6000 00fe      	bra.w 0xf80b02
  f80a06:	487a fe6c      	pea 0xf80874(pc)
  f80a0a:	6000 00f6      	bra.w 0xf80b02
  f80a0e:	487a fe7c      	pea 0xf8088c(pc)
  f80a12:	6000 0102      	bra.w 0xf80b16
  f80a16:	4282           	clr.l d2
  f80a18:	6000 0172      	bra.w 0xf80b8c
  f80a1c:	4280           	clr.l d0
  f80a1e:	6000 0274      	bra.w 0xf80c94
  f80a22:	487a ff59      	pea 0xf8097d(pc)
  f80a26:	61ff 0000 33aa 	bsr.l 0xf83dd2
  f80a2c:	42a7           	clr.l -(sp)
  f80a2e:	2f0a           	move.l a2,-(sp)
  f80a30:	61ff ffff fd8c 	bsr.l 0xf807be
  f80a36:	1400           	move.b d0,d2
  f80a38:	4602           	not.b d2
  f80a3a:	1002           	move.b d2,d0
  f80a3c:	ec08           	lsr.b #6,d0
  f80a3e:	4fef 000c      	lea 12(sp),sp
  f80a42:	0c00 0002      	cmpi.b #2,d0
  f80a46:	6600 ff7c      	bne.w 0xf809c4
  f80a4a:	487a fdb4      	pea 0xf80800(pc)
  f80a4e:	61ff 0000 1a0c 	bsr.l 0xf8245c
  f80a54:	588f           	addq.l #4,sp
  f80a56:	7601           	moveq #1,d3
  f80a58:	0802 0005      	btst #5,d2
  f80a5c:	670c           	beq.s 0xf80a6a
  f80a5e:	487a fdb3      	pea 0xf80813(pc)
  f80a62:	61ff 0000 19f8 	bsr.l 0xf8245c
  f80a68:	588f           	addq.l #4,sp
  f80a6a:	7007           	moveq #7,d0
  f80a6c:	c082           	and.l d2,d0
  f80a6e:	e788           	lsl.l #3,d0
  f80a70:	4a83           	tst.l d3
  f80a72:	6700 ff6c      	beq.w 0xf809e0
  f80a76:	0812 0005      	btst #5,(a2)
  f80a7a:	6600 ff64      	bne.w 0xf809e0
  f80a7e:	41f0 09b0 00f8 	lea (16257186,d0.l),a0
  f80a84:	10a2 
  f80a86:	2f08           	move.l a0,-(sp)
  f80a88:	487a fd91      	pea 0xf8081b(pc)
  f80a8c:	61ff 0000 19ce 	bsr.l 0xf8245c
  f80a92:	508f           	addq.l #8,sp
  f80a94:	0802 0004      	btst #4,d2
  f80a98:	6700 ff52      	beq.w 0xf809ec
  f80a9c:	487a fd86      	pea 0xf80824(pc)
  f80aa0:	61ff 0000 19ba 	bsr.l 0xf8245c
  f80aa6:	588f           	addq.l #4,sp
  f80aa8:	7a01           	moveq #1,d5
  f80aaa:	44c2           	move.w d2,ccr
  f80aac:	6a0c           	bpl.s 0xf80aba
  f80aae:	487a fd7e      	pea 0xf8082e(pc)
  f80ab2:	61ff 0000 19a8 	bsr.l 0xf8245c
  f80ab8:	588f           	addq.l #4,sp
  f80aba:	4878 000a      	pea 0xa
  f80abe:	61ff 0000 32d4 	bsr.l 0xf83d94
  f80ac4:	4878 0004      	pea 0x4
  f80ac8:	2f0a           	move.l a2,-(sp)
  f80aca:	61ff ffff fcf2 	bsr.l 0xf807be
  f80ad0:	4284           	clr.l d4
  f80ad2:	1800           	move.b d0,d4
  f80ad4:	2f04           	move.l d4,-(sp)
  f80ad6:	487a fd64      	pea 0xf8083c(pc)
  f80ada:	61ff 0000 1980 	bsr.l 0xf8245c
  f80ae0:	4878 0008      	pea 0x8
  f80ae4:	2f0a           	move.l a2,-(sp)
  f80ae6:	61ff ffff fcd6 	bsr.l 0xf807be
  f80aec:	1400           	move.b d0,d2
  f80aee:	4fef 001c      	lea 28(sp),sp
  f80af2:	4a83           	tst.l d3
  f80af4:	6700 ff04      	beq.w 0xf809fa
  f80af8:	4a00           	tst.b d0
  f80afa:	6c00 fef6      	bge.w 0xf809f2
  f80afe:	487a fd4d      	pea 0xf8084d(pc)
  f80b02:	61ff 0000 1958 	bsr.l 0xf8245c
  f80b08:	588f           	addq.l #4,sp
  f80b0a:	0802 0006      	btst #6,d2
  f80b0e:	6700 fefe      	beq.w 0xf80a0e
  f80b12:	487a fd6e      	pea 0xf80882(pc)
  f80b16:	61ff 0000 1944 	bsr.l 0xf8245c
  f80b1c:	588f           	addq.l #4,sp
  f80b1e:	4a83           	tst.l d3
  f80b20:	6712           	beq.s 0xf80b34
  f80b22:	0802 0004      	btst #4,d2
  f80b26:	660c           	bne.s 0xf80b34
  f80b28:	487a fd6d      	pea 0xf80897(pc)
  f80b2c:	61ff 0000 192e 	bsr.l 0xf8245c
  f80b32:	588f           	addq.l #4,sp
  f80b34:	0802 0005      	btst #5,d2
  f80b38:	670c           	beq.s 0xf80b46
  f80b3a:	487a fd69      	pea 0xf808a5(pc)
  f80b3e:	61ff 0000 191c 	bsr.l 0xf8245c
  f80b44:	588f           	addq.l #4,sp
  f80b46:	700f           	moveq #15,d0
  f80b48:	c480           	and.l d0,d2
  f80b4a:	2f30 2db0 00f8 	move.l (16257090,d2.l*4),-(sp)
  f80b50:	1042 
  f80b52:	487a fd5a      	pea 0xf808ae(pc)
  f80b56:	61ff 0000 1904 	bsr.l 0xf8245c
  f80b5c:	102a 0003      	move.b 3(a2),d0
  f80b60:	508f           	addq.l #8,sp
  f80b62:	6700 feb2      	beq.w 0xf80a16
  f80b66:	0280 0000 00ff 	andi.l #255,d0
  f80b6c:	2f00           	move.l d0,-(sp)
  f80b6e:	4878 000c      	pea 0xc
  f80b72:	487a fc3a      	pea 0xf807ae(pc)
  f80b76:	61ff 0000 18e4 	bsr.l 0xf8245c
  f80b7c:	487a fd35      	pea 0xf808b3(pc)
  f80b80:	61ff 0000 3250 	bsr.l 0xf83dd2
  f80b86:	4fef 0010      	lea 16(sp),sp
  f80b8a:	7401           	moveq #1,d2
  f80b8c:	4878 0010      	pea 0x10
  f80b90:	2f0a           	move.l a2,-(sp)
  f80b92:	61ff ffff fc2a 	bsr.l 0xf807be
  f80b98:	4283           	clr.l d3
  f80b9a:	1600           	move.b d0,d3
  f80b9c:	e18b           	lsl.l #8,d3
  f80b9e:	487a fd2d      	pea 0xf808cd(pc)
  f80ba2:	61ff 0000 322e 	bsr.l 0xf83dd2
  f80ba8:	4878 0014      	pea 0x14
  f80bac:	2f0a           	move.l a2,-(sp)
  f80bae:	61ff ffff fc0e 	bsr.l 0xf807be
  f80bb4:	8600           	or.b d0,d3
  f80bb6:	2f04           	move.l d4,-(sp)
  f80bb8:	2f03           	move.l d3,-(sp)
  f80bba:	2f04           	move.l d4,-(sp)
  f80bbc:	2f03           	move.l d3,-(sp)
  f80bbe:	487a fd23      	pea 0xf808e3(pc)
  f80bc2:	61ff 0000 1898 	bsr.l 0xf8245c
  f80bc8:	4fef 0028      	lea 40(sp),sp
  f80bcc:	4283           	clr.l d3
  f80bce:	4284           	clr.l d4
  f80bd0:	47fa fd44      	lea 0xf80916(pc),a3
  f80bd4:	e18c           	lsl.l #8,d4
  f80bd6:	2003           	move.l d3,d0
  f80bd8:	e588           	lsl.l #2,d0
  f80bda:	2040           	movea.l d0,a0
  f80bdc:	4868 0018      	pea 24(a0)
  f80be0:	2f0a           	move.l a2,-(sp)
  f80be2:	61ff ffff fbda 	bsr.l 0xf807be
  f80be8:	8800           	or.b d0,d4
  f80bea:	2f03           	move.l d3,-(sp)
  f80bec:	2f0b           	move.l a3,-(sp)
  f80bee:	61ff 0000 186c 	bsr.l 0xf8245c
  f80bf4:	4fef 0010      	lea 16(sp),sp
  f80bf8:	7003           	moveq #3,d0
  f80bfa:	b083           	cmp.l d3,d0
  f80bfc:	660e           	bne.s 0xf80c0c
  f80bfe:	2f04           	move.l d4,-(sp)
  f80c00:	487a fd2b      	pea 0xf8092d(pc)
  f80c04:	61ff 0000 1856 	bsr.l 0xf8245c
  f80c0a:	508f           	addq.l #8,sp
  f80c0c:	4878 000a      	pea 0xa
  f80c10:	61ff 0000 3182 	bsr.l 0xf83d94
  f80c16:	5283           	addq.l #1,d3
  f80c18:	588f           	addq.l #4,sp
  f80c1a:	7204           	moveq #4,d1
  f80c1c:	b283           	cmp.l d3,d1
  f80c1e:	66b4           	bne.s 0xf80bd4
  f80c20:	4a85           	tst.l d5
  f80c22:	673a           	beq.s 0xf80c5e
  f80c24:	4878 0028      	pea 0x28
  f80c28:	2f0a           	move.l a2,-(sp)
  f80c2a:	61ff ffff fb92 	bsr.l 0xf807be
  f80c30:	4283           	clr.l d3
  f80c32:	1600           	move.b d0,d3
  f80c34:	e18b           	lsl.l #8,d3
  f80c36:	487a fd06      	pea 0xf8093e(pc)
  f80c3a:	61ff 0000 3196 	bsr.l 0xf83dd2
  f80c40:	4878 002c      	pea 0x2c
  f80c44:	2f0a           	move.l a2,-(sp)
  f80c46:	61ff ffff fb76 	bsr.l 0xf807be
  f80c4c:	8600           	or.b d0,d3
  f80c4e:	2f03           	move.l d3,-(sp)
  f80c50:	487a fd04      	pea 0xf80956(pc)
  f80c54:	61ff 0000 1806 	bsr.l 0xf8245c
  f80c5a:	4fef 001c      	lea 28(sp),sp
  f80c5e:	7630           	moveq #48,d3
  f80c60:	47fa fb4c      	lea 0xf807ae(pc),a3
  f80c64:	4bfa fc4d      	lea 0xf808b3(pc),a5
  f80c68:	2003           	move.l d3,d0
  f80c6a:	e488           	lsr.l #2,d0
  f80c6c:	1032 0800      	move.b (0,a2,d0.l),d0
  f80c70:	6700 fdaa      	beq.w 0xf80a1c
  f80c74:	0280 0000 00ff 	andi.l #255,d0
  f80c7a:	2f00           	move.l d0,-(sp)
  f80c7c:	2f03           	move.l d3,-(sp)
  f80c7e:	2f0b           	move.l a3,-(sp)
  f80c80:	61ff 0000 17da 	bsr.l 0xf8245c
  f80c86:	2f0d           	move.l a5,-(sp)
  f80c88:	61ff 0000 3148 	bsr.l 0xf83dd2
  f80c8e:	4fef 0010      	lea 16(sp),sp
  f80c92:	7001           	moveq #1,d0
  f80c94:	d480           	add.l d0,d2
  f80c96:	5883           	addq.l #4,d3
  f80c98:	7044           	moveq #68,d0
  f80c9a:	b083           	cmp.l d3,d0
  f80c9c:	66ca           	bne.s 0xf80c68
  f80c9e:	4a82           	tst.l d2
  f80ca0:	56c0           	sne d0
  f80ca2:	49c0           	extb.l d0
  f80ca4:	4480           	neg.l d0
  f80ca6:	6000 fd02      	bra.w 0xf809aa
  f80caa:	2025           	move.l -(a5),d0
  f80cac:	3038 7820      	move.w 0x7820,d0
  f80cb0:	5b25           	subq.b #5,-(a5)
  f80cb2:	3038 785d      	move.w 0x785d,d0
  f80cb6:	0020 4652      	ori.b #82,-(a0)
  f80cba:	4545           	.short 0x4545
  f80cbc:	0020 426f      	ori.b #111,-(a0)
  f80cc0:	6172           	bsr.s 0xf80d34
  f80cc2:	6420           	bcc.s 0xf80ce4
  f80cc4:	3078 2530      	movea.w 0x2530,a0
  f80cc8:	3478 2e30      	movea.w 0x2e30,a2
  f80ccc:	7825           	moveq #37,d4
  f80cce:	3032 7820      	move.w (32,a2,d7.l),d0
  f80cd2:	2025           	move.l -(a5),d0
  f80cd4:	7520           	.short 0x7520
  f80cd6:	2f20           	move.l -(a0),-(sp)
  f80cd8:	2575 0a00 48e7 	move.l (0,a5,d0.l*2),18663(a2)
  f80cde:	303e           	.short 0x303e
  f80ce0:	246c 8002      	movea.l -32766(a4),a2
  f80ce4:	47fa f6a3      	lea 0xf80389(pc),a3
  f80ce8:	4bfa f69c      	lea 0xf80386(pc),a5
  f80cec:	4dfa ffbc      	lea 0xf80caa(pc),a6
  f80cf0:	41fa ffcb      	lea 0xf80cbd(pc),a0
  f80cf4:	2408           	move.l a0,d2
  f80cf6:	41fa ffbf      	lea 0xf80cb7(pc),a0
  f80cfa:	2608           	move.l a0,d3
  f80cfc:	4a8a           	tst.l a2
  f80cfe:	6606           	bne.s 0xf80d06
  f80d00:	4cdf 7c0c      	movem.l (sp)+,d2-d3/a2-a6
  f80d04:	4e75           	rts
  f80d06:	102a 0004      	move.b 4(a2),d0
  f80d0a:	0200 00fd      	andi.b #-3,d0
  f80d0e:	0c00 0001      	cmpi.b #1,d0
  f80d12:	6636           	bne.s 0xf80d4a
  f80d14:	2f0d           	move.l a5,-(sp)
  f80d16:	61ff 0000 1744 	bsr.l 0xf8245c
  f80d1c:	2eaa 000c      	move.l 12(a2),(sp)
  f80d20:	2f2a 0008      	move.l 8(a2),-(sp)
  f80d24:	2f0e           	move.l a6,-(sp)
  f80d26:	61ff 0000 1734 	bsr.l 0xf8245c
  f80d2c:	102a 0004      	move.b 4(a2),d0
  f80d30:	5700           	subq.b #3,d0
  f80d32:	4fef 000c      	lea 12(sp),sp
  f80d36:	0c00 0001      	cmpi.b #1,d0
  f80d3a:	6212           	bhi.s 0xf80d4e
  f80d3c:	2f03           	move.l d3,-(sp)
  f80d3e:	61ff 0000 3092 	bsr.l 0xf83dd2
  f80d44:	588f           	addq.l #4,sp
  f80d46:	2452           	movea.l (a2),a2
  f80d48:	60b2           	bra.s 0xf80cfc
  f80d4a:	2f0b           	move.l a3,-(sp)
  f80d4c:	60c8           	bra.s 0xf80d16
  f80d4e:	4281           	clr.l d1
  f80d50:	122a 0005      	move.b 5(a2),d1
  f80d54:	4280           	clr.l d0
  f80d56:	302a 0006      	move.w 6(a2),d0
  f80d5a:	2f01           	move.l d1,-(sp)
  f80d5c:	2f00           	move.l d0,-(sp)
  f80d5e:	2f01           	move.l d1,-(sp)
  f80d60:	2f00           	move.l d0,-(sp)
  f80d62:	2f02           	move.l d2,-(sp)
  f80d64:	61ff 0000 16f6 	bsr.l 0xf8245c
  f80d6a:	4fef 0014      	lea 20(sp),sp
  f80d6e:	60d6           	bra.s 0xf80d46
  f80d70:	5a49           	addq.w #5,a1
  f80d72:	4920           	chk.l -(a0),d4
  f80d74:	2030 3065      	move.l (101,a0,d3.w),d0
  f80d78:	3830 3030      	move.w (48,a0,d3.w),d4
  f80d7c:	303a 0020      	move.w 0xf80d9e(pc),d0
  f80d80:	2530 3278      	move.l (120,a0,d3.w*2),-(a2)
  f80d84:	005a 4949      	ori.w #18761,(a2)+
  f80d88:	4920           	chk.l -(a0),d4
  f80d8a:	6666           	bne.s 0xf80df2
  f80d8c:	3030 3030      	move.w (48,a0,d3.w),d0
  f80d90:	3030 3a00      	move.w (0,a0,d3.l*2),d0
  f80d94:	4fef ffec      	lea -20(sp),sp
  f80d98:	48e7 3038      	movem.l d2-d3/a2-a4,-(sp)
  f80d9c:	487a ffd2      	pea 0xf80d70(pc)
  f80da0:	61ff 0000 16ba 	bsr.l 0xf8245c
  f80da6:	588f           	addq.l #4,sp
  f80da8:	4282           	clr.l d2
  f80daa:	45ef 0017      	lea 23(sp),a2
  f80dae:	47fa ffcf      	lea 0xf80d7f(pc),a3
  f80db2:	2f02           	move.l d2,-(sp)
  f80db4:	61ff ffff f476 	bsr.l 0xf8022c
  f80dba:	1200           	move.b d0,d1
  f80dbc:	4601           	not.b d1
  f80dbe:	1581 2800      	move.b d1,(0,a2,d2.l)
  f80dc2:	0280 0000 00ff 	andi.l #255,d0
  f80dc8:	2e80           	move.l d0,(sp)
  f80dca:	2f0b           	move.l a3,-(sp)
  f80dcc:	61ff 0000 168e 	bsr.l 0xf8245c
  f80dd2:	5282           	addq.l #1,d2
  f80dd4:	508f           	addq.l #8,sp
  f80dd6:	7011           	moveq #17,d0
  f80dd8:	b082           	cmp.l d2,d0
  f80dda:	66d6           	bne.s 0xf80db2
  f80ddc:	4878 000a      	pea 0xa
  f80de0:	61ff 0000 2fb2 	bsr.l 0xf83d94
  f80de6:	2f0a           	move.l a2,-(sp)
  f80de8:	61ff ffff fba6 	bsr.l 0xf80990
  f80dee:	2600           	move.l d0,d3
  f80df0:	487a ff93      	pea 0xf80d85(pc)
  f80df4:	61ff 0000 1666 	bsr.l 0xf8245c
  f80dfa:	4fef 000c      	lea 12(sp),sp
  f80dfe:	4282           	clr.l d2
  f80e00:	2f02           	move.l d2,-(sp)
  f80e02:	61ff ffff f446 	bsr.l 0xf8024a
  f80e08:	1200           	move.b d0,d1
  f80e0a:	4601           	not.b d1
  f80e0c:	1581 2800      	move.b d1,(0,a2,d2.l)
  f80e10:	0280 0000 00ff 	andi.l #255,d0
  f80e16:	2e80           	move.l d0,(sp)
  f80e18:	2f0b           	move.l a3,-(sp)
  f80e1a:	61ff 0000 1640 	bsr.l 0xf8245c
  f80e20:	5282           	addq.l #1,d2
  f80e22:	508f           	addq.l #8,sp
  f80e24:	7011           	moveq #17,d0
  f80e26:	b082           	cmp.l d2,d0
  f80e28:	66d6           	bne.s 0xf80e00
  f80e2a:	4878 000a      	pea 0xa
  f80e2e:	61ff 0000 2f64 	bsr.l 0xf83d94
  f80e34:	2f0a           	move.l a2,-(sp)
  f80e36:	61ff ffff fb58 	bsr.l 0xf80990
  f80e3c:	508f           	addq.l #8,sp
  f80e3e:	4a80           	tst.l d0
  f80e40:	6702           	beq.s 0xf80e44
  f80e42:	2003           	move.l d3,d0
  f80e44:	4cdf 1c0c      	movem.l (sp)+,d2-d3/a2-a4
  f80e48:	4fef 0014      	lea 20(sp),sp
  f80e4c:	4e75           	rts
  f80e4e:	5465           	addq.w #2,-(a5)
  f80e50:	6c6c           	bge.s 0xf80ebe
  f80e52:	696e           	bvs.s 0xf80ec2
  f80e54:	6720           	beq.s 0xf80e76
  f80e56:	5a49           	addq.w #5,a1
  f80e58:	4920           	chk.l -(a0),d4
  f80e5a:	746f           	moveq #111,d2
  f80e5c:	2073 6875      	movea.l (117,a3,d6.l),a0
  f80e60:	7420           	moveq #32,d2
  f80e62:	7570           	.short 0x7570
  f80e64:	0054 656c      	ori.w #25964,(a4)
  f80e68:	6c69           	bge.s 0xf80ed3
  f80e6a:	6e67           	bgt.s 0xf80ed3
  f80e6c:	205a           	movea.l (a2)+,a0
  f80e6e:	4949           	.short 0x4949
  f80e70:	4920           	chk.l -(a0),d4
  f80e72:	746f           	moveq #111,d2
  f80e74:	2073 6875      	movea.l (117,a3,d6.l),a0
  f80e78:	7420           	moveq #32,d2
  f80e7a:	7570           	.short 0x7570
  f80e7c:	0000 2f0c      	ori.b #12,d0
  f80e80:	61ff ffff f3e6 	bsr.l 0xf80268
  f80e86:	4a80           	tst.l d0
  f80e88:	6718           	beq.s 0xf80ea2
  f80e8a:	487a ffc2      	pea 0xf80e4e(pc)
  f80e8e:	61ff 0000 2f42 	bsr.l 0xf83dd2
  f80e94:	4239 00e8 004c 	clr.b 0xe8004c
  f80e9a:	588f           	addq.l #4,sp
  f80e9c:	4280           	clr.l d0
  f80e9e:	285f           	movea.l (sp)+,a4
  f80ea0:	4e75           	rts
  f80ea2:	61ff ffff f40a 	bsr.l 0xf802ae
  f80ea8:	4a80           	tst.l d0
  f80eaa:	6712           	beq.s 0xf80ebe
  f80eac:	487a ffb7      	pea 0xf80e65(pc)
  f80eb0:	61ff 0000 2f20 	bsr.l 0xf83dd2
  f80eb6:	4239 ff00 004c 	clr.b 0xff00004c
  f80ebc:	60dc           	bra.s 0xf80e9a
  f80ebe:	7005           	moveq #5,d0
  f80ec0:	60dc           	bra.s 0xf80e9e
  f80ec2:	3078 2530      	movea.w 0x2530,a0
  f80ec6:	3878 2069      	movea.w 0x2069,a4
  f80eca:	7320           	.short 0x7320
  f80ecc:	6e6f           	bgt.s 0xf80f3d
  f80ece:	7420           	moveq #32,d2
  f80ed0:	6120           	bsr.s 0xf80ef2
  f80ed2:	7661           	moveq #97,d3
  f80ed4:	6c69           	bge.s 0xf80f3f
  f80ed6:	6420           	bcc.s 0xf80ef8
  f80ed8:	5a6f 7272      	addq.w #5,29298(sp)
  f80edc:	6f20           	ble.s 0xf80efe
  f80ede:	6164           	bsr.s 0xf80f44
  f80ee0:	6472           	bcc.s 0xf80f54
  f80ee2:	6573           	bcs.s 0xf80f57
  f80ee4:	730a           	.short 0x730a
  f80ee6:	0000 2f0c      	ori.b #12,d0
  f80eea:	202f 0008      	move.l 8(sp),d0
  f80eee:	2200           	move.l d0,d1
  f80ef0:	0681 f000 0000 	addi.l #-268435456,d1
  f80ef6:	0c81 6fff ffff 	cmpi.l #1879048191,d1
  f80efc:	620c           	bhi.s 0xf80f0a
  f80efe:	2f40 0008      	move.l d0,8(sp)
  f80f02:	285f           	movea.l (sp)+,a4
  f80f04:	60ff ffff f6c8 	bra.l 0xf805ce
  f80f0a:	2200           	move.l d0,d1
  f80f0c:	0681 ffe0 0000 	addi.l #-2097152,d1
  f80f12:	0c81 009e ffff 	cmpi.l #10420223,d1
  f80f18:	630e           	bls.s 0xf80f28
  f80f1a:	0681 ff37 0000 	addi.l #-13172736,d1
  f80f20:	0c81 0006 efff 	cmpi.l #454655,d1
  f80f26:	620c           	bhi.s 0xf80f34
  f80f28:	2f40 0008      	move.l d0,8(sp)
  f80f2c:	285f           	movea.l (sp)+,a4
  f80f2e:	60ff ffff f788 	bra.l 0xf806b8
  f80f34:	4a80           	tst.l d0
  f80f36:	6620           	bne.s 0xf80f58
  f80f38:	61ff ffff f374 	bsr.l 0xf802ae
  f80f3e:	4a80           	tst.l d0
  f80f40:	6706           	beq.s 0xf80f48
  f80f42:	42af 0008      	clr.l 8(sp)
  f80f46:	60ba           	bra.s 0xf80f02
  f80f48:	61ff ffff f31e 	bsr.l 0xf80268
  f80f4e:	4a80           	tst.l d0
  f80f50:	671a           	beq.s 0xf80f6c
  f80f52:	42af 0008      	clr.l 8(sp)
  f80f56:	60d4           	bra.s 0xf80f2c
  f80f58:	2f00           	move.l d0,-(sp)
  f80f5a:	487a ff66      	pea 0xf80ec2(pc)
  f80f5e:	61ff 0000 14fc 	bsr.l 0xf8245c
  f80f64:	508f           	addq.l #8,sp
  f80f66:	7006           	moveq #6,d0
  f80f68:	285f           	movea.l (sp)+,a4
  f80f6a:	4e75           	rts
  f80f6c:	7005           	moveq #5,d0
  f80f6e:	60f8           	bra.s 0xf80f68
  f80f70:	2f3c 3000 0000 	move.l #805306368,-(sp)
  f80f76:	2f3c 1000 0000 	move.l #268435456,-(sp)
  f80f7c:	4878 0004      	pea 0x4
  f80f80:	61ff ffff f538 	bsr.l 0xf804ba
  f80f86:	2f3c 4000 0000 	move.l #1073741824,-(sp)
  f80f8c:	2f3c 4000 0000 	move.l #1073741824,-(sp)
  f80f92:	4878 0004      	pea 0x4
  f80f96:	61ff ffff f522 	bsr.l 0xf804ba
  f80f9c:	2f3c 0080 0000 	move.l #8388608,-(sp)
  f80fa2:	2f3c 0020 0000 	move.l #2097152,-(sp)
  f80fa8:	4878 0003      	pea 0x3
  f80fac:	61ff ffff f50c 	bsr.l 0xf804ba
  f80fb2:	4fef 0020      	lea 32(sp),sp
  f80fb6:	2ebc 0007 0000 	move.l #458752,(sp)
  f80fbc:	2f3c 00e9 0000 	move.l #15269888,-(sp)
  f80fc2:	4878 0003      	pea 0x3
  f80fc6:	61ff ffff f4f2 	bsr.l 0xf804ba
  f80fcc:	4fef 000c      	lea 12(sp),sp
  f80fd0:	4e75           	rts
  f80fd2:	5361           	subq.w #1,-(a1)
  f80fd4:	6d65           	blt.s 0xf8103b
  f80fd6:	2d61 732d      	move.l -(a1),29485(a6)
  f80fda:	5068 7973      	addq.w #8,31091(a0)
  f80fde:	6963           	bvs.s 0xf81043
  f80fe0:	616c           	bsr.s 0xf8104e
  f80fe2:	0041 7574      	ori.w #30068,d1
  f80fe6:	6f6d           	ble.s 0xf81055
  f80fe8:	6174           	bsr.s 0xf8105e
  f80fea:	6963           	bvs.s 0xf8104f
  f80fec:	616c           	bsr.s 0xf8105a
  f80fee:	6c79           	bge.s 0xf81069
  f80ff0:	2d73 697a 6564 	move.l ([1701052470,a3],13344),19266(a6)
  f80ff6:	0036 3420 4b42 
  f80ffc:	0031 3238 204b 	ori.b #56,(75,a1,d2.w)
  f81002:	4200           	clr.b d0
  f81004:	3235 3620      	move.w (32,a5,d3.w*8),d1
  f81008:	4b42           	.short 0x4b42
  f8100a:	0035 3132 204b 	ori.b #50,(75,a5,d2.w)
  f81010:	4200           	clr.b d0
  f81012:	314d 4200      	move.w a5,16896(a0)
  f81016:	324d           	movea.w a5,a1
  f81018:	4200           	clr.b d0
  f8101a:	344d           	movea.w a5,a2
  f8101c:	4200           	clr.b d0
  f8101e:	364d           	movea.w a5,a3
  f81020:	4200           	clr.b d0
  f81022:	384d           	movea.w a5,a4
  f81024:	4200           	clr.b d0
  f81026:	3130 4d42 0031 	move.w ([0,a0],49),-(a0)
  f8102c:	324d           	movea.w a5,a1
  f8102e:	4200           	clr.b d0
  f81030:	3134 4d42 0052 	move.w ([0,a4],82),-(a0)
  f81036:	7376           	.short 0x7376
  f81038:	6431           	bcc.s 0xf8106b
  f8103a:	0052 7376      	ori.w #29558,(a2)
  f8103e:	6432           	bcc.s 0xf81072
  f81040:	0000 00f8      	ori.b #-8,d0
  f81044:	0fd2           	bset d7,(a2)
  f81046:	00f8           	.short 0x00f8
  f81048:	0fe3           	bset d7,-(a3)
  f8104a:	00f8           	.short 0x00f8
  f8104c:	0ff7 00f8      	bset d7,(-8,sp,d0.w)
  f81050:	0ffd           	.short 0x0ffd
  f81052:	00f8           	.short 0x00f8
  f81054:	1004           	move.b d4,d0
  f81056:	00f8           	.short 0x00f8
  f81058:	100b           	.short 0x100b
  f8105a:	00f8           	.short 0x00f8
  f8105c:	1012           	move.b (a2),d0
  f8105e:	00f8           	.short 0x00f8
  f81060:	1016           	move.b (a6),d0
  f81062:	00f8           	.short 0x00f8
  f81064:	101a           	move.b (a2)+,d0
  f81066:	00f8           	.short 0x00f8
  f81068:	101e           	move.b (a6)+,d0
  f8106a:	00f8           	.short 0x00f8
  f8106c:	1022           	move.b -(a2),d0
  f8106e:	00f8           	.short 0x00f8
  f81070:	1026           	move.b -(a6),d0
  f81072:	00f8           	.short 0x00f8
  f81074:	102b 00f8      	move.b 248(a3),d0
  f81078:	1030 00f8      	move.b (-8,a0,d0.w),d0
  f8107c:	1035 00f8      	move.b (-8,a5,d0.w),d0
  f81080:	103b 0100      	move.b (0xf81082,pc,d0.w),d0
  f81084:	0000 0200      	ori.b #0,d0
  f81088:	0000 0400      	ori.b #0,d0
  f8108c:	0000 0800      	ori.b #0,d0
  f81090:	0000 1000      	ori.b #0,d0
  f81094:	0000 2000      	ori.b #0,d0
  f81098:	0000 4000      	ori.b #0,d0
  f8109c:	0000 0000      	ori.b #0,d0
  f810a0:	0000 3136      	ori.b #54,d0
  f810a4:	204d           	movea.l a5,a0
  f810a6:	4200           	clr.b d0
  f810a8:	0000 3332      	ori.b #50,d0
  f810ac:	204d           	movea.l a5,a0
  f810ae:	4200           	clr.b d0
  f810b0:	0000 3634      	ori.b #52,d0
  f810b4:	204d           	movea.l a5,a0
  f810b6:	4200           	clr.b d0
  f810b8:	0000 3132      	ori.b #50,d0
  f810bc:	3820           	move.w -(a0),d4
  f810be:	4d42           	.short 0x4d42
  f810c0:	0000 3235      	ori.b #53,d0
  f810c4:	3620           	move.w -(a0),d3
  f810c6:	4d42           	.short 0x4d42
  f810c8:	0000 3531      	ori.b #49,d0
  f810cc:	3220           	move.w -(a0),d1
  f810ce:	4d42           	.short 0x4d42
  f810d0:	0000 3120      	ori.b #32,d0
  f810d4:	4742           	.short 0x4742
  f810d6:	0000 0000      	ori.b #0,d0
  f810da:	5253           	addq.w #1,(a3)
  f810dc:	5644           	addq.w #3,d4
  f810de:	0000 0000      	ori.b #0,d0
  f810e2:	0080 0000 0001 	ori.l #1,d0
  f810e8:	0000 0002      	ori.b #2,d0
  f810ec:	0000 0004      	ori.b #4,d0
  f810f0:	0000 0008      	ori.b #8,d0
  f810f4:	0000 0010      	ori.b #16,d0
  f810f8:	0000 0020      	ori.b #32,d0
  f810fc:	0000 0040      	ori.b #64,d0
  f81100:	0000 3820      	ori.b #32,d0
  f81104:	4d42           	.short 0x4d42
  f81106:	0000 0000      	ori.b #0,d0
  f8110a:	3634 204b      	move.w (75,a4,d2.w),d3
  f8110e:	4200           	clr.b d0
  f81110:	0000 3132      	ori.b #50,d0
  f81114:	3820           	move.w -(a0),d4
  f81116:	4b42           	.short 0x4b42
  f81118:	0000 3235      	ori.b #53,d0
  f8111c:	3620           	move.w -(a0),d3
  f8111e:	4b42           	.short 0x4b42
  f81120:	0000 3531      	ori.b #49,d0
  f81124:	3220           	move.w -(a0),d1
  f81126:	4b42           	.short 0x4b42
  f81128:	0000 3120      	ori.b #32,d0
  f8112c:	4d42           	.short 0x4d42
  f8112e:	0000 0000      	ori.b #0,d0
  f81132:	3220           	move.w -(a0),d1
  f81134:	4d42           	.short 0x4d42
  f81136:	0000 0000      	ori.b #0,d0
  f8113a:	3420           	move.w -(a0),d2
  f8113c:	4d42           	.short 0x4d42
  f8113e:	0000 0000      	ori.b #0,d0
  f81142:	0000 4e75      	ori.b #117,d0
  f81146:	0000 48e7      	ori.b #-25,d0
  f8114a:	3028 4a2c      	move.w 18988(a0),d0
  f8114e:	8016           	or.b (a6),d0
  f81150:	6714           	beq.s 0xf81166
  f81152:	40c0           	move.w sr,d0
  f81154:	007c 0700      	ori.w #1792,sr
  f81158:	244c           	movea.l a4,a2
  f8115a:	d5fc ffff 800b 	adda.l #-32757,a2
  f81160:	1212           	move.b (a2),d1
  f81162:	6708           	beq.s 0xf8116c
  f81164:	46c0           	move.w d0,sr
  f81166:	4cdf 140c      	movem.l (sp)+,d2-d3/a2/a4
  f8116a:	4e75           	rts
  f8116c:	14bc 0001      	move.b #1,(a2)
  f81170:	46c0           	move.w d0,sr
  f81172:	207c 00bf ee01 	movea.l #12578305,a0
  f81178:	1010           	move.b (a0),d0
  f8117a:	0000 0040      	ori.b #64,d0
  f8117e:	1080           	move.b d0,(a0)
  f81180:	4878 004b      	pea 0x4b
  f81184:	61ff 0000 3488 	bsr.l 0xf8460e
  f8118a:	1039 00bf ec01 	move.b 0xbfec01,d0
  f81190:	588f           	addq.l #4,sp
  f81192:	b02c 800a      	cmp.b -32758(a4),d0
  f81196:	6700 0084      	beq.w 0xf8121c
  f8119a:	1940 800a      	move.b d0,-32758(a4)
  f8119e:	e218           	ror.b #1,d0
  f811a0:	4600           	not.b d0
  f811a2:	1200           	move.b d0,d1
  f811a4:	0201 007f      	andi.b #127,d1
  f811a8:	0601 00a0      	addi.b #-96,d1
  f811ac:	0c01 0007      	cmpi.b #7,d1
  f811b0:	623a           	bhi.s 0xf811ec
  f811b2:	0281 0000 00ff 	andi.l #255,d1
  f811b8:	1230 19b0 00f8 	move.b (16257816,d1.l),d1
  f811be:	1318 
  f811c0:	0281 0000 00ff 	andi.l #255,d1
  f811c6:	142c 8017      	move.b -32745(a4),d2
  f811ca:	4a00           	tst.b d0
  f811cc:	6c22           	bge.s 0xf811f0
  f811ce:	4601           	not.b d1
  f811d0:	c202           	and.b d2,d1
  f811d2:	1941 8017      	move.b d1,-32745(a4)
  f811d6:	e188           	lsl.l #8,d0
  f811d8:	0280 0000 ff00 	andi.l #65280,d0
  f811de:	2f00           	move.l d0,-(sp)
  f811e0:	61ff 0000 29c8 	bsr.l 0xf83baa
  f811e6:	426c 800c      	clr.w -32756(a4)
  f811ea:	607a           	bra.s 0xf81266
  f811ec:	4281           	clr.l d1
  f811ee:	60d6           	bra.s 0xf811c6
  f811f0:	8401           	or.b d1,d2
  f811f2:	1942 8017      	move.b d2,-32745(a4)
  f811f6:	4a81           	tst.l d1
  f811f8:	66dc           	bne.s 0xf811d6
  f811fa:	0c00 005f      	cmpi.b #95,d0
  f811fe:	621c           	bhi.s 0xf8121c
  f81200:	4281           	clr.l d1
  f81202:	1200           	move.b d0,d1
  f81204:	41fa 011a      	lea 0xf81320(pc),a0
  f81208:	7603           	moveq #3,d3
  f8120a:	4c03 1800      	muls.l d3,d1
  f8120e:	e8c2 0743      	bftst d2,29,3
  f81212:	6724           	beq.s 0xf81238
  f81214:	1230 1802      	move.b (2,a0,d1.l),d1
  f81218:	4a01           	tst.b d1
  f8121a:	6634           	bne.s 0xf81250
  f8121c:	207c 00bf ee01 	movea.l #12578305,a0
  f81222:	1010           	move.b (a0),d0
  f81224:	0200 00bf      	andi.b #-65,d0
  f81228:	1080           	move.b d0,(a0)
  f8122a:	4212           	clr.b (a2)
  f8122c:	42ac 800e      	clr.l -32754(a4)
  f81230:	42ac 8012      	clr.l -32750(a4)
  f81234:	6000 ff30      	bra.w 0xf81166
  f81238:	1230 1801      	move.b (1,a0,d1.l),d1
  f8123c:	44c2           	move.w d2,ccr
  f8123e:	6ad8           	bpl.s 0xf81218
  f81240:	1401           	move.b d1,d2
  f81242:	0602 009f      	addi.b #-97,d2
  f81246:	0c02 0019      	cmpi.b #25,d2
  f8124a:	621e           	bhi.s 0xf8126a
  f8124c:	0601 00a0      	addi.b #-96,d1
  f81250:	e148           	lsl.w #8,d0
  f81252:	0241 00ff      	andi.w #255,d1
  f81256:	8041           	or.w d1,d0
  f81258:	3940 800c      	move.w d0,-32756(a4)
  f8125c:	3040           	movea.w d0,a0
  f8125e:	2f08           	move.l a0,-(sp)
  f81260:	61ff 0000 2948 	bsr.l 0xf83baa
  f81266:	588f           	addq.l #4,sp
  f81268:	60b2           	bra.s 0xf8121c
  f8126a:	0c01 0002      	cmpi.b #2,d1
  f8126e:	670a           	beq.s 0xf8127a
  f81270:	0c01 0006      	cmpi.b #6,d1
  f81274:	66a2           	bne.s 0xf81218
  f81276:	7205           	moveq #5,d1
  f81278:	60d6           	bra.s 0xf81250
  f8127a:	7201           	moveq #1,d1
  f8127c:	60d2           	bra.s 0xf81250
  f8127e:	2f02           	move.l d2,-(sp)
  f81280:	4a6c 800c      	tst.w -32756(a4)
  f81284:	6758           	beq.s 0xf812de
  f81286:	202c 800e      	move.l -32754(a4),d0
  f8128a:	222c 8012      	move.l -32750(a4),d1
  f8128e:	2400           	move.l d0,d2
  f81290:	8481           	or.l d1,d2
  f81292:	6618           	bne.s 0xf812ac
  f81294:	4878 01f4      	pea 0x1f4
  f81298:	61ff 0000 3282 	bsr.l 0xf8451c
  f8129e:	2940 800e      	move.l d0,-32754(a4)
  f812a2:	2941 8012      	move.l d1,-32750(a4)
  f812a6:	588f           	addq.l #4,sp
  f812a8:	241f           	move.l (sp)+,d2
  f812aa:	4e75           	rts
  f812ac:	2f01           	move.l d1,-(sp)
  f812ae:	2f00           	move.l d0,-(sp)
  f812b0:	61ff 0000 3244 	bsr.l 0xf844f6
  f812b6:	508f           	addq.l #8,sp
  f812b8:	4a80           	tst.l d0
  f812ba:	6722           	beq.s 0xf812de
  f812bc:	4878 0046      	pea 0x46
  f812c0:	61ff 0000 325a 	bsr.l 0xf8451c
  f812c6:	2940 800e      	move.l d0,-32754(a4)
  f812ca:	2941 8012      	move.l d1,-32750(a4)
  f812ce:	4280           	clr.l d0
  f812d0:	302c 800c      	move.w -32756(a4),d0
  f812d4:	2f00           	move.l d0,-(sp)
  f812d6:	61ff 0000 28d2 	bsr.l 0xf83baa
  f812dc:	508f           	addq.l #8,sp
  f812de:	42ac 90e2      	clr.l -28446(a4)
  f812e2:	60c4           	bra.s 0xf812a8
  f812e4:	2f0a           	move.l a2,-(sp)
  f812e6:	247c 00df f09a 	movea.l #14676122,a2
  f812ec:	34bc 0008      	move.w #8,(a2)
  f812f0:	13fc 0088 00bf 	move.b #-120,0xbfed01
  f812f6:	ed01 
  f812f8:	4878 0005      	pea 0x5
  f812fc:	61ff 0000 32e6 	bsr.l 0xf845e4
  f81302:	4239 00bf ee01 	clr.b 0xbfee01
  f81308:	34bc 8008      	move.w #-32760,(a2)
  f8130c:	197c 0001 8016 	move.b #1,-32746(a4)
  f81312:	588f           	addq.l #4,sp
  f81314:	245f           	movea.l (sp)+,a2
  f81316:	4e75           	rts
  f81318:	0102           	btst d0,d2
  f8131a:	0408           	.short 0x0408
  f8131c:	1020           	move.b -(a0),d0
  f8131e:	4080           	negx.l d0
  f81320:	0060 7e01      	ori.w #32257,-(a0)
  f81324:	3121           	move.w -(a1),-(a0)
  f81326:	0232 4003 3323 	andi.b #3,([1076,a2,d3.w*2],604321061)
  f8132c:	0434 2405 3525 
  f81332:	0636 5e07 3726 	addi.b #7,([2104,a6],d3.w*8,10761)
  f81338:	0838 2a09 
  f8133c:	3928 0a30      	move.w 2608(a0),-(a4)
  f81340:	290b           	move.l a3,-(a4)
  f81342:	2d5f 0c3d      	move.l (sp)+,3133(a6)
  f81346:	2b0d           	move.l a5,-(a5)
  f81348:	5c7c           	.short 0x5c7c
  f8134a:	0e00           	.short 0x0e00
  f8134c:	000f           	.short 0x000f
  f8134e:	3030 1071      	move.w (113,a0,d1.w),d0
  f81352:	5111           	subq.b #8,(a1)
  f81354:	7757           	.short 0x7757
  f81356:	1265           	.short 0x1265
  f81358:	4513           	chk.l (a3),d2
  f8135a:	7252           	moveq #82,d1
  f8135c:	1474           	.short 0x1474
  f8135e:	5415           	addq.b #2,(a5)
  f81360:	7959           	.short 0x7959
  f81362:	1675           	.short 0x1675
  f81364:	5517           	subq.b #2,(sp)
  f81366:	6949           	bvs.s 0xf813b1
  f81368:	186f           	.short 0x186f
  f8136a:	4f19           	chk.l (a1)+,d7
  f8136c:	7050           	moveq #80,d0
  f8136e:	1a5b           	.short 0x1a5b
  f81370:	7b1b           	.short 0x7b1b
  f81372:	5d7d           	.short 0x5d7d
  f81374:	1c00           	move.b d0,d6
  f81376:	001d 3131      	ori.b #49,(a5)+
  f8137a:	1e32 321f      	move.b (31,a2,d3.w*2),d7
  f8137e:	3333 2061      	move.w (97,a3,d2.w),-(a1)
  f81382:	4121           	chk.l -(a1),d0
  f81384:	7353           	.short 0x7353
  f81386:	2264           	movea.l -(a4),a1
  f81388:	4423           	neg.b -(a3)
  f8138a:	6646           	bne.s 0xf813d2
  f8138c:	2467           	movea.l -(sp),a2
  f8138e:	4725           	chk.l -(a5),d3
  f81390:	6848           	bvc.s 0xf813da
  f81392:	266a 4a27      	movea.l 18983(a2),a3
  f81396:	6b4b           	bmi.s 0xf813e3
  f81398:	286c 4c29      	movea.l 19497(a4),a4
  f8139c:	3b3a 2a2c      	move.w 0xf83dca(pc),-(a5)
  f813a0:	222b 0000      	move.l 0(a3),d1
  f813a4:	2c00           	move.l d0,d6
  f813a6:	002d 3434 2e35 	ori.b #52,11829(a5)
  f813ac:	352f 3636      	move.w 13878(sp),-(a2)
  f813b0:	3000           	move.w d0,d0
  f813b2:	0031 7a5a 3278 	ori.b #90,(120,a1,d3.w*2)
  f813b8:	5833 6343 3476 	addq.b #4,([0,a3],880170549)
  f813be:	5635 
  f813c0:	6242           	bhi.s 0xf81404
  f813c2:	366e 4e37      	movea.w 20023(a6),a3
  f813c6:	6d4d           	blt.s 0xf81415
  f813c8:	382c 3c39      	move.w 15417(a4),d4
  f813cc:	2e3e           	.short 0x2e3e
  f813ce:	3a2f 3f3b      	move.w 16187(sp),d5
  f813d2:	0000 3c2e      	ori.b #46,d0
  f813d6:	2e3d           	.short 0x2e3d
  f813d8:	3737 3e38      	move.w (56,sp,d3.l*8),-(a3)
  f813dc:	383f           	.short 0x383f
  f813de:	3939 4020 2041 	move.w 0x40202041,-(a4)
  f813e4:	0808           	.short 0x0808
  f813e6:	4209           	.short 0x4209
  f813e8:	0f43           	bchg d7,d3
  f813ea:	0d0d 440d      	movep.w 17421(a5),d6
  f813ee:	0d45           	bchg d6,d5
  f813f0:	1b1b           	move.b (a3)+,-(a5)
  f813f2:	467f           	.short 0x467f
  f813f4:	7f47           	.short 0x7f47
  f813f6:	0000 4800      	ori.b #0,d0
  f813fa:	0049           	.short 0x0049
  f813fc:	0000 4a2d      	ori.b #45,d0
  f81400:	2d4b 0000      	move.l a3,0(a6)
  f81404:	4c10           	.short 0x4c10
  f81406:	004d           	.short 0x004d
  f81408:	0e00           	.short 0x0e00
  f8140a:	4e06           	.short 0x4e06
  f8140c:	054f 0201      	movep.l 513(sp),d2
  f81410:	5000           	addq.b #8,d0
  f81412:	0051 0000      	ori.w #0,(a1)
  f81416:	5200           	addq.b #1,d0
  f81418:	0053 0000      	ori.w #0,(a3)
  f8141c:	5400           	addq.b #2,d0
  f8141e:	0055 0000      	ori.w #0,(a5)
  f81422:	5600           	addq.b #3,d0
  f81424:	0057 0000      	ori.w #0,(sp)
  f81428:	5800           	addq.b #4,d0
  f8142a:	0059 0000      	ori.w #0,(a1)+
  f8142e:	5a28 285b      	addq.b #5,10331(a0)
  f81432:	2929 5c2f      	move.l 23599(a1),-(a4)
  f81436:	2f5d 2a2a      	move.l (a5)+,10794(sp)
  f8143a:	5e2b 2b5f      	addq.b #7,11103(a3)
  f8143e:	0000 5041      	ori.b #65,d0
  f81442:	5353           	subq.w #1,(a3)
  f81444:	3a20           	move.w -(a0),d5
  f81446:	0046 4149      	ori.w #16713,d6
  f8144a:	4c3a 2000 252d 	mulu.l 0xf8397b(pc),d2
  f81450:	3234 7320 2575 	move.w (9589,a4,d7.w*2),d1
  f81456:	2075 7365 630a 	movea.l ([25354,a5],0),a0
  f8145c:	0000 48e7      	ori.b #-25,d0
  f81460:	3008           	move.w a0,d0
  f81462:	242f 0014      	move.l 20(sp),d2
  f81466:	b4af 0018      	cmp.l 24(sp),d2
  f8146a:	6530           	bcs.s 0xf8149c
  f8146c:	b4af 001c      	cmp.l 28(sp),d2
  f81470:	622a           	bhi.s 0xf8149c
  f81472:	487a ffcc      	pea 0xf81440(pc)
  f81476:	61ff 0000 0fe4 	bsr.l 0xf8245c
  f8147c:	588f           	addq.l #4,sp
  f8147e:	4283           	clr.l d3
  f81480:	2f02           	move.l d2,-(sp)
  f81482:	2f2f 0014      	move.l 20(sp),-(sp)
  f81486:	487a ffc6      	pea 0xf8144e(pc)
  f8148a:	61ff 0000 0fd0 	bsr.l 0xf8245c
  f81490:	4fef 000c      	lea 12(sp),sp
  f81494:	2003           	move.l d3,d0
  f81496:	4cdf 100c      	movem.l (sp)+,d2-d3/a4
  f8149a:	4e75           	rts
  f8149c:	487a ffa9      	pea 0xf81447(pc)
  f814a0:	61ff 0000 0fba 	bsr.l 0xf8245c
  f814a6:	588f           	addq.l #4,sp
  f814a8:	7601           	moveq #1,d3
  f814aa:	60d4           	bra.s 0xf81480
  f814ac:	3f00           	move.w d0,-(sp)
  f814ae:	6865           	bvc.s 0xf81515
  f814b0:	6c70           	bge.s 0xf81522
  f814b2:	0061 7574      	ori.w #30068,-(a1)
  f814b6:	6f00 4e6f      	ble.w 0xf86327
  f814ba:	2062           	movea.l -(a2),a0
  f814bc:	6f61           	ble.s 0xf8151f
  f814be:	7264           	moveq #100,d1
  f814c0:	2064           	movea.l -(a4),a0
  f814c2:	6574           	bcs.s 0xf81538
  f814c4:	6563           	bcs.s 0xf81529
  f814c6:	7465           	moveq #101,d2
  f814c8:	6400 6164      	bcc.w 0xf8762e
  f814cc:	6472           	bcc.s 0xf81540
  f814ce:	6573           	bcs.s 0xf81543
  f814d0:	7300           	.short 0x7300
  f814d2:	2578 256e 0049 	move.l 0x256e,73(a2)
  f814d8:	6e76           	bgt.s 0xf81550
  f814da:	616c           	bsr.s 0xf81548
  f814dc:	6964           	bvs.s 0xf81542
  f814de:	2061           	movea.l -(a1),a0
  f814e0:	6464           	bcc.s 0xf81546
  f814e2:	7265           	moveq #101,d1
  f814e4:	7373           	.short 0x7373
  f814e6:	2025           	move.l -(a5),d0
  f814e8:	730a           	.short 0x730a
  f814ea:	006c 6973 7400 	ori.w #26995,29696(a4)
  f814f0:	7368           	.short 0x7368
  f814f2:	6f77           	ble.s 0xf8156b
  f814f4:	0073 6875 7475 	ori.w #26741,(117,a3,d7.w*4)
  f814fa:	7000           	moveq #0,d0
  f814fc:	556e 6b6e      	subq.w #2,27502(a6)
  f81500:	6f77           	ble.s 0xf81579
  f81502:	6e20           	bgt.s 0xf81524
  f81504:	6172           	bsr.s 0xf81578
  f81506:	6775           	beq.s 0xf8157d
  f81508:	6d65           	blt.s 0xf8156f
  f8150a:	6e74           	bgt.s 0xf81580
  f8150c:	2025           	move.l -(a5),d0
  f8150e:	730a           	.short 0x730a
  f81510:	0000 4e55      	ori.b #85,d0
  f81514:	fff8           	.short 0xfff8
  f81516:	48e7 2038      	movem.l d2/a2-a4,-(sp)
  f8151a:	242d 0008      	move.l 8(a5),d2
  f8151e:	266d 000c      	movea.l 12(a5),a3
  f81522:	7001           	moveq #1,d0
  f81524:	b082           	cmp.l d2,d0
  f81526:	6d0e           	blt.s 0xf81536
  f81528:	4ced 1c04 ffe8 	movem.l -24(a5),d2/a2-a4
  f8152e:	4e5d           	unlk a5
  f81530:	60ff ffff f862 	bra.l 0xf80d94
  f81536:	246b 0004      	movea.l 4(a3),a2
  f8153a:	487a ff70      	pea 0xf814ac(pc)
  f8153e:	2f0a           	move.l a2,-(sp)
  f81540:	61ff 0000 9c26 	bsr.l 0xf8b168
  f81546:	508f           	addq.l #8,sp
  f81548:	4a80           	tst.l d0
  f8154a:	6700 010a      	beq.w 0xf81656
  f8154e:	487a ff5e      	pea 0xf814ae(pc)
  f81552:	2f0a           	move.l a2,-(sp)
  f81554:	61ff 0000 9c12 	bsr.l 0xf8b168
  f8155a:	508f           	addq.l #8,sp
  f8155c:	4a80           	tst.l d0
  f8155e:	6700 00f6      	beq.w 0xf81656
  f81562:	487a ff4f      	pea 0xf814b3(pc)
  f81566:	2f0a           	move.l a2,-(sp)
  f81568:	61ff 0000 9bfe 	bsr.l 0xf8b168
  f8156e:	508f           	addq.l #8,sp
  f81570:	4a80           	tst.l d0
  f81572:	676c           	beq.s 0xf815e0
  f81574:	4878 0004      	pea 0x4
  f81578:	487a ff50      	pea 0xf814ca(pc)
  f8157c:	2f0a           	move.l a2,-(sp)
  f8157e:	61ff 0000 9c88 	bsr.l 0xf8b208
  f81584:	4fef 000c      	lea 12(sp),sp
  f81588:	4a80           	tst.l d0
  f8158a:	6708           	beq.s 0xf81594
  f8158c:	0c12 0062      	cmpi.b #98,(a2)
  f81590:	6600 00ca      	bne.w 0xf8165c
  f81594:	5582           	subq.l #2,d2
  f81596:	664e           	bne.s 0xf815e6
  f81598:	42a7           	clr.l -(sp)
  f8159a:	61ff ffff f94c 	bsr.l 0xf80ee8
  f815a0:	2400           	move.l d0,d2
  f815a2:	588f           	addq.l #4,sp
  f815a4:	7205           	moveq #5,d1
  f815a6:	b280           	cmp.l d0,d1
  f815a8:	6728           	beq.s 0xf815d2
  f815aa:	2002           	move.l d2,d0
  f815ac:	4ced 1c04 ffe8 	movem.l -24(a5),d2/a2-a4
  f815b2:	4e5d           	unlk a5
  f815b4:	4e75           	rts
  f815b6:	528a           	addq.l #1,a2
  f815b8:	42a7           	clr.l -(sp)
  f815ba:	61ff ffff f92c 	bsr.l 0xf80ee8
  f815c0:	2400           	move.l d0,d2
  f815c2:	588f           	addq.l #4,sp
  f815c4:	67f0           	beq.s 0xf815b6
  f815c6:	7205           	moveq #5,d1
  f815c8:	b280           	cmp.l d0,d1
  f815ca:	66de           	bne.s 0xf815aa
  f815cc:	4a8a           	tst.l a2
  f815ce:	6600 00aa      	bne.w 0xf8167a
  f815d2:	487a fee4      	pea 0xf814b8(pc)
  f815d6:	61ff 0000 27fa 	bsr.l 0xf83dd2
  f815dc:	588f           	addq.l #4,sp
  f815de:	60ca           	bra.s 0xf815aa
  f815e0:	45f8 0000      	lea 0x0,a2
  f815e4:	60d2           	bra.s 0xf815b8
  f815e6:	42ad fff8      	clr.l -8(a5)
  f815ea:	206b 0008      	movea.l 8(a3),a0
  f815ee:	1010           	move.b (a0),d0
  f815f0:	0c00 002d      	cmpi.b #45,d0
  f815f4:	6706           	beq.s 0xf815fc
  f815f6:	0c00 0030      	cmpi.b #48,d0
  f815fa:	6620           	bne.s 0xf8161c
  f815fc:	4a28 0001      	tst.b 1(a0)
  f81600:	661a           	bne.s 0xf8161c
  f81602:	42ad fffc      	clr.l -4(a5)
  f81606:	2f2d fffc      	move.l -4(a5),-(sp)
  f8160a:	61ff ffff f8dc 	bsr.l 0xf80ee8
  f81610:	2400           	move.l d0,d2
  f81612:	588f           	addq.l #4,sp
  f81614:	7005           	moveq #5,d0
  f81616:	b082           	cmp.l d2,d0
  f81618:	6690           	bne.s 0xf815aa
  f8161a:	60b6           	bra.s 0xf815d2
  f8161c:	486d fff8      	pea -8(a5)
  f81620:	486d fffc      	pea -4(a5)
  f81624:	487a feac      	pea 0xf814d2(pc)
  f81628:	2f08           	move.l a0,-(sp)
  f8162a:	61ff 0000 1842 	bsr.l 0xf82e6e
  f81630:	4fef 0010      	lea 16(sp),sp
  f81634:	5380           	subq.l #1,d0
  f81636:	660e           	bne.s 0xf81646
  f81638:	206b 0008      	movea.l 8(a3),a0
  f8163c:	202d fff8      	move.l -8(a5),d0
  f81640:	4a30 0800      	tst.b (0,a0,d0.l)
  f81644:	67c0           	beq.s 0xf81606
  f81646:	2f2b 0008      	move.l 8(a3),-(sp)
  f8164a:	487a fe8b      	pea 0xf814d7(pc)
  f8164e:	61ff 0000 0e0c 	bsr.l 0xf8245c
  f81654:	508f           	addq.l #8,sp
  f81656:	7402           	moveq #2,d2
  f81658:	6000 ff50      	bra.w 0xf815aa
  f8165c:	4878 0004      	pea 0x4
  f81660:	487a fe89      	pea 0xf814eb(pc)
  f81664:	2f0a           	move.l a2,-(sp)
  f81666:	61ff 0000 9ba0 	bsr.l 0xf8b208
  f8166c:	4fef 000c      	lea 12(sp),sp
  f81670:	4a80           	tst.l d0
  f81672:	660c           	bne.s 0xf81680
  f81674:	61ff ffff f666 	bsr.l 0xf80cdc
  f8167a:	4282           	clr.l d2
  f8167c:	6000 ff2c      	bra.w 0xf815aa
  f81680:	4878 0004      	pea 0x4
  f81684:	487a fe6a      	pea 0xf814f0(pc)
  f81688:	2f0a           	move.l a2,-(sp)
  f8168a:	61ff 0000 9b7c 	bsr.l 0xf8b208
  f81690:	4fef 000c      	lea 12(sp),sp
  f81694:	4a80           	tst.l d0
  f81696:	6700 fe90      	beq.w 0xf81528
  f8169a:	4878 0004      	pea 0x4
  f8169e:	487a fe55      	pea 0xf814f5(pc)
  f816a2:	2f0a           	move.l a2,-(sp)
  f816a4:	61ff 0000 9b62 	bsr.l 0xf8b208
  f816aa:	4fef 000c      	lea 12(sp),sp
  f816ae:	4a80           	tst.l d0
  f816b0:	660e           	bne.s 0xf816c0
  f816b2:	4ced 1c04 ffe8 	movem.l -24(a5),d2/a2-a4
  f816b8:	4e5d           	unlk a5
  f816ba:	60ff ffff f7c2 	bra.l 0xf80e7e
  f816c0:	2f0a           	move.l a2,-(sp)
  f816c2:	487a fe38      	pea 0xf814fc(pc)
  f816c6:	6086           	bra.s 0xf8164e
  f816c8:	616d           	bsr.s 0xf81737
  f816ca:	6967           	bvs.s 0xf81733
  f816cc:	6100 6370      	bsr.w 0xf87a3e
  f816d0:	7500           	.short 0x7500
  f816d2:	5265           	addq.w #1,-(a5)
  f816d4:	7365           	.short 0x7365
  f816d6:	7474           	moveq #116,d2
  f816d8:	696e           	bvs.s 0xf81748
  f816da:	672e           	beq.s 0xf8170a
  f816dc:	2e2e 0000      	move.l 0(a6),d7
  f816e0:	2f0c           	move.l a4,-(sp)
  f816e2:	2f02           	move.l d2,-(sp)
  f816e4:	7001           	moveq #1,d0
  f816e6:	b0af 000c      	cmp.l 12(sp),d0
  f816ea:	6c2c           	bge.s 0xf81718
  f816ec:	206f 0010      	movea.l 16(sp),a0
  f816f0:	2428 0004      	move.l 4(a0),d2
  f816f4:	487a ffd2      	pea 0xf816c8(pc)
  f816f8:	2f02           	move.l d2,-(sp)
  f816fa:	61ff 0000 9a6c 	bsr.l 0xf8b168
  f81700:	508f           	addq.l #8,sp
  f81702:	4a80           	tst.l d0
  f81704:	6712           	beq.s 0xf81718
  f81706:	487a ffc6      	pea 0xf816ce(pc)
  f8170a:	2f02           	move.l d2,-(sp)
  f8170c:	61ff 0000 9a5a 	bsr.l 0xf8b168
  f81712:	508f           	addq.l #8,sp
  f81714:	4a80           	tst.l d0
  f81716:	661a           	bne.s 0xf81732
  f81718:	487a ffb8      	pea 0xf816d2(pc)
  f8171c:	61ff 0000 26b4 	bsr.l 0xf83dd2
  f81722:	4878 0001      	pea 0x1
  f81726:	61ff 0000 2ebc 	bsr.l 0xf845e4
  f8172c:	61ff 0000 0d8e 	bsr.l 0xf824bc
  f81732:	2f02           	move.l d2,-(sp)
  f81734:	487a fdc6      	pea 0xf814fc(pc)
  f81738:	61ff 0000 0d22 	bsr.l 0xf8245c
  f8173e:	508f           	addq.l #8,sp
  f81740:	7002           	moveq #2,d0
  f81742:	241f           	move.l (sp)+,d2
  f81744:	285f           	movea.l (sp)+,a4
  f81746:	4e75           	rts
  f81748:	6572           	bcs.s 0xf817bc
  f8174a:	726f           	moveq #111,d1
  f8174c:	723a           	moveq #58,d1
  f8174e:	2074 696d 6520 	movea.l ([25888,a4],0),a0
  f81754:	636d           	bls.s 0xf817c3
  f81756:	6420           	bcc.s 0xf81778
  f81758:	7265           	moveq #101,d1
  f8175a:	7175           	.short 0x7175
  f8175c:	6972           	bvs.s 0xf817d0
  f8175e:	6573           	bcs.s 0xf817d3
  f81760:	2063           	movea.l -(a3),a0
  f81762:	6f6d           	ble.s 0xf817d1
  f81764:	6d61           	blt.s 0xf817c7
  f81766:	6e64           	bgt.s 0xf817cc
  f81768:	2074 6f20 6578 	movea.l (25976,a4,d6.l*8),a0
  f8176e:	6563           	bcs.s 0xf817d3
  f81770:	7574           	.short 0x7574
  f81772:	6500 256c      	bcs.w 0xf83ce0
  f81776:	6c64           	bge.s 0xf817dc
  f81778:	2075 730a 0074 	movea.l ([0,a5,d7.w*2],116),a0
  f8177e:	6963           	bvs.s 0xf817e3
  f81780:	6b3d           	bmi.s 0xf817bf
  f81782:	3078 256c      	movea.w 0x256c,a0
  f81786:	6c78           	bge.s 0xf81800
  f81788:	2075 7074      	movea.l (116,a5,d7.w),a0
  f8178c:	696d           	bvs.s 0xf817fb
  f8178e:	653d           	bcs.s 0xf817cd
  f81790:	256c 6c64 2075 	move.l 27748(a4),8309(a2)
  f81796:	7365           	.short 0x7365
  f81798:	630a           	bls.s 0xf817a4
  f8179a:	000a           	.short 0x000a
  f8179c:	4c61           	.short 0x4c61
  f8179e:	7374           	.short 0x7374
  f817a0:	3d25           	move.w -(a5),-(a6)
  f817a2:	6c6c           	bge.s 0xf81810
  f817a4:	7820           	moveq #32,d4
  f817a6:	6e6f           	bgt.s 0xf81817
  f817a8:	773d           	.short 0x773d
  f817aa:	256c 6c78 2043 	move.l 27768(a4),8259(a2)
  f817b0:	7572           	.short 0x7572
  f817b2:	7265           	moveq #101,d1
  f817b4:	6e74           	bgt.s 0xf8182a
  f817b6:	3d25           	move.w -(a5),-(a6)
  f817b8:	3031 326c      	move.w (108,a1,d3.w*2),d0
  f817bc:	6c78           	bge.s 0xf81836
  f817be:	005e 4300      	ori.w #17152,(a6)+
  f817c2:	7469           	moveq #105,d2
  f817c4:	6d65           	blt.s 0xf8182b
  f817c6:	725f           	moveq #95,d1
  f817c8:	6465           	bcc.s 0xf8182f
  f817ca:	6c61           	bge.s 0xf8182d
  f817cc:	795f           	.short 0x795f
  f817ce:	7469           	moveq #105,d2
  f817d0:	636b           	bls.s 0xf8183d
  f817d2:	7328           	.short 0x7328
  f817d4:	3029 0074      	move.w 116(a1),d0
  f817d8:	696d           	bvs.s 0xf81847
  f817da:	6572           	bcs.s 0xf8184e
  f817dc:	5f64           	subq.w #7,-(a4)
  f817de:	656c           	bcs.s 0xf8184c
  f817e0:	6179           	bsr.s 0xf8185b
  f817e2:	5f74 6963 6b73 	subq.w #7,([27507,a4],674312240)
  f817e8:	2831 3030 
  f817ec:	2900           	move.l d0,-(a4)
  f817ee:	7469           	moveq #105,d2
  f817f0:	6d65           	blt.s 0xf81857
  f817f2:	725f           	moveq #95,d1
  f817f4:	6465           	bcc.s 0xf8185b
  f817f6:	6c61           	bge.s 0xf81859
  f817f8:	795f           	.short 0x795f
  f817fa:	7573           	.short 0x7573
  f817fc:	6563           	bcs.s 0xf81861
  f817fe:	2831 2900      	move.l (0,a1,d2.l),d4
  f81802:	7469           	moveq #105,d2
  f81804:	6d65           	blt.s 0xf8186b
  f81806:	725f           	moveq #95,d1
  f81808:	6465           	bcc.s 0xf8186f
  f8180a:	6c61           	bge.s 0xf8186d
  f8180c:	795f           	.short 0x795f
  f8180e:	7573           	.short 0x7573
  f81810:	6563           	bcs.s 0xf81875
  f81812:	2831 3029      	move.l (41,a1,d3.w),d4
  f81816:	0074 696d 6572 	ori.w #26989,([1600415084,a4],24953)
  f8181c:	5f64 656c 6179 
  f81822:	5f75 7365 6328 	subq.w #7,([25384,a5],0)
  f81828:	3130 3030      	move.w (48,a0,d3.w),-(a0)
  f8182c:	2900           	move.l d0,-(a4)
  f8182e:	7469           	moveq #105,d2
  f81830:	6d65           	blt.s 0xf81897
  f81832:	725f           	moveq #95,d1
  f81834:	6465           	bcc.s 0xf8189b
  f81836:	6c61           	bge.s 0xf81899
  f81838:	795f           	.short 0x795f
  f8183a:	6d73           	blt.s 0xf818af
  f8183c:	6563           	bcs.s 0xf818a1
  f8183e:	2831 2900      	move.l (0,a1,d2.l),d4
  f81842:	7469           	moveq #105,d2
  f81844:	6d65           	blt.s 0xf818ab
  f81846:	725f           	moveq #95,d1
  f81848:	6465           	bcc.s 0xf818af
  f8184a:	6c61           	bge.s 0xf818ad
  f8184c:	795f           	.short 0x795f
  f8184e:	6d73           	blt.s 0xf818c3
  f81850:	6563           	bcs.s 0xf818b5
  f81852:	2831 3029      	move.l (41,a1,d3.w),d4
  f81856:	0074 696d 6572 	ori.w #26989,([1600415084,a4],24953)
  f8185c:	5f64 656c 6179 
  f81862:	5f6d 7365      	subq.w #7,29541(a5)
  f81866:	6328           	bls.s 0xf81890
  f81868:	3130 3030      	move.w (48,a0,d3.w),-(a0)
  f8186c:	2900           	move.l d0,-(a4)
  f8186e:	48e7 3f38      	movem.l d2-d7/a2-a4,-(sp)
  f81872:	246f 0028      	movea.l 40(sp),a2
  f81876:	266f 002c      	movea.l 44(sp),a3
  f8187a:	7001           	moveq #1,d0
  f8187c:	b08a           	cmp.l a2,d0
  f8187e:	6c1e           	bge.s 0xf8189e
  f81880:	206b 0004      	movea.l 4(a3),a0
  f81884:	1010           	move.b (a0),d0
  f81886:	0c00 0063      	cmpi.b #99,d0
  f8188a:	666a           	bne.s 0xf818f6
  f8188c:	7202           	moveq #2,d1
  f8188e:	b28a           	cmp.l a2,d1
  f81890:	6616           	bne.s 0xf818a8
  f81892:	487a feb4      	pea 0xf81748(pc)
  f81896:	61ff 0000 253a 	bsr.l 0xf83dd2
  f8189c:	588f           	addq.l #4,sp
  f8189e:	7402           	moveq #2,d2
  f818a0:	2002           	move.l d2,d0
  f818a2:	4cdf 1cfc      	movem.l (sp)+,d2-d7/a2-a4
  f818a6:	4e75           	rts
  f818a8:	61ff 0000 2b78 	bsr.l 0xf84422
  f818ae:	2800           	move.l d0,d4
  f818b0:	2a01           	move.l d1,d5
  f818b2:	486b 0008      	pea 8(a3)
  f818b6:	486a fffe      	pea -2(a2)
  f818ba:	61ff 0000 74e2 	bsr.l 0xf88d9e
  f818c0:	2400           	move.l d0,d2
  f818c2:	61ff 0000 2b5e 	bsr.l 0xf84422
  f818c8:	2c00           	move.l d0,d6
  f818ca:	2e01           	move.l d1,d7
  f818cc:	9e85           	sub.l d5,d7
  f818ce:	9d84           	subx.l d4,d6
  f818d0:	2f07           	move.l d7,-(sp)
  f818d2:	2f06           	move.l d6,-(sp)
  f818d4:	61ff 0000 2b96 	bsr.l 0xf8446c
  f818da:	2f01           	move.l d1,-(sp)
  f818dc:	2f00           	move.l d0,-(sp)
  f818de:	487a fe94      	pea 0xf81774(pc)
  f818e2:	61ff 0000 0b78 	bsr.l 0xf8245c
  f818e8:	4fef 001c      	lea 28(sp),sp
  f818ec:	7e02           	moveq #2,d7
  f818ee:	be82           	cmp.l d2,d7
  f818f0:	66ae           	bne.s 0xf818a0
  f818f2:	7401           	moveq #1,d2
  f818f4:	60aa           	bra.s 0xf818a0
  f818f6:	0c00 006e      	cmpi.b #110,d0
  f818fa:	6630           	bne.s 0xf8192c
  f818fc:	61ff 0000 2b24 	bsr.l 0xf84422
  f81902:	2400           	move.l d0,d2
  f81904:	2601           	move.l d1,d3
  f81906:	2f01           	move.l d1,-(sp)
  f81908:	2f02           	move.l d2,-(sp)
  f8190a:	61ff 0000 2b60 	bsr.l 0xf8446c
  f81910:	2f01           	move.l d1,-(sp)
  f81912:	2f00           	move.l d0,-(sp)
  f81914:	2f03           	move.l d3,-(sp)
  f81916:	2f02           	move.l d2,-(sp)
  f81918:	487a fe63      	pea 0xf8177d(pc)
  f8191c:	61ff 0000 0b3e 	bsr.l 0xf8245c
  f81922:	4fef 001c      	lea 28(sp),sp
  f81926:	4282           	clr.l d2
  f81928:	6000 ff76      	bra.w 0xf818a0
  f8192c:	0c00 0077      	cmpi.b #119,d0
  f81930:	667c           	bne.s 0xf819ae
  f81932:	61ff 0000 2aee 	bsr.l 0xf84422
  f81938:	2400           	move.l d0,d2
  f8193a:	2601           	move.l d1,d3
  f8193c:	45fa fe5d      	lea 0xf8179b(pc),a2
  f81940:	61ff 0000 2ae0 	bsr.l 0xf84422
  f81946:	2800           	move.l d0,d4
  f81948:	2a01           	move.l d1,d5
  f8194a:	2004           	move.l d4,d0
  f8194c:	2205           	move.l d5,d1
  f8194e:	9283           	sub.l d3,d1
  f81950:	9182           	subx.l d2,d0
  f81952:	6236           	bhi.s 0xf8198a
  f81954:	61ff 0000 2acc 	bsr.l 0xf84422
  f8195a:	2f01           	move.l d1,-(sp)
  f8195c:	2f00           	move.l d0,-(sp)
  f8195e:	2f05           	move.l d5,-(sp)
  f81960:	2f04           	move.l d4,-(sp)
  f81962:	2f03           	move.l d3,-(sp)
  f81964:	2f02           	move.l d2,-(sp)
  f81966:	2f0a           	move.l a2,-(sp)
  f81968:	61ff 0000 0af2 	bsr.l 0xf8245c
  f8196e:	4fef 001c      	lea 28(sp),sp
  f81972:	61ff 0000 24a0 	bsr.l 0xf83e14
  f81978:	4a80           	tst.l d0
  f8197a:	67c4           	beq.s 0xf81940
  f8197c:	487a fe41      	pea 0xf817bf(pc)
  f81980:	61ff 0000 2450 	bsr.l 0xf83dd2
  f81986:	588f           	addq.l #4,sp
  f81988:	609c           	bra.s 0xf81926
  f8198a:	2602           	move.l d2,d3
  f8198c:	4282           	clr.l d2
  f8198e:	2204           	move.l d4,d1
  f81990:	4280           	clr.l d0
  f81992:	2c02           	move.l d2,d6
  f81994:	2e03           	move.l d3,d7
  f81996:	9e81           	sub.l d1,d7
  f81998:	9d80           	subx.l d0,d6
  f8199a:	670c           	beq.s 0xf819a8
  f8199c:	4878 002e      	pea 0x2e
  f819a0:	61ff 0000 23f2 	bsr.l 0xf83d94
  f819a6:	588f           	addq.l #4,sp
  f819a8:	2404           	move.l d4,d2
  f819aa:	2605           	move.l d5,d3
  f819ac:	60c4           	bra.s 0xf81972
  f819ae:	0c00 0074      	cmpi.b #116,d0
  f819b2:	6600 0234      	bne.w 0xf81be8
  f819b6:	61ff 0000 2a6a 	bsr.l 0xf84422
  f819bc:	2400           	move.l d0,d2
  f819be:	2601           	move.l d1,d3
  f819c0:	42a7           	clr.l -(sp)
  f819c2:	61ff 0000 2bf6 	bsr.l 0xf845ba
  f819c8:	61ff 0000 2a58 	bsr.l 0xf84422
  f819ce:	2800           	move.l d0,d4
  f819d0:	2a01           	move.l d1,d5
  f819d2:	9a83           	sub.l d3,d5
  f819d4:	9982           	subx.l d2,d4
  f819d6:	2f05           	move.l d5,-(sp)
  f819d8:	2f04           	move.l d4,-(sp)
  f819da:	61ff 0000 2a90 	bsr.l 0xf8446c
  f819e0:	4878 01f4      	pea 0x1f4
  f819e4:	42a7           	clr.l -(sp)
  f819e6:	2f01           	move.l d1,-(sp)
  f819e8:	487a fdd8      	pea 0xf817c2(pc)
  f819ec:	61ff ffff fa70 	bsr.l 0xf8145e
  f819f2:	2400           	move.l d0,d2
  f819f4:	61ff 0000 2a2c 	bsr.l 0xf84422
  f819fa:	2800           	move.l d0,d4
  f819fc:	2a01           	move.l d1,d5
  f819fe:	4878 0064      	pea 0x64
  f81a02:	61ff 0000 2bb6 	bsr.l 0xf845ba
  f81a08:	4fef 0020      	lea 32(sp),sp
  f81a0c:	61ff 0000 2a14 	bsr.l 0xf84422
  f81a12:	2c00           	move.l d0,d6
  f81a14:	2e01           	move.l d1,d7
  f81a16:	9e85           	sub.l d5,d7
  f81a18:	9d84           	subx.l d4,d6
  f81a1a:	2f07           	move.l d7,-(sp)
  f81a1c:	2f06           	move.l d6,-(sp)
  f81a1e:	61ff 0000 2a4c 	bsr.l 0xf8446c
  f81a24:	4878 01f4      	pea 0x1f4
  f81a28:	4878 0064      	pea 0x64
  f81a2c:	2f01           	move.l d1,-(sp)
  f81a2e:	487a fda7      	pea 0xf817d7(pc)
  f81a32:	61ff ffff fa2a 	bsr.l 0xf8145e
  f81a38:	d480           	add.l d0,d2
  f81a3a:	61ff 0000 29e6 	bsr.l 0xf84422
  f81a40:	2800           	move.l d0,d4
  f81a42:	2a01           	move.l d1,d5
  f81a44:	4878 0001      	pea 0x1
  f81a48:	61ff 0000 2bc4 	bsr.l 0xf8460e
  f81a4e:	61ff 0000 29d2 	bsr.l 0xf84422
  f81a54:	2c00           	move.l d0,d6
  f81a56:	2e01           	move.l d1,d7
  f81a58:	9e85           	sub.l d5,d7
  f81a5a:	9d84           	subx.l d4,d6
  f81a5c:	2f07           	move.l d7,-(sp)
  f81a5e:	2f06           	move.l d6,-(sp)
  f81a60:	61ff 0000 2a0a 	bsr.l 0xf8446c
  f81a66:	4fef 0024      	lea 36(sp),sp
  f81a6a:	4878 01f4      	pea 0x1f4
  f81a6e:	4878 0001      	pea 0x1
  f81a72:	2f01           	move.l d1,-(sp)
  f81a74:	487a fd78      	pea 0xf817ee(pc)
  f81a78:	61ff ffff f9e4 	bsr.l 0xf8145e
  f81a7e:	d480           	add.l d0,d2
  f81a80:	61ff 0000 29a0 	bsr.l 0xf84422
  f81a86:	2800           	move.l d0,d4
  f81a88:	2a01           	move.l d1,d5
  f81a8a:	4878 000a      	pea 0xa
  f81a8e:	61ff 0000 2b7e 	bsr.l 0xf8460e
  f81a94:	61ff 0000 298c 	bsr.l 0xf84422
  f81a9a:	2c00           	move.l d0,d6
  f81a9c:	2e01           	move.l d1,d7
  f81a9e:	9e85           	sub.l d5,d7
  f81aa0:	9d84           	subx.l d4,d6
  f81aa2:	2f07           	move.l d7,-(sp)
  f81aa4:	2f06           	move.l d6,-(sp)
  f81aa6:	61ff 0000 29c4 	bsr.l 0xf8446c
  f81aac:	4878 019a      	pea 0x19a
  f81ab0:	4878 000a      	pea 0xa
  f81ab4:	2f01           	move.l d1,-(sp)
  f81ab6:	487a fd4a      	pea 0xf81802(pc)
  f81aba:	61ff ffff f9a2 	bsr.l 0xf8145e
  f81ac0:	d480           	add.l d0,d2
  f81ac2:	4fef 002c      	lea 44(sp),sp
  f81ac6:	61ff 0000 295a 	bsr.l 0xf84422
  f81acc:	2800           	move.l d0,d4
  f81ace:	2a01           	move.l d1,d5
  f81ad0:	4878 03e8      	pea 0x3e8
  f81ad4:	61ff 0000 2b38 	bsr.l 0xf8460e
  f81ada:	61ff 0000 2946 	bsr.l 0xf84422
  f81ae0:	2c00           	move.l d0,d6
  f81ae2:	2e01           	move.l d1,d7
  f81ae4:	9e85           	sub.l d5,d7
  f81ae6:	9d84           	subx.l d4,d6
  f81ae8:	2f07           	move.l d7,-(sp)
  f81aea:	2f06           	move.l d6,-(sp)
  f81aec:	61ff 0000 297e 	bsr.l 0xf8446c
  f81af2:	4878 05dc      	pea 0x5dc
  f81af6:	4878 03e8      	pea 0x3e8
  f81afa:	2f01           	move.l d1,-(sp)
  f81afc:	487a fd19      	pea 0xf81817(pc)
  f81b00:	61ff ffff f95c 	bsr.l 0xf8145e
  f81b06:	d480           	add.l d0,d2
  f81b08:	61ff 0000 2918 	bsr.l 0xf84422
  f81b0e:	2800           	move.l d0,d4
  f81b10:	2a01           	move.l d1,d5
  f81b12:	4878 0001      	pea 0x1
  f81b16:	61ff 0000 2acc 	bsr.l 0xf845e4
  f81b1c:	4fef 0020      	lea 32(sp),sp
  f81b20:	61ff 0000 2900 	bsr.l 0xf84422
  f81b26:	2c00           	move.l d0,d6
  f81b28:	2e01           	move.l d1,d7
  f81b2a:	9e85           	sub.l d5,d7
  f81b2c:	9d84           	subx.l d4,d6
  f81b2e:	2f07           	move.l d7,-(sp)
  f81b30:	2f06           	move.l d6,-(sp)
  f81b32:	61ff 0000 2938 	bsr.l 0xf8446c
  f81b38:	4878 05dc      	pea 0x5dc
  f81b3c:	4878 03e8      	pea 0x3e8
  f81b40:	2f01           	move.l d1,-(sp)
  f81b42:	487a fcea      	pea 0xf8182e(pc)
  f81b46:	61ff ffff f916 	bsr.l 0xf8145e
  f81b4c:	d480           	add.l d0,d2
  f81b4e:	61ff 0000 28d2 	bsr.l 0xf84422
  f81b54:	2800           	move.l d0,d4
  f81b56:	2a01           	move.l d1,d5
  f81b58:	4878 000a      	pea 0xa
  f81b5c:	61ff 0000 2a86 	bsr.l 0xf845e4
  f81b62:	61ff 0000 28be 	bsr.l 0xf84422
  f81b68:	2c00           	move.l d0,d6
  f81b6a:	2e01           	move.l d1,d7
  f81b6c:	9e85           	sub.l d5,d7
  f81b6e:	9d84           	subx.l d4,d6
  f81b70:	2f07           	move.l d7,-(sp)
  f81b72:	2f06           	move.l d6,-(sp)
  f81b74:	61ff 0000 28f6 	bsr.l 0xf8446c
  f81b7a:	4fef 0024      	lea 36(sp),sp
  f81b7e:	4878 2904      	pea 0x2904
  f81b82:	4878 2710      	pea 0x2710
  f81b86:	2f01           	move.l d1,-(sp)
  f81b88:	487a fcb8      	pea 0xf81842(pc)
  f81b8c:	61ff ffff f8d0 	bsr.l 0xf8145e
  f81b92:	d480           	add.l d0,d2
  f81b94:	61ff 0000 288c 	bsr.l 0xf84422
  f81b9a:	2800           	move.l d0,d4
  f81b9c:	2a01           	move.l d1,d5
  f81b9e:	4878 03e8      	pea 0x3e8
  f81ba2:	61ff 0000 2a40 	bsr.l 0xf845e4
  f81ba8:	61ff 0000 2878 	bsr.l 0xf84422
  f81bae:	2c00           	move.l d0,d6
  f81bb0:	2e01           	move.l d1,d7
  f81bb2:	9e85           	sub.l d5,d7
  f81bb4:	9d84           	subx.l d4,d6
  f81bb6:	2f07           	move.l d7,-(sp)
  f81bb8:	2f06           	move.l d6,-(sp)
  f81bba:	61ff 0000 28b0 	bsr.l 0xf8446c
  f81bc0:	2f3c 000f 4434 	move.l #1000500,-(sp)
  f81bc6:	2f3c 000f 4240 	move.l #1000000,-(sp)
  f81bcc:	2f01           	move.l d1,-(sp)
  f81bce:	487a fc87      	pea 0xf81857(pc)
  f81bd2:	61ff ffff f88a 	bsr.l 0xf8145e
  f81bd8:	d480           	add.l d0,d2
  f81bda:	4fef 002c      	lea 44(sp),sp
  f81bde:	56c2           	sne d2
  f81be0:	49c2           	extb.l d2
  f81be2:	4482           	neg.l d2
  f81be4:	6000 fcba      	bra.w 0xf818a0
  f81be8:	2f08           	move.l a0,-(sp)
  f81bea:	487a f910      	pea 0xf814fc(pc)
  f81bee:	61ff 0000 086c 	bsr.l 0xf8245c
  f81bf4:	508f           	addq.l #8,sp
  f81bf6:	6000 fca6      	bra.w 0xf8189e
  f81bfa:	7265           	moveq #101,d1
  f81bfc:	7365           	.short 0x7365
  f81bfe:	7420           	moveq #32,d2
  f81c00:	2d20           	move.l -(a0),-(a6)
  f81c02:	7265           	moveq #101,d1
  f81c04:	7365           	.short 0x7365
  f81c06:	7420           	moveq #32,d2
  f81c08:	416d           	.short 0x416d
  f81c0a:	6967           	bvs.s 0xf81c73
  f81c0c:	610a           	bsr.s 0xf81c18
  f81c0e:	0061 636f      	ori.w #25455,-(a1)
  f81c12:	6e66           	bgt.s 0xf81c7a
  f81c14:	6967           	bvs.s 0xf81c7d
  f81c16:	205b           	movea.l (a3)+,a0
  f81c18:	7368           	.short 0x7368
  f81c1a:	6f77           	ble.s 0xf81c93
  f81c1c:	5d20           	subq.b #6,-(a0)
  f81c1e:	2020           	move.l -(a0),d0
  f81c20:	2020           	move.l -(a0),d0
  f81c22:	2020           	move.l -(a0),d0
  f81c24:	2020           	move.l -(a0),d0
  f81c26:	2d20           	move.l -(a0),-(a6)
  f81c28:	7368           	.short 0x7368
  f81c2a:	6f77           	ble.s 0xf81ca3
  f81c2c:	2063           	movea.l -(a3),a0
  f81c2e:	7572           	.short 0x7572
  f81c30:	7265           	moveq #101,d1
  f81c32:	6e74           	bgt.s 0xf81ca8
  f81c34:	2028 756e      	move.l 30062(a0),d0
  f81c38:	636f           	bls.s 0xf81ca9
  f81c3a:	6e66           	bgt.s 0xf81ca2
  f81c3c:	6967           	bvs.s 0xf81ca5
  f81c3e:	7572           	.short 0x7572
  f81c40:	6564           	bcs.s 0xf81ca6
  f81c42:	2920           	move.l -(a0),-(a4)
  f81c44:	6465           	bcc.s 0xf81cab
  f81c46:	7669           	moveq #105,d3
  f81c48:	6365           	bls.s 0xf81caf
  f81c4a:	0a61 636f      	eori.w #25455,-(a1)
  f81c4e:	6e66           	bgt.s 0xf81cb6
  f81c50:	6967           	bvs.s 0xf81cb9
  f81c52:	2061           	movea.l -(a1),a0
  f81c54:	7574           	.short 0x7574
  f81c56:	6f20           	ble.s 0xf81c78
  f81c58:	2020           	move.l -(a0),d0
  f81c5a:	2020           	move.l -(a0),d0
  f81c5c:	2020           	move.l -(a0),d0
  f81c5e:	2020           	move.l -(a0),d0
  f81c60:	2020           	move.l -(a0),d0
  f81c62:	2d20           	move.l -(a0),-(a6)
  f81c64:	7065           	moveq #101,d0
  f81c66:	7266           	moveq #102,d1
  f81c68:	6f72           	ble.s 0xf81cdc
  f81c6a:	6d20           	blt.s 0xf81c8c
  f81c6c:	6175           	bsr.s 0xf81ce3
  f81c6e:	746f           	moveq #111,d2
  f81c70:	6d61           	blt.s 0xf81cd3
  f81c72:	7469           	moveq #105,d2
  f81c74:	6320           	bls.s 0xf81c96
  f81c76:	6175           	bsr.s 0xf81ced
  f81c78:	746f           	moveq #111,d2
  f81c7a:	636f           	bls.s 0xf81ceb
  f81c7c:	6e66           	bgt.s 0xf81ce4
  f81c7e:	6967           	bvs.s 0xf81ce7
  f81c80:	0a61 636f      	eori.w #25455,-(a1)
  f81c84:	6e66           	bgt.s 0xf81cec
  f81c86:	6967           	bvs.s 0xf81cef
  f81c88:	2062           	movea.l -(a2),a0
  f81c8a:	6f61           	ble.s 0xf81ced
  f81c8c:	7264           	moveq #100,d1
  f81c8e:	205b           	movea.l (a3)+,a0
  f81c90:	3c61           	movea.w -(a1),a6
  f81c92:	6464           	bcc.s 0xf81cf8
  f81c94:	723e           	moveq #62,d1
  f81c96:	5d20           	subq.b #6,-(a0)
  f81c98:	2d20           	move.l -(a0),-(a6)
  f81c9a:	636f           	bls.s 0xf81d0b
  f81c9c:	6e66           	bgt.s 0xf81d04
  f81c9e:	6967           	bvs.s 0xf81d07
  f81ca0:	2063           	movea.l -(a3),a0
  f81ca2:	7572           	.short 0x7572
  f81ca4:	7265           	moveq #101,d1
  f81ca6:	6e74           	bgt.s 0xf81d1c
  f81ca8:	2064           	movea.l -(a4),a0
  f81caa:	6576           	bcs.s 0xf81d22
  f81cac:	6963           	bvs.s 0xf81d11
  f81cae:	6520           	bcs.s 0xf81cd0
  f81cb0:	746f           	moveq #111,d2
  f81cb2:	205a           	movea.l (a2)+,a0
  f81cb4:	6f72           	ble.s 0xf81d28
  f81cb6:	726f           	moveq #111,d1
  f81cb8:	2061           	movea.l -(a1),a0
  f81cba:	6464           	bcc.s 0xf81d20
  f81cbc:	7265           	moveq #101,d1
  f81cbe:	7373           	.short 0x7373
  f81cc0:	0a61 636f      	eori.w #25455,-(a1)
  f81cc4:	6e66           	bgt.s 0xf81d2c
  f81cc6:	6967           	bvs.s 0xf81d2f
  f81cc8:	206c 6973      	movea.l 26995(a4),a0
  f81ccc:	7420           	moveq #32,d2
  f81cce:	2020           	move.l -(a0),d0
  f81cd0:	2020           	move.l -(a0),d0
  f81cd2:	2020           	move.l -(a0),d0
  f81cd4:	2020           	move.l -(a0),d0
  f81cd6:	2020           	move.l -(a0),d0
  f81cd8:	2d20           	move.l -(a0),-(a6)
  f81cda:	7368           	.short 0x7368
  f81cdc:	6f77           	ble.s 0xf81d55
  f81cde:	2061           	movea.l -(a1),a0
  f81ce0:	7574           	.short 0x7574
  f81ce2:	6f63           	ble.s 0xf81d47
  f81ce4:	6f6e           	ble.s 0xf81d54
  f81ce6:	6667           	bne.s 0xf81d4f
  f81ce8:	2073 7061      	movea.l (97,a3,d7.w),a0
  f81cec:	6365           	bls.s 0xf81d53
  f81cee:	2028 6672      	move.l 26226(a0),d0
  f81cf2:	6565           	bcs.s 0xf81d59
  f81cf4:	2061           	movea.l -(a1),a0
  f81cf6:	6e64           	bgt.s 0xf81d5c
  f81cf8:	2061           	movea.l -(a1),a0
  f81cfa:	6c6c           	bge.s 0xf81d68
  f81cfc:	6f63           	ble.s 0xf81d61
  f81cfe:	6174           	bsr.s 0xf81d74
  f81d00:	6564           	bcs.s 0xf81d66
  f81d02:	290a           	move.l a2,-(a4)
  f81d04:	6163           	bsr.s 0xf81d69
  f81d06:	6f6e           	ble.s 0xf81d76
  f81d08:	6669           	bne.s 0xf81d73
  f81d0a:	6720           	beq.s 0xf81d2c
  f81d0c:	7368           	.short 0x7368
  f81d0e:	7574           	.short 0x7574
  f81d10:	7570           	.short 0x7570
  f81d12:	2020           	move.l -(a0),d0
  f81d14:	2020           	move.l -(a0),d0
  f81d16:	2020           	move.l -(a0),d0
  f81d18:	2020           	move.l -(a0),d0
  f81d1a:	202d 2074      	move.l 8308(a5),d0
  f81d1e:	656c           	bcs.s 0xf81d8c
  f81d20:	6c20           	bge.s 0xf81d42
  f81d22:	6465           	bcc.s 0xf81d89
  f81d24:	7669           	moveq #105,d3
  f81d26:	6365           	bls.s 0xf81d8d
  f81d28:	2074 6f20 7368 	movea.l (29544,a4,d6.l*8),a0
  f81d2e:	7574           	.short 0x7574
  f81d30:	7570           	.short 0x7570
  f81d32:	2028 676f      	move.l 26479(a0),d0
  f81d36:	2074 6f20 6e65 	movea.l (28261,a4,d6.l*8),a0
  f81d3c:	7874           	moveq #116,d4
  f81d3e:	290a           	move.l a2,-(a4)
  f81d40:	0000 0000      	ori.b #0,d0
  f81d44:	2f02           	move.l d2,-(sp)
  f81d46:	222f 0008      	move.l 8(sp),d1
  f81d4a:	206f 000c      	movea.l 12(sp),a0
  f81d4e:	4a88           	tst.l a0
  f81d50:	660c           	bne.s 0xf81d5e
  f81d52:	2f41 0008      	move.l d1,8(sp)
  f81d56:	241f           	move.l (sp)+,d2
  f81d58:	60ff 0000 203a 	bra.l 0xf83d94
  f81d5e:	2010           	move.l (a0),d0
  f81d60:	b0a8 0004      	cmp.l 4(a0),d0
  f81d64:	640a           	bcc.s 0xf81d70
  f81d66:	2400           	move.l d0,d2
  f81d68:	5282           	addq.l #1,d2
  f81d6a:	2082           	move.l d2,(a0)
  f81d6c:	2040           	movea.l d0,a0
  f81d6e:	1081           	move.b d1,(a0)
  f81d70:	241f           	move.l (sp)+,d2
  f81d72:	4e75           	rts
  f81d74:	4fef ffe4      	lea -28(sp),sp
  f81d78:	48e7 3f36      	movem.l d2-d7/a2-a3/a5-a6,-(sp)
  f81d7c:	282f 0048      	move.l 72(sp),d4
  f81d80:	246f 0054      	movea.l 84(sp),a2
  f81d84:	262f 0058      	move.l 88(sp),d3
  f81d88:	202f 0060      	move.l 96(sp),d0
  f81d8c:	d0af 005c      	add.l 92(sp),d0
  f81d90:	2f40 0028      	move.l d0,40(sp)
  f81d94:	0803 0008      	btst #8,d3
  f81d98:	6600 0138      	bne.w 0xf81ed2
  f81d9c:	7457           	moveq #87,d2
  f81d9e:	47ef 002c      	lea 44(sp),a3
  f81da2:	2e0a           	move.l a2,d7
  f81da4:	4286           	clr.l d6
  f81da6:	2f07           	move.l d7,-(sp)
  f81da8:	2f06           	move.l d6,-(sp)
  f81daa:	2f2f 0058      	move.l 88(sp),-(sp)
  f81dae:	2f2f 0058      	move.l 88(sp),-(sp)
  f81db2:	61ff 0000 8b00 	bsr.l 0xf8a8b4
  f81db8:	4fef 0010      	lea 16(sp),sp
  f81dbc:	7009           	moveq #9,d0
  f81dbe:	b081           	cmp.l d1,d0
  f81dc0:	6500 0124      	bcs.w 0xf81ee6
  f81dc4:	7a30           	moveq #48,d5
  f81dc6:	2c4b           	movea.l a3,a6
  f81dc8:	da01           	add.b d1,d5
  f81dca:	1cc5           	move.b d5,(a6)+
  f81dcc:	2f07           	move.l d7,-(sp)
  f81dce:	2f06           	move.l d6,-(sp)
  f81dd0:	2f2f 0058      	move.l 88(sp),-(sp)
  f81dd4:	2f2f 0058      	move.l 88(sp),-(sp)
  f81dd8:	61ff 0000 855a 	bsr.l 0xf8a334
  f81dde:	4fef 0010      	lea 16(sp),sp
  f81de2:	2040           	movea.l d0,a0
  f81de4:	2241           	movea.l d1,a1
  f81de6:	202f 004c      	move.l 76(sp),d0
  f81dea:	222f 0050      	move.l 80(sp),d1
  f81dee:	9287           	sub.l d7,d1
  f81df0:	9186           	subx.l d6,d0
  f81df2:	6400 00e4      	bcc.w 0xf81ed8
  f81df6:	44c3           	move.w d3,ccr
  f81df8:	6600 0108      	bne.w 0xf81f02
  f81dfc:	0c05 0030      	cmpi.b #48,d5
  f81e00:	6700 0100      	beq.w 0xf81f02
  f81e04:	7208           	moveq #8,d1
  f81e06:	b28a           	cmp.l a2,d1
  f81e08:	6600 00e2      	bne.w 0xf81eec
  f81e0c:	548b           	addq.l #2,a3
  f81e0e:	1cbc 0030      	move.b #48,(a6)
  f81e12:	4a03           	tst.b d3
  f81e14:	6a00 00f2      	bpl.w 0xf81f08
  f81e18:	16fc 002d      	move.b #45,(a3)+
  f81e1c:	0803 0006      	btst #6,d3
  f81e20:	6700 0102      	beq.w 0xf81f24
  f81e24:	7a30           	moveq #48,d5
  f81e26:	4bef 002c      	lea 44(sp),a5
  f81e2a:	220b           	move.l a3,d1
  f81e2c:	928d           	sub.l a5,d1
  f81e2e:	242f 0028      	move.l 40(sp),d2
  f81e32:	9481           	sub.l d1,d2
  f81e34:	0803 0004      	btst #4,d3
  f81e38:	6600 0128      	bne.w 0xf81f62
  f81e3c:	2c02           	move.l d2,d6
  f81e3e:	49c5           	extb.l d5
  f81e40:	4a86           	tst.l d6
  f81e42:	6e00 00e6      	bgt.w 0xf81f2a
  f81e46:	2c02           	move.l d2,d6
  f81e48:	6a02           	bpl.s 0xf81e4c
  f81e4a:	4286           	clr.l d6
  f81e4c:	5382           	subq.l #1,d2
  f81e4e:	9486           	sub.l d6,d2
  f81e50:	2a0b           	move.l a3,d5
  f81e52:	ba8e           	cmp.l a6,d5
  f81e54:	6200 00e6      	bhi.w 0xf81f3c
  f81e58:	bdcb           	cmpa.l a3,a6
  f81e5a:	53c0           	sl.s d0
  f81e5c:	1200           	move.b d0,d1
  f81e5e:	4401           	neg.b d1
  f81e60:	4a00           	tst.b d0
  f81e62:	6700 00f0      	beq.w 0xf81f54
  f81e66:	2a0b           	move.l a3,d5
  f81e68:	9a8e           	sub.l a6,d5
  f81e6a:	da86           	add.l d6,d5
  f81e6c:	4a01           	tst.b d1
  f81e6e:	6700 00ea      	beq.w 0xf81f5a
  f81e72:	9dcb           	suba.l a3,a6
  f81e74:	d7ce           	adda.l a6,a3
  f81e76:	4aaf 0060      	tst.l 96(sp)
  f81e7a:	671a           	beq.s 0xf81e96
  f81e7c:	200b           	move.l a3,d0
  f81e7e:	908d           	sub.l a5,d0
  f81e80:	b0af 0060      	cmp.l 96(sp),d0
  f81e84:	6610           	bne.s 0xf81e96
  f81e86:	5285           	addq.l #1,d5
  f81e88:	2f04           	move.l d4,-(sp)
  f81e8a:	4878 002e      	pea 0x2e
  f81e8e:	61ff ffff feb4 	bsr.l 0xf81d44
  f81e94:	508f           	addq.l #8,sp
  f81e96:	2f04           	move.l d4,-(sp)
  f81e98:	1023           	move.b -(a3),d0
  f81e9a:	49c0           	extb.l d0
  f81e9c:	2f00           	move.l d0,-(sp)
  f81e9e:	61ff ffff fea4 	bsr.l 0xf81d44
  f81ea4:	5285           	addq.l #1,d5
  f81ea6:	508f           	addq.l #8,sp
  f81ea8:	bbcb           	cmpa.l a3,a5
  f81eaa:	65ca           	bcs.s 0xf81e76
  f81eac:	7250           	moveq #80,d1
  f81eae:	c681           	and.l d1,d3
  f81eb0:	7010           	moveq #16,d0
  f81eb2:	b083           	cmp.l d3,d0
  f81eb4:	6610           	bne.s 0xf81ec6
  f81eb6:	2602           	move.l d2,d3
  f81eb8:	4a83           	tst.l d3
  f81eba:	6e00 00ac      	bgt.w 0xf81f68
  f81ebe:	4a82           	tst.l d2
  f81ec0:	6c02           	bge.s 0xf81ec4
  f81ec2:	4282           	clr.l d2
  f81ec4:	da82           	add.l d2,d5
  f81ec6:	2005           	move.l d5,d0
  f81ec8:	4cdf 6cfc      	movem.l (sp)+,d2-d7/a2-a3/a5-a6
  f81ecc:	4fef 001c      	lea 28(sp),sp
  f81ed0:	4e75           	rts
  f81ed2:	7437           	moveq #55,d2
  f81ed4:	6000 fec8      	bra.w 0xf81d9e
  f81ed8:	264e           	movea.l a6,a3
  f81eda:	2f48 004c      	move.l a0,76(sp)
  f81ede:	2f49 0050      	move.l a1,80(sp)
  f81ee2:	6000 fec2      	bra.w 0xf81da6
  f81ee6:	1a02           	move.b d2,d5
  f81ee8:	6000 fedc      	bra.w 0xf81dc6
  f81eec:	7010           	moveq #16,d0
  f81eee:	b08a           	cmp.l a2,d0
  f81ef0:	6610           	bne.s 0xf81f02
  f81ef2:	1cbc 0078      	move.b #120,(a6)
  f81ef6:	568b           	addq.l #3,a3
  f81ef8:	1d7c 0030 0001 	move.b #48,1(a6)
  f81efe:	6000 ff12      	bra.w 0xf81e12
  f81f02:	264e           	movea.l a6,a3
  f81f04:	6000 ff0c      	bra.w 0xf81e12
  f81f08:	0803 0005      	btst #5,d3
  f81f0c:	6708           	beq.s 0xf81f16
  f81f0e:	16fc 002b      	move.b #43,(a3)+
  f81f12:	6000 ff08      	bra.w 0xf81e1c
  f81f16:	44c3           	move.w d3,ccr
  f81f18:	6a00 ff02      	bpl.w 0xf81e1c
  f81f1c:	16fc 0020      	move.b #32,(a3)+
  f81f20:	6000 fefa      	bra.w 0xf81e1c
  f81f24:	7a20           	moveq #32,d5
  f81f26:	6000 fefe      	bra.w 0xf81e26
  f81f2a:	2f04           	move.l d4,-(sp)
  f81f2c:	2f05           	move.l d5,-(sp)
  f81f2e:	61ff ffff fe14 	bsr.l 0xf81d44
  f81f34:	5386           	subq.l #1,d6
  f81f36:	508f           	addq.l #8,sp
  f81f38:	6000 ff06      	bra.w 0xf81e40
  f81f3c:	2f04           	move.l d4,-(sp)
  f81f3e:	2045           	movea.l d5,a0
  f81f40:	1220           	move.b -(a0),d1
  f81f42:	49c1           	extb.l d1
  f81f44:	2f01           	move.l d1,-(sp)
  f81f46:	2a08           	move.l a0,d5
  f81f48:	61ff ffff fdfa 	bsr.l 0xf81d44
  f81f4e:	508f           	addq.l #8,sp
  f81f50:	6000 ff00      	bra.w 0xf81e52
  f81f54:	4285           	clr.l d5
  f81f56:	6000 ff12      	bra.w 0xf81e6a
  f81f5a:	4df8 0000      	lea 0x0,a6
  f81f5e:	6000 ff14      	bra.w 0xf81e74
  f81f62:	4285           	clr.l d5
  f81f64:	6000 ff10      	bra.w 0xf81e76
  f81f68:	2f04           	move.l d4,-(sp)
  f81f6a:	4878 0020      	pea 0x20
  f81f6e:	61ff ffff fdd4 	bsr.l 0xf81d44
  f81f74:	5383           	subq.l #1,d3
  f81f76:	508f           	addq.l #8,sp
  f81f78:	6000 ff3e      	bra.w 0xf81eb8
  f81f7c:	286e 756c      	movea.l 30060(a6),a4
  f81f80:	6c29           	bge.s 0xf81fab
  f81f82:	0000 4fef      	ori.b #-17,d0
  f81f86:	ffdc           	.short 0xffdc
  f81f88:	48e7 3f3e      	movem.l d2-d7/a2-a6,-(sp)
  f81f8c:	262f 0054      	move.l 84(sp),d3
  f81f90:	2a6f 0058      	movea.l 88(sp),a5
  f81f94:	246f 005c      	movea.l 92(sp),a2
  f81f98:	47f8 0000      	lea 0x0,a3
  f81f9c:	2a3c 0000 0800 	move.l #2048,d5
  f81fa2:	41fa 0098      	lea 0xf8203c(pc),a0
  f81fa6:	2f48 0048      	move.l a0,72(sp)
  f81faa:	41fa 00de      	lea 0xf8208a(pc),a0
  f81fae:	2f48 004c      	move.l a0,76(sp)
  f81fb2:	224d           	movea.l a5,a1
  f81fb4:	1019           	move.b (a1)+,d0
  f81fb6:	49c0           	extb.l d0
  f81fb8:	7225           	moveq #37,d1
  f81fba:	b280           	cmp.l d0,d1
  f81fbc:	663c           	bne.s 0xf81ffa
  f81fbe:	2e05           	move.l d5,d7
  f81fc0:	4286           	clr.l d6
  f81fc2:	4282           	clr.l d2
  f81fc4:	2a49           	movea.l a1,a5
  f81fc6:	101d           	move.b (a5)+,d0
  f81fc8:	1200           	move.b d0,d1
  f81fca:	49c1           	extb.l d1
  f81fcc:	0c00 007a      	cmpi.b #122,d0
  f81fd0:	6e16           	bgt.s 0xf81fe8
  f81fd2:	0c00 0062      	cmpi.b #98,d0
  f81fd6:	6e44           	bgt.s 0xf8201c
  f81fd8:	0c00 0039      	cmpi.b #57,d0
  f81fdc:	6e00 00e0      	bgt.w 0xf820be
  f81fe0:	0c00 001f      	cmpi.b #31,d0
  f81fe4:	6e00 0086      	bgt.w 0xf8206c
  f81fe8:	4a81           	tst.l d1
  f81fea:	6600 00da      	bne.w 0xf820c6
  f81fee:	200b           	move.l a3,d0
  f81ff0:	4cdf 7cfc      	movem.l (sp)+,d2-d7/a2-a6
  f81ff4:	4fef 0024      	lea 36(sp),sp
  f81ff8:	4e75           	rts
  f81ffa:	4a80           	tst.l d0
  f81ffc:	67f0           	beq.s 0xf81fee
  f81ffe:	2f03           	move.l d3,-(sp)
  f82000:	2f00           	move.l d0,-(sp)
  f82002:	2f49 003c      	move.l a1,60(sp)
  f82006:	61ff ffff fd3c 	bsr.l 0xf81d44
  f8200c:	528b           	addq.l #1,a3
  f8200e:	508f           	addq.l #8,sp
  f82010:	2c4a           	movea.l a2,a6
  f82012:	226f 0034      	movea.l 52(sp),a1
  f82016:	2a49           	movea.l a1,a5
  f82018:	244e           	movea.l a6,a2
  f8201a:	6096           	bra.s 0xf81fb2
  f8201c:	0600 009d      	addi.b #-99,d0
  f82020:	0c00 0017      	cmpi.b #23,d0
  f82024:	6200 00a0      	bhi.w 0xf820c6
  f82028:	0280 0000 00ff 	andi.l #255,d0
  f8202e:	d080           	add.l d0,d0
  f82030:	206f 0048      	movea.l 72(sp),a0
  f82034:	3030 0800      	move.w (0,a0,d0.l),d0
  f82038:	4efb 0002      	jmp (0xf8203c,pc,d0.w)
  f8203c:	0146           	bchg d0,d6
  f8203e:	0276 008a 008a 	andi.w #138,(-118,a6,d0.w)
  f82044:	008a           	.short 0x008a
  f82046:	008a           	.short 0x008a
  f82048:	008a           	.short 0x008a
  f8204a:	008a           	.short 0x008a
  f8204c:	008a           	.short 0x008a
  f8204e:	0128 008a      	btst d0,138(a0)
  f82052:	008a           	.short 0x008a
  f82054:	02ca           	.short 0x02ca
  f82056:	033e           	.short 0x033e
  f82058:	008a           	.short 0x008a
  f8205a:	008a           	.short 0x008a
  f8205c:	01ce 0140      	movep.l d0,320(a6)
  f82060:	02fc           	.short 0x02fc
  f82062:	008a           	.short 0x008a
  f82064:	008a           	.short 0x008a
  f82066:	0342           	bchg d1,d2
  f82068:	008a           	.short 0x008a
  f8206a:	0140           	bchg d0,d0
  f8206c:	0600 00e0      	addi.b #-32,d0
  f82070:	0c00 0019      	cmpi.b #25,d0
  f82074:	6250           	bhi.s 0xf820c6
  f82076:	0280 0000 00ff 	andi.l #255,d0
  f8207c:	d080           	add.l d0,d0
  f8207e:	206f 004c      	movea.l 76(sp),a0
  f82082:	3030 0800      	move.w (0,a0,d0.l),d0
  f82086:	4efb 0002      	jmp (0xf8208a,pc,d0.w)
  f8208a:	005a 003c      	ori.w #60,(a2)+
  f8208e:	003c 0050      	ori.b #80,ccr
  f82092:	003c 003c      	ori.b #60,ccr
  f82096:	003c 003c      	ori.b #60,ccr
  f8209a:	003c 003c      	ori.b #60,ccr
  f8209e:	006a 0066 003c 	ori.w #102,60(a2)
  f820a4:	0060 0076      	ori.w #118,-(a0)
  f820a8:	003c 00ae      	ori.b #-82,ccr
  f820ac:	00b2 00b2 00b2 	ori.l #11665586,(-78,a2,d0.w)
  f820b2:	00b2 
  f820b4:	00b2 00b2 00b2 	ori.l #11665586,(-78,a2,d0.w)
  f820ba:	00b2 
  f820bc:	00b2 0c00 0058 	ori.l #201326680,(0,a2,d6.w*8)
  f820c2:	6700 
  f820c4:	02e0           	.short 0x02e0
  f820c6:	2f03           	move.l d3,-(sp)
  f820c8:	2f01           	move.l d1,-(sp)
  f820ca:	61ff ffff fc78 	bsr.l 0xf81d44
  f820d0:	528b           	addq.l #1,a3
  f820d2:	508f           	addq.l #8,sp
  f820d4:	2c4a           	movea.l a2,a6
  f820d6:	6000 ff40      	bra.w 0xf82018
  f820da:	7004           	moveq #4,d0
  f820dc:	8480           	or.l d0,d2
  f820de:	224d           	movea.l a5,a1
  f820e0:	6000 fee2      	bra.w 0xf81fc4
  f820e4:	7208           	moveq #8,d1
  f820e6:	8481           	or.l d1,d2
  f820e8:	60f4           	bra.s 0xf820de
  f820ea:	7810           	moveq #16,d4
  f820ec:	8484           	or.l d4,d2
  f820ee:	60ee           	bra.s 0xf820de
  f820f0:	7020           	moveq #32,d0
  f820f2:	60e8           	bra.s 0xf820dc
  f820f4:	2c1a           	move.l (a2)+,d6
  f820f6:	6ae6           	bpl.s 0xf820de
  f820f8:	7210           	moveq #16,d1
  f820fa:	8481           	or.l d1,d2
  f820fc:	4486           	neg.l d6
  f820fe:	60de           	bra.s 0xf820de
  f82100:	0042 0200      	ori.w #512,d2
  f82104:	4be9 0002      	lea 2(a1),a5
  f82108:	1029 0001      	move.b 1(a1),d0
  f8210c:	49c0           	extb.l d0
  f8210e:	782a           	moveq #42,d4
  f82110:	b880           	cmp.l d0,d4
  f82112:	6620           	bne.s 0xf82134
  f82114:	2e1a           	move.l (a2)+,d7
  f82116:	60c6           	bra.s 0xf820de
  f82118:	700a           	moveq #10,d0
  f8211a:	4c00 7800      	muls.l d0,d7
  f8211e:	de89           	add.l a1,d7
  f82120:	101d           	move.b (a5)+,d0
  f82122:	49c0           	extb.l d0
  f82124:	327c ffd0      	movea.w #-48,a1
  f82128:	d3c0           	adda.l d0,a1
  f8212a:	7209           	moveq #9,d1
  f8212c:	b289           	cmp.l a1,d1
  f8212e:	64e8           	bcc.s 0xf82118
  f82130:	538d           	subq.l #1,a5
  f82132:	60aa           	bra.s 0xf820de
  f82134:	4287           	clr.l d7
  f82136:	60ec           	bra.s 0xf82124
  f82138:	7840           	moveq #64,d4
  f8213a:	60b0           	bra.s 0xf820ec
  f8213c:	224d           	movea.l a5,a1
  f8213e:	700a           	moveq #10,d0
  f82140:	4c00 6800      	muls.l d0,d6
  f82144:	2041           	movea.l d1,a0
  f82146:	41f0 68d0      	lea (-48,a0,d6.l),a0
  f8214a:	2c08           	move.l a0,d6
  f8214c:	1211           	move.b (a1),d1
  f8214e:	49c1           	extb.l d1
  f82150:	2a49           	movea.l a1,a5
  f82152:	5289           	addq.l #1,a1
  f82154:	307c ffd0      	movea.w #-48,a0
  f82158:	d1c1           	adda.l d1,a0
  f8215a:	7009           	moveq #9,d0
  f8215c:	b088           	cmp.l a0,d0
  f8215e:	64de           	bcc.s 0xf8213e
  f82160:	6000 ff7c      	bra.w 0xf820de
  f82164:	0c29 006c 0001 	cmpi.b #108,1(a1)
  f8216a:	660a           	bne.s 0xf82176
  f8216c:	4be9 0002      	lea 2(a1),a5
  f82170:	7202           	moveq #2,d1
  f82172:	6000 ff72      	bra.w 0xf820e6
  f82176:	7801           	moveq #1,d4
  f82178:	6000 ff72      	bra.w 0xf820ec
  f8217c:	7001           	moveq #1,d0
  f8217e:	6000 ff5c      	bra.w 0xf820dc
  f82182:	2c4a           	movea.l a2,a6
  f82184:	245e           	movea.l (a6)+,a2
  f82186:	2e06           	move.l d6,d7
  f82188:	5387           	subq.l #1,d7
  f8218a:	0802 0004      	btst #4,d2
  f8218e:	661e           	bne.s 0xf821ae
  f82190:	4a87           	tst.l d7
  f82192:	6e52           	bgt.s 0xf821e6
  f82194:	2046           	movea.l d6,a0
  f82196:	4a86           	tst.l d6
  f82198:	6e04           	bgt.s 0xf8219e
  f8219a:	307c 0001      	movea.w #1,a0
  f8219e:	47f0 b8ff      	lea (-1,a0,a3.l),a3
  f821a2:	327c 0001      	movea.w #1,a1
  f821a6:	93c8           	suba.l a0,a1
  f821a8:	43f1 68fe      	lea (-2,a1,d6.l),a1
  f821ac:	2e09           	move.l a1,d7
  f821ae:	2f03           	move.l d3,-(sp)
  f821b0:	220a           	move.l a2,d1
  f821b2:	7800           	moveq #0,d4
  f821b4:	4604           	not.b d4
  f821b6:	c284           	and.l d4,d1
  f821b8:	2f01           	move.l d1,-(sp)
  f821ba:	61ff ffff fb88 	bsr.l 0xf81d44
  f821c0:	528b           	addq.l #1,a3
  f821c2:	7050           	moveq #80,d0
  f821c4:	c480           	and.l d0,d2
  f821c6:	508f           	addq.l #8,sp
  f821c8:	7210           	moveq #16,d1
  f821ca:	b282           	cmp.l d2,d1
  f821cc:	6600 fe4a      	bne.w 0xf82018
  f821d0:	2407           	move.l d7,d2
  f821d2:	4a82           	tst.l d2
  f821d4:	6e22           	bgt.s 0xf821f8
  f821d6:	2047           	movea.l d7,a0
  f821d8:	4a87           	tst.l d7
  f821da:	6c04           	bge.s 0xf821e0
  f821dc:	41f8 0000      	lea 0x0,a0
  f821e0:	d7c8           	adda.l a0,a3
  f821e2:	6000 fe34      	bra.w 0xf82018
  f821e6:	2f03           	move.l d3,-(sp)
  f821e8:	4878 0020      	pea 0x20
  f821ec:	61ff ffff fb56 	bsr.l 0xf81d44
  f821f2:	5387           	subq.l #1,d7
  f821f4:	508f           	addq.l #8,sp
  f821f6:	6098           	bra.s 0xf82190
  f821f8:	2f03           	move.l d3,-(sp)
  f821fa:	4878 0020      	pea 0x20
  f821fe:	61ff ffff fb44 	bsr.l 0xf81d44
  f82204:	5382           	subq.l #1,d2
  f82206:	508f           	addq.l #8,sp
  f82208:	60c8           	bra.s 0xf821d2
  f8220a:	2c4a           	movea.l a2,a6
  f8220c:	225e           	movea.l (a6)+,a1
  f8220e:	4a89           	tst.l a1
  f82210:	6604           	bne.s 0xf82216
  f82212:	43fa fd68      	lea 0xf81f7c(pc),a1
  f82216:	2009           	move.l a1,d0
  f82218:	2440           	movea.l d0,a2
  f8221a:	5280           	addq.l #1,d0
  f8221c:	4a12           	tst.b (a2)
  f8221e:	66f8           	bne.s 0xf82218
  f82220:	95c9           	suba.l a1,a2
  f82222:	9c8a           	sub.l a2,d6
  f82224:	0802 0004      	btst #4,d2
  f82228:	6612           	bne.s 0xf8223c
  f8222a:	2446           	movea.l d6,a2
  f8222c:	4a8a           	tst.l a2
  f8222e:	6e12           	bgt.s 0xf82242
  f82230:	2006           	move.l d6,d0
  f82232:	6a02           	bpl.s 0xf82236
  f82234:	4280           	clr.l d0
  f82236:	d7c0           	adda.l d0,a3
  f82238:	5386           	subq.l #1,d6
  f8223a:	9c80           	sub.l d0,d6
  f8223c:	45f8 0000      	lea 0x0,a2
  f82240:	6034           	bra.s 0xf82276
  f82242:	2f03           	move.l d3,-(sp)
  f82244:	4878 0020      	pea 0x20
  f82248:	2f49 003c      	move.l a1,60(sp)
  f8224c:	61ff ffff faf6 	bsr.l 0xf81d44
  f82252:	538a           	subq.l #1,a2
  f82254:	508f           	addq.l #8,sp
  f82256:	226f 0034      	movea.l 52(sp),a1
  f8225a:	60d0           	bra.s 0xf8222c
  f8225c:	be8a           	cmp.l a2,d7
  f8225e:	6720           	beq.s 0xf82280
  f82260:	2f03           	move.l d3,-(sp)
  f82262:	2f00           	move.l d0,-(sp)
  f82264:	2f49 003c      	move.l a1,60(sp)
  f82268:	61ff ffff fada 	bsr.l 0xf81d44
  f8226e:	528a           	addq.l #1,a2
  f82270:	508f           	addq.l #8,sp
  f82272:	226f 0034      	movea.l 52(sp),a1
  f82276:	4280           	clr.l d0
  f82278:	1031 a800      	move.b (0,a1,a2.l),d0
  f8227c:	4a80           	tst.l d0
  f8227e:	66dc           	bne.s 0xf8225c
  f82280:	d7ca           	adda.l a2,a3
  f82282:	7850           	moveq #80,d4
  f82284:	c484           	and.l d4,d2
  f82286:	7010           	moveq #16,d0
  f82288:	b082           	cmp.l d2,d0
  f8228a:	6600 fd8c      	bne.w 0xf82018
  f8228e:	2406           	move.l d6,d2
  f82290:	4a82           	tst.l d2
  f82292:	6e0c           	bgt.s 0xf822a0
  f82294:	4a86           	tst.l d6
  f82296:	6c02           	bge.s 0xf8229a
  f82298:	4286           	clr.l d6
  f8229a:	d7c6           	adda.l d6,a3
  f8229c:	6000 fd7a      	bra.w 0xf82018
  f822a0:	2f03           	move.l d3,-(sp)
  f822a2:	4878 0020      	pea 0x20
  f822a6:	61ff ffff fa9c 	bsr.l 0xf81d44
  f822ac:	5382           	subq.l #1,d2
  f822ae:	508f           	addq.l #8,sp
  f822b0:	60de           	bra.s 0xf82290
  f822b2:	2c4a           	movea.l a2,a6
  f822b4:	0802 0001      	btst #1,d2
  f822b8:	6744           	beq.s 0xf822fe
  f822ba:	201e           	move.l (a6)+,d0
  f822bc:	221e           	move.l (a6)+,d1
  f822be:	4a80           	tst.l d0
  f822c0:	6c0a           	bge.s 0xf822cc
  f822c2:	4481           	neg.l d1
  f822c4:	4080           	negx.l d0
  f822c6:	787f           	moveq #127,d4
  f822c8:	4604           	not.b d4
  f822ca:	8484           	or.l d4,d2
  f822cc:	2802           	move.l d2,d4
  f822ce:	0284 0000 0200 	andi.l #512,d4
  f822d4:	2244           	movea.l d4,a1
  f822d6:	0802 0009      	btst #9,d2
  f822da:	6702           	beq.s 0xf822de
  f822dc:	2247           	movea.l d7,a1
  f822de:	2f09           	move.l a1,-(sp)
  f822e0:	2f06           	move.l d6,-(sp)
  f822e2:	2f02           	move.l d2,-(sp)
  f822e4:	4878 000a      	pea 0xa
  f822e8:	2f01           	move.l d1,-(sp)
  f822ea:	2f00           	move.l d0,-(sp)
  f822ec:	2f03           	move.l d3,-(sp)
  f822ee:	61ff ffff fa84 	bsr.l 0xf81d74
  f822f4:	d7c0           	adda.l d0,a3
  f822f6:	4fef 001c      	lea 28(sp),sp
  f822fa:	6000 fd1c      	bra.w 0xf82018
  f822fe:	221e           	move.l (a6)+,d1
  f82300:	5bc0           	smi d0
  f82302:	49c0           	extb.l d0
  f82304:	60b8           	bra.s 0xf822be
  f82306:	0802 0001      	btst #1,d2
  f8230a:	671e           	beq.s 0xf8232a
  f8230c:	2c4a           	movea.l a2,a6
  f8230e:	2f5e 002c      	move.l (a6)+,44(sp)
  f82312:	2f5e 0030      	move.l (a6)+,48(sp)
  f82316:	42a7           	clr.l -(sp)
  f82318:	2f06           	move.l d6,-(sp)
  f8231a:	2f02           	move.l d2,-(sp)
  f8231c:	4878 0008      	pea 0x8
  f82320:	2f2f 0040      	move.l 64(sp),-(sp)
  f82324:	2f2f 0040      	move.l 64(sp),-(sp)
  f82328:	60c2           	bra.s 0xf822ec
  f8232a:	4dea 0004      	lea 4(a2),a6
  f8232e:	2f52 0030      	move.l (a2),48(sp)
  f82332:	42af 002c      	clr.l 44(sp)
  f82336:	60de           	bra.s 0xf82316
  f82338:	0802 0001      	btst #1,d2
  f8233c:	672e           	beq.s 0xf8236c
  f8233e:	2c4a           	movea.l a2,a6
  f82340:	2f5e 0038      	move.l (a6)+,56(sp)
  f82344:	2f5e 003c      	move.l (a6)+,60(sp)
  f82348:	2002           	move.l d2,d0
  f8234a:	0280 0000 0200 	andi.l #512,d0
  f82350:	0802 0009      	btst #9,d2
  f82354:	6702           	beq.s 0xf82358
  f82356:	2007           	move.l d7,d0
  f82358:	2f00           	move.l d0,-(sp)
  f8235a:	2f06           	move.l d6,-(sp)
  f8235c:	2f02           	move.l d2,-(sp)
  f8235e:	4878 000a      	pea 0xa
  f82362:	2f2f 004c      	move.l 76(sp),-(sp)
  f82366:	2f2f 004c      	move.l 76(sp),-(sp)
  f8236a:	6080           	bra.s 0xf822ec
  f8236c:	4dea 0004      	lea 4(a2),a6
  f82370:	2f52 003c      	move.l (a2),60(sp)
  f82374:	42af 0038      	clr.l 56(sp)
  f82378:	60ce           	bra.s 0xf82348
  f8237a:	7005           	moveq #5,d0
  f8237c:	8480           	or.l d0,d2
  f8237e:	0802 0001      	btst #1,d2
  f82382:	6726           	beq.s 0xf823aa
  f82384:	2c4a           	movea.l a2,a6
  f82386:	2f5e 0040      	move.l (a6)+,64(sp)
  f8238a:	2f5e 0044      	move.l (a6)+,68(sp)
  f8238e:	42a7           	clr.l -(sp)
  f82390:	2f06           	move.l d6,-(sp)
  f82392:	2f02           	move.l d2,-(sp)
  f82394:	4878 0010      	pea 0x10
  f82398:	2f2f 0054      	move.l 84(sp),-(sp)
  f8239c:	2f2f 0054      	move.l 84(sp),-(sp)
  f823a0:	6000 ff4a      	bra.w 0xf822ec
  f823a4:	0042 0100      	ori.w #256,d2
  f823a8:	60d4           	bra.s 0xf8237e
  f823aa:	4dea 0004      	lea 4(a2),a6
  f823ae:	2f52 0044      	move.l (a2),68(sp)
  f823b2:	42af 0040      	clr.l 64(sp)
  f823b6:	60d6           	bra.s 0xf8238e
  f823b8:	4e55 fff8      	link.w a5,#-8
  f823bc:	2f0a           	move.l a2,-(sp)
  f823be:	246d 0008      	movea.l 8(a5),a2
  f823c2:	2b4a fff8      	move.l a2,-8(a5)
  f823c6:	6734           	beq.s 0xf823fc
  f823c8:	202d 000c      	move.l 12(a5),d0
  f823cc:	41f2 08ff      	lea (-1,a2,d0.l),a0
  f823d0:	2b48 fffc      	move.l a0,-4(a5)
  f823d4:	2f2d 0014      	move.l 20(a5),-(sp)
  f823d8:	2f2d 0010      	move.l 16(a5),-(sp)
  f823dc:	486d fff8      	pea -8(a5)
  f823e0:	61ff ffff fba2 	bsr.l 0xf81f84
  f823e6:	4fef 000c      	lea 12(sp),sp
  f823ea:	4a8a           	tst.l a2
  f823ec:	6706           	beq.s 0xf823f4
  f823ee:	206d fff8      	movea.l -8(a5),a0
  f823f2:	4210           	clr.b (a0)
  f823f4:	246d fff4      	movea.l -12(a5),a2
  f823f8:	4e5d           	unlk a5
  f823fa:	4e75           	rts
  f823fc:	41f8 0000      	lea 0x0,a0
  f82400:	60ce           	bra.s 0xf823d0
  f82402:	4e55 0000      	link.w a5,#0
  f82406:	486d 0014      	pea 20(a5)
  f8240a:	2f2d 0010      	move.l 16(a5),-(sp)
  f8240e:	2f2d 000c      	move.l 12(a5),-(sp)
  f82412:	2f2d 0008      	move.l 8(a5),-(sp)
  f82416:	61ff ffff ffa0 	bsr.l 0xf823b8
  f8241c:	4fef 0010      	lea 16(sp),sp
  f82420:	4e5d           	unlk a5
  f82422:	4e75           	rts
  f82424:	4e55 0000      	link.w a5,#0
  f82428:	486d 0010      	pea 16(a5)
  f8242c:	2f2d 000c      	move.l 12(a5),-(sp)
  f82430:	4878 0050      	pea 0x50
  f82434:	2f2d 0008      	move.l 8(a5),-(sp)
  f82438:	61ff ffff ff7e 	bsr.l 0xf823b8
  f8243e:	4fef 0010      	lea 16(sp),sp
  f82442:	4e5d           	unlk a5
  f82444:	4e75           	rts
  f82446:	2f2f 0008      	move.l 8(sp),-(sp)
  f8244a:	2f2f 0008      	move.l 8(sp),-(sp)
  f8244e:	42a7           	clr.l -(sp)
  f82450:	61ff ffff fb32 	bsr.l 0xf81f84
  f82456:	4fef 000c      	lea 12(sp),sp
  f8245a:	4e75           	rts
  f8245c:	4e55 0000      	link.w a5,#0
  f82460:	486d 000c      	pea 12(a5)
  f82464:	2f2d 0008      	move.l 8(a5),-(sp)
  f82468:	61ff ffff ffdc 	bsr.l 0xf82446
  f8246e:	508f           	addq.l #8,sp
  f82470:	4e5d           	unlk a5
  f82472:	4e75           	rts
  f82474:	4e55 0000      	link.w a5,#0
  f82478:	486d 000c      	pea 12(a5)
  f8247c:	2f2d 0008      	move.l 8(a5),-(sp)
  f82480:	61ff ffff ffc4 	bsr.l 0xf82446
  f82486:	4878 000a      	pea 0xa
  f8248a:	61ff 0000 1908 	bsr.l 0xf83d94
  f82490:	4fef 000c      	lea 12(sp),sp
  f82494:	4e5d           	unlk a5
  f82496:	4e75           	rts
  f82498:	4e55 0000      	link.w a5,#0
  f8249c:	486d 0010      	pea 16(a5)
  f824a0:	2f2d 000c      	move.l 12(a5),-(sp)
  f824a4:	61ff ffff ffa0 	bsr.l 0xf82446
  f824aa:	4878 000a      	pea 0xa
  f824ae:	61ff 0000 18e4 	bsr.l 0xf83d94
  f824b4:	61ff 0000 0006 	bsr.l 0xf824bc
  f824ba:	0000 13fc      	ori.b #-4,d0
  f824be:	007f           	.short 0x007f
  f824c0:	00bf           	.short 0x00bf
  f824c2:	ed01           	asl.b #6,d1
  f824c4:	33fc 7fff 00df 	move.w #32767,0xdff09a
  f824ca:	f09a 
  f824cc:	207c 00df f09c 	movea.l #14676124,a0
  f824d2:	30bc 7fff      	move.w #32767,(a0)
  f824d6:	30bc 7fff      	move.w #32767,(a0)
  f824da:	33fc 7fff 00df 	move.w #32767,0xdff096
  f824e0:	f096 
  f824e2:	207c 00de 0002 	movea.l #14548994,a0
  f824e8:	1010           	move.b (a0),d0
  f824ea:	0000 0080      	ori.b #-128,d0
  f824ee:	1080           	move.b d0,(a0)
  f824f0:	4e70           	reset
  f824f2:	4ef9 00f8 0010 	jmp 0xf80010
  f824f8:	4e71           	nop
  f824fa:	4e75           	rts
  f824fc:	222f 0004      	move.l 4(sp),d1
  f82500:	206f 0008      	movea.l 8(sp),a0
  f82504:	70ff           	moveq #-1,d0
  f82506:	b081           	cmp.l d1,d0
  f82508:	6744           	beq.s 0xf8254e
  f8250a:	3028 0008      	move.w 8(a0),d0
  f8250e:	44c0           	move.w d0,ccr
  f82510:	6718           	beq.s 0xf8252a
  f82512:	0800 0004      	btst #4,d0
  f82516:	6736           	beq.s 0xf8254e
  f82518:	44c0           	move.w d0,ccr
  f8251a:	6a08           	bpl.s 0xf82524
  f8251c:	0240 fff7      	andi.w #-9,d0
  f82520:	3140 0008      	move.w d0,8(a0)
  f82524:	0068 0004 0008 	ori.w #4,8(a0)
  f8252a:	0268 ffdf 0008 	andi.w #-33,8(a0)
  f82530:	2268 000a      	movea.l 10(a0),a1
  f82534:	4a89           	tst.l a1
  f82536:	6718           	beq.s 0xf82550
  f82538:	2010           	move.l (a0),d0
  f8253a:	b089           	cmp.l a1,d0
  f8253c:	6312           	bls.s 0xf82550
  f8253e:	2240           	movea.l d0,a1
  f82540:	b229 ffff      	cmp.b -1(a1),d1
  f82544:	660a           	bne.s 0xf82550
  f82546:	5380           	subq.l #1,d0
  f82548:	2080           	move.l d0,(a0)
  f8254a:	52a8 0004      	addq.l #1,4(a0)
  f8254e:	4e75           	rts
  f82550:	43e8 0012      	lea 18(a0),a1
  f82554:	2149 000a      	move.l a1,10(a0)
  f82558:	7003           	moveq #3,d0
  f8255a:	2140 000e      	move.l d0,14(a0)
  f8255e:	1141 0014      	move.b d1,20(a0)
  f82562:	43e8 0014      	lea 20(a0),a1
  f82566:	2089           	move.l a1,(a0)
  f82568:	7001           	moveq #1,d0
  f8256a:	2140 0004      	move.l d0,4(a0)
  f8256e:	60de           	bra.s 0xf8254e
  f82570:	6d62           	blt.s 0xf825d4
  f82572:	7274           	moveq #116,d1
  f82574:	6f77           	ble.s 0xf825ed
  f82576:	6320           	bls.s 0xf82598
  f82578:	2570 0a00 4e55 	move.l (0,a0,d0.l*2),20053(a2)
  f8257e:	fcdc           	.short 0xfcdc
  f82580:	48e7 3f3a      	movem.l d2-d7/a2-a4/a6,-(sp)
  f82584:	246d 0008      	movea.l 8(a5),a2
  f82588:	266d 0010      	movea.l 16(a5),a3
  f8258c:	4285           	clr.l d5
  f8258e:	4284           	clr.l d4
  f82590:	42ad fce2      	clr.l -798(a5)
  f82594:	4286           	clr.l d6
  f82596:	2b6d 000c fcde 	move.l 12(a5),-802(a5)
  f8259c:	206d fcde      	movea.l -802(a5),a0
  f825a0:	52ad fcde      	addq.l #1,-802(a5)
  f825a4:	1218           	move.b (a0)+,d1
  f825a6:	4280           	clr.l d0
  f825a8:	1001           	move.b d1,d0
  f825aa:	6778           	beq.s 0xf82624
  f825ac:	7420           	moveq #32,d2
  f825ae:	b480           	cmp.l d0,d2
  f825b0:	6706           	beq.s 0xf825b8
  f825b2:	7e09           	moveq #9,d7
  f825b4:	be80           	cmp.l d0,d7
  f825b6:	662c           	bne.s 0xf825e4
  f825b8:	222a 0004      	move.l 4(a2),d1
  f825bc:	6f10           	ble.s 0xf825ce
  f825be:	2052           	movea.l (a2),a0
  f825c0:	1010           	move.b (a0),d0
  f825c2:	0c00 0020      	cmpi.b #32,d0
  f825c6:	670e           	beq.s 0xf825d6
  f825c8:	0c00 0009      	cmpi.b #9,d0
  f825cc:	6708           	beq.s 0xf825d6
  f825ce:	2b6d fcde 000c 	move.l -802(a5),12(a5)
  f825d4:	60c0           	bra.s 0xf82596
  f825d6:	5284           	addq.l #1,d4
  f825d8:	5381           	subq.l #1,d1
  f825da:	2541 0004      	move.l d1,4(a2)
  f825de:	5288           	addq.l #1,a0
  f825e0:	2488           	move.l a0,(a2)
  f825e2:	60d4           	bra.s 0xf825b8
  f825e4:	7425           	moveq #37,d2
  f825e6:	b480           	cmp.l d0,d2
  f825e8:	6600 011e      	bne.w 0xf82708
  f825ec:	2c6d fcde      	movea.l -802(a5),a6
  f825f0:	4282           	clr.l d2
  f825f2:	4283           	clr.l d3
  f825f4:	206d fcde      	movea.l -802(a5),a0
  f825f8:	52ad fcde      	addq.l #1,-802(a5)
  f825fc:	1018           	move.b (a0)+,d0
  f825fe:	0c00 007a      	cmpi.b #122,d0
  f82602:	6220           	bhi.s 0xf82624
  f82604:	0c00 0042      	cmpi.b #66,d0
  f82608:	6226           	bhi.s 0xf82630
  f8260a:	0c00 002a      	cmpi.b #42,d0
  f8260e:	6700 011a      	beq.w 0xf8272a
  f82612:	6200 00ae      	bhi.w 0xf826c2
  f82616:	4a00           	tst.b d0
  f82618:	6700 03d6      	beq.w 0xf829f0
  f8261c:	0c00 0025      	cmpi.b #37,d0
  f82620:	6700 00d0      	beq.w 0xf826f2
  f82624:	2006           	move.l d6,d0
  f82626:	4ced 5cfc fcb4 	movem.l -844(a5),d2-d7/a2-a4/a6
  f8262c:	4e5d           	unlk a5
  f8262e:	4e75           	rts
  f82630:	0600 00bd      	addi.b #-67,d0
  f82634:	0c00 0037      	cmpi.b #55,d0
  f82638:	62ea           	bhi.s 0xf82624
  f8263a:	0280 0000 00ff 	andi.l #255,d0
  f82640:	d080           	add.l d0,d0
  f82642:	303b 0806      	move.w (0xf8264a,pc,d0.l),d0
  f82646:	4efb 0002      	jmp (0xf8264a,pc,d0.w)
  f8264a:	02dc           	.short 0x02dc
  f8264c:	ffda           	.short 0xffda
  f8264e:	ffda           	.short 0xffda
  f82650:	ffda           	.short 0xffda
  f82652:	ffda           	.short 0xffda
  f82654:	ffda           	.short 0xffda
  f82656:	ffda           	.short 0xffda
  f82658:	ffda           	.short 0xffda
  f8265a:	ffda           	.short 0xffda
  f8265c:	0112           	btst d0,(a2)
  f8265e:	ffda           	.short 0xffda
  f82660:	ffda           	.short 0xffda
  f82662:	ffda           	.short 0xffda
  f82664:	ffda           	.short 0xffda
  f82666:	ffda           	.short 0xffda
  f82668:	ffda           	.short 0xffda
  f8266a:	0148 ffda      	movep.l -38(a0),d0
  f8266e:	ffda           	.short 0xffda
  f82670:	ffda           	.short 0xffda
  f82672:	ffda           	.short 0xffda
  f82674:	013e           	.short 0x013e
  f82676:	ffda           	.short 0xffda
  f82678:	ffda           	.short 0xffda
  f8267a:	0150           	bchg d0,(a0)
  f8267c:	ffda           	.short 0xffda
  f8267e:	ffda           	.short 0xffda
  f82680:	ffda           	.short 0xffda
  f82682:	ffda           	.short 0xffda
  f82684:	ffda           	.short 0xffda
  f82686:	ffda           	.short 0xffda
  f82688:	ffda           	.short 0xffda
  f8268a:	02e0           	.short 0x02e0
  f8268c:	0138 ffda      	btst d0,0xffffffda
  f82690:	ffda           	.short 0xffda
  f82692:	ffda           	.short 0xffda
  f82694:	0118           	btst d0,(a0)+
  f82696:	0070 00e6 ffda 	ori.w #230,([0],242)
  f8269c:	00f2 
  f8269e:	ffda           	.short 0xffda
  f826a0:	02f2           	.short 0x02f2
  f826a2:	012a 02ea      	btst d0,746(a2)
  f826a6:	00fc           	.short 0x00fc
  f826a8:	ffda           	.short 0xffda
  f826aa:	014c 0106      	movep.l 262(a4),d0
  f826ae:	0134 ffda ffda 	btst d0,([0],-38)
  f826b4:	013e           	.short 0x013e
  f826b6:	ffda           	.short 0xffda
  f826b8:	010c 4285      	movep.w 17029(a4),d0
  f826bc:	7003           	moveq #3,d0
  f826be:	6000 0118      	bra.w 0xf827d8
  f826c2:	1e00           	move.b d0,d7
  f826c4:	0607 00d0      	addi.b #-48,d7
  f826c8:	0c07 0009      	cmpi.b #9,d7
  f826cc:	6200 ff56      	bhi.w 0xf82624
  f826d0:	7e0a           	moveq #10,d7
  f826d2:	4c07 3800      	muls.l d7,d3
  f826d6:	0280 0000 00ff 	andi.l #255,d0
  f826dc:	2043           	movea.l d3,a0
  f826de:	41f0 08d0      	lea (-48,a0,d0.l),a0
  f826e2:	2608           	move.l a0,d3
  f826e4:	604e           	bra.s 0xf82734
  f826e6:	5284           	addq.l #1,d4
  f826e8:	5382           	subq.l #1,d2
  f826ea:	2542 0004      	move.l d2,4(a2)
  f826ee:	5288           	addq.l #1,a0
  f826f0:	2488           	move.l a0,(a2)
  f826f2:	242a 0004      	move.l 4(a2),d2
  f826f6:	6f10           	ble.s 0xf82708
  f826f8:	2052           	movea.l (a2),a0
  f826fa:	1010           	move.b (a0),d0
  f826fc:	0c00 0020      	cmpi.b #32,d0
  f82700:	67e4           	beq.s 0xf826e6
  f82702:	0c00 0009      	cmpi.b #9,d0
  f82706:	67de           	beq.s 0xf826e6
  f82708:	242a 0004      	move.l 4(a2),d2
  f8270c:	6f00 02da      	ble.w 0xf829e8
  f82710:	2012           	move.l (a2),d0
  f82712:	2240           	movea.l d0,a1
  f82714:	b211           	cmp.b (a1),d1
  f82716:	6600 ff0c      	bne.w 0xf82624
  f8271a:	5382           	subq.l #1,d2
  f8271c:	2542 0004      	move.l d2,4(a2)
  f82720:	5280           	addq.l #1,d0
  f82722:	2480           	move.l d0,(a2)
  f82724:	5284           	addq.l #1,d4
  f82726:	6000 fea6      	bra.w 0xf825ce
  f8272a:	7008           	moveq #8,d0
  f8272c:	8480           	or.l d0,d2
  f8272e:	6004           	bra.s 0xf82734
  f82730:	0042 0800      	ori.w #2048,d2
  f82734:	2c6d fcde      	movea.l -802(a5),a6
  f82738:	6000 feba      	bra.w 0xf825f4
  f8273c:	0802 0000      	btst #0,d2
  f82740:	670a           	beq.s 0xf8274c
  f82742:	7efe           	moveq #-2,d7
  f82744:	c487           	and.l d7,d2
  f82746:	0042 0400      	ori.w #1024,d2
  f8274a:	60e8           	bra.s 0xf82734
  f8274c:	7001           	moveq #1,d0
  f8274e:	60dc           	bra.s 0xf8272c
  f82750:	0042 1000      	ori.w #4096,d2
  f82754:	60de           	bra.s 0xf82734
  f82756:	0042 2000      	ori.w #8192,d2
  f8275a:	60d8           	bra.s 0xf82734
  f8275c:	7e02           	moveq #2,d7
  f8275e:	8487           	or.l d7,d2
  f82760:	60d2           	bra.s 0xf82734
  f82762:	44c2           	move.w d2,ccr
  f82764:	660a           	bne.s 0xf82770
  f82766:	70fb           	moveq #-5,d0
  f82768:	c480           	and.l d0,d2
  f8276a:	0042 4000      	ori.w #16384,d2
  f8276e:	60c4           	bra.s 0xf82734
  f82770:	7e04           	moveq #4,d7
  f82772:	60ea           	bra.s 0xf8275e
  f82774:	0042 8000      	ori.w #-32768,d2
  f82778:	7a08           	moveq #8,d5
  f8277a:	6000 ff40      	bra.w 0xf826bc
  f8277e:	0042 8000      	ori.w #-32768,d2
  f82782:	7a0a           	moveq #10,d5
  f82784:	6000 ff36      	bra.w 0xf826bc
  f82788:	0042 8100      	ori.w #-32512,d2
  f8278c:	7a10           	moveq #16,d5
  f8278e:	6000 ff2c      	bra.w 0xf826bc
  f82792:	7001           	moveq #1,d0
  f82794:	8480           	or.l d0,d2
  f82796:	7002           	moveq #2,d0
  f82798:	603e           	bra.s 0xf827d8
  f8279a:	206d fcde      	movea.l -802(a5),a0
  f8279e:	4287           	clr.l d7
  f827a0:	1e10           	move.b (a0),d7
  f827a2:	705e           	moveq #94,d0
  f827a4:	b087           	cmp.l d7,d0
  f827a6:	6700 00ea      	beq.w 0xf82892
  f827aa:	548e           	addq.l #2,a6
  f827ac:	42ad fce6      	clr.l -794(a5)
  f827b0:	4878 0100      	pea 0x100
  f827b4:	2f2d fce6      	move.l -794(a5),-(sp)
  f827b8:	486d fcff      	pea -769(a5)
  f827bc:	61ff 0000 8936 	bsr.l 0xf8b0f4
  f827c2:	4fef 000c      	lea 12(sp),sp
  f827c6:	4a87           	tst.l d7
  f827c8:	6600 00de      	bne.w 0xf828a8
  f827cc:	538e           	subq.l #1,a6
  f827ce:	2b4e fcde      	move.l a6,-802(a5)
  f827d2:	7e20           	moveq #32,d7
  f827d4:	8487           	or.l d7,d2
  f827d6:	7001           	moveq #1,d0
  f827d8:	4aaa 0004      	tst.l 4(a2)
  f827dc:	6f00 020a      	ble.w 0xf829e8
  f827e0:	0802 0005      	btst #5,d2
  f827e4:	6614           	bne.s 0xf827fa
  f827e6:	2052           	movea.l (a2),a0
  f827e8:	1210           	move.b (a0),d1
  f827ea:	0c01 0020      	cmpi.b #32,d1
  f827ee:	6700 0192      	beq.w 0xf82982
  f827f2:	0c01 0009      	cmpi.b #9,d1
  f827f6:	6700 018a      	beq.w 0xf82982
  f827fa:	7e02           	moveq #2,d7
  f827fc:	be80           	cmp.l d0,d7
  f827fe:	6700 0382      	beq.w 0xf82b82
  f82802:	7203           	moveq #3,d1
  f82804:	b280           	cmp.l d0,d1
  f82806:	6700 0496      	beq.w 0xf82c9e
  f8280a:	7201           	moveq #1,d1
  f8280c:	c282           	and.l d2,d1
  f8280e:	7e08           	moveq #8,d7
  f82810:	c487           	and.l d7,d2
  f82812:	5380           	subq.l #1,d0
  f82814:	6700 0200      	beq.w 0xf82a16
  f82818:	4a83           	tst.l d3
  f8281a:	6602           	bne.s 0xf8281e
  f8281c:	7601           	moveq #1,d3
  f8281e:	4a81           	tst.l d1
  f82820:	6700 01b0      	beq.w 0xf829d2
  f82824:	4a82           	tst.l d2
  f82826:	6600 018e      	bne.w 0xf829b6
  f8282a:	2c5b           	movea.l (a3)+,a6
  f8282c:	4280           	clr.l d0
  f8282e:	41ed fcf6      	lea -778(a5),a0
  f82832:	2b48 fce6      	move.l a0,-794(a5)
  f82836:	43fa fd38      	lea 0xf82570(pc),a1
  f8283a:	2b49 fcea      	move.l a1,-790(a5)
  f8283e:	2252           	movea.l (a2),a1
  f82840:	2e00           	move.l d0,d7
  f82842:	5287           	addq.l #1,d7
  f82844:	1b91 0920 fdff 	move.b (a1),(-513,a5,d0.l)
  f8284a:	5289           	addq.l #1,a1
  f8284c:	2489           	move.l a1,(a2)
  f8284e:	53aa 0004      	subq.l #1,4(a2)
  f82852:	2b7a 0672 fcf6 	move.l 0xf82ec6(pc),-778(a5)
  f82858:	2b7a 0670 fcfa 	move.l 0xf82eca(pc),-774(a5)
  f8285e:	486d fcf6      	pea -778(a5)
  f82862:	2f2d fcea      	move.l -790(a5),-(sp)
  f82866:	61ff ffff fbf4 	bsr.l 0xf8245c
  f8286c:	508f           	addq.l #8,sp
  f8286e:	72ff           	moveq #-1,d1
  f82870:	b280           	cmp.l d0,d1
  f82872:	6700 0156      	beq.w 0xf829ca
  f82876:	4a80           	tst.l d0
  f82878:	6600 011e      	bne.w 0xf82998
  f8287c:	4a82           	tst.l d2
  f8287e:	6602           	bne.s 0xf82882
  f82880:	4296           	clr.l (a6)
  f82882:	d887           	add.l d7,d4
  f82884:	5383           	subq.l #1,d3
  f82886:	4a82           	tst.l d2
  f82888:	6602           	bne.s 0xf8288c
  f8288a:	588e           	addq.l #4,a6
  f8288c:	4280           	clr.l d0
  f8288e:	6000 0110      	bra.w 0xf829a0
  f82892:	568e           	addq.l #3,a6
  f82894:	206d fcde      	movea.l -802(a5),a0
  f82898:	4287           	clr.l d7
  f8289a:	1e28 0001      	move.b 1(a0),d7
  f8289e:	7201           	moveq #1,d1
  f828a0:	2b41 fce6      	move.l d1,-794(a5)
  f828a4:	6000 ff0a      	bra.w 0xf827b0
  f828a8:	202d fce6      	move.l -794(a5),d0
  f828ac:	0a40 0001      	eori.w #1,d0
  f828b0:	1b40 fce6      	move.b d0,-794(a5)
  f828b4:	1b80 7920 fcff 	move.b d0,(-769,a5,d7.l)
  f828ba:	2b4e fcde      	move.l a6,-802(a5)
  f828be:	2c6d fcde      	movea.l -802(a5),a6
  f828c2:	121e           	move.b (a6)+,d1
  f828c4:	0c01 002d      	cmpi.b #45,d1
  f828c8:	6718           	beq.s 0xf828e2
  f828ca:	0c01 005d      	cmpi.b #93,d1
  f828ce:	6700 fefe      	beq.w 0xf827ce
  f828d2:	4a01           	tst.b d1
  f828d4:	6700 fefc      	beq.w 0xf827d2
  f828d8:	4287           	clr.l d7
  f828da:	1e01           	move.b d1,d7
  f828dc:	60d6           	bra.s 0xf828b4
  f828de:	7e2d           	moveq #45,d7
  f828e0:	60d2           	bra.s 0xf828b4
  f828e2:	226d fcde      	movea.l -802(a5),a1
  f828e6:	4281           	clr.l d1
  f828e8:	1229 0001      	move.b 1(a1),d1
  f828ec:	2041           	movea.l d1,a0
  f828ee:	725d           	moveq #93,d1
  f828f0:	b288           	cmp.l a0,d1
  f828f2:	67ea           	beq.s 0xf828de
  f828f4:	be88           	cmp.l a0,d7
  f828f6:	6ee6           	bgt.s 0xf828de
  f828f8:	54ad fcde      	addq.l #2,-802(a5)
  f828fc:	4281           	clr.l d1
  f828fe:	4ded fcff      	lea -769(a5),a6
  f82902:	2247           	movea.l d7,a1
  f82904:	93c1           	suba.l d1,a1
  f82906:	4a89           	tst.l a1
  f82908:	6c0e           	bge.s 0xf82918
  f8290a:	2241           	movea.l d1,a1
  f8290c:	93c8           	suba.l a0,a1
  f8290e:	4a89           	tst.l a1
  f82910:	6e06           	bgt.s 0xf82918
  f82912:	1dad fce6 1800 	move.b -794(a5),(0,a6,d1.l)
  f82918:	5281           	addq.l #1,d1
  f8291a:	0c81 0000 0100 	cmpi.l #256,d1
  f82920:	66e0           	bne.s 0xf82902
  f82922:	2e08           	move.l a0,d7
  f82924:	6098           	bra.s 0xf828be
  f82926:	7001           	moveq #1,d0
  f82928:	8480           	or.l d0,d2
  f8292a:	7220           	moveq #32,d1
  f8292c:	8481           	or.l d1,d2
  f8292e:	4280           	clr.l d0
  f82930:	6000 fea6      	bra.w 0xf827d8
  f82934:	0042 8110      	ori.w #-32496,d2
  f82938:	6000 fe52      	bra.w 0xf8278c
  f8293c:	52ad fce2      	addq.l #1,-798(a5)
  f82940:	44c2           	move.w d2,ccr
  f82942:	6b00 fc8a      	bmi.w 0xf825ce
  f82946:	205b           	movea.l (a3)+,a0
  f82948:	0802 000e      	btst #14,d2
  f8294c:	6706           	beq.s 0xf82954
  f8294e:	1084           	move.b d4,(a0)
  f82950:	6000 fc7c      	bra.w 0xf825ce
  f82954:	44c2           	move.w d2,ccr
  f82956:	6606           	bne.s 0xf8295e
  f82958:	3084           	move.w d4,(a0)
  f8295a:	6000 fc72      	bra.w 0xf825ce
  f8295e:	0802 0000      	btst #0,d2
  f82962:	6706           	beq.s 0xf8296a
  f82964:	2084           	move.l d4,(a0)
  f82966:	6000 fc66      	bra.w 0xf825ce
  f8296a:	0802 000a      	btst #10,d2
  f8296e:	670a           	beq.s 0xf8297a
  f82970:	2144 0004      	move.l d4,4(a0)
  f82974:	4290           	clr.l (a0)
  f82976:	6000 fc56      	bra.w 0xf825ce
  f8297a:	0802 000b      	btst #11,d2
  f8297e:	67e4           	beq.s 0xf82964
  f82980:	60ee           	bra.s 0xf82970
  f82982:	5284           	addq.l #1,d4
  f82984:	222a 0004      	move.l 4(a2),d1
  f82988:	5381           	subq.l #1,d1
  f8298a:	2541 0004      	move.l d1,4(a2)
  f8298e:	6f58           	ble.s 0xf829e8
  f82990:	5288           	addq.l #1,a0
  f82992:	2488           	move.l a0,(a2)
  f82994:	6000 fe50      	bra.w 0xf827e6
  f82998:	5480           	addq.l #2,d0
  f8299a:	6600 fee6      	bne.w 0xf82882
  f8299e:	2007           	move.l d7,d0
  f829a0:	4aaa 0004      	tst.l 4(a2)
  f829a4:	6e18           	bgt.s 0xf829be
  f829a6:	4a80           	tst.l d0
  f829a8:	6620           	bne.s 0xf829ca
  f829aa:	4a82           	tst.l d2
  f829ac:	6600 01b2      	bne.w 0xf82b60
  f829b0:	5286           	addq.l #1,d6
  f829b2:	6000 01ac      	bra.w 0xf82b60
  f829b6:	4df8 0000      	lea 0x0,a6
  f829ba:	6000 fe70      	bra.w 0xf8282c
  f829be:	4a83           	tst.l d3
  f829c0:	67e8           	beq.s 0xf829aa
  f829c2:	7201           	moveq #1,d1
  f829c4:	b280           	cmp.l d0,d1
  f829c6:	6600 fe76      	bne.w 0xf8283e
  f829ca:	006a 0040 0008 	ori.w #64,8(a2)
  f829d0:	6016           	bra.s 0xf829e8
  f829d2:	2052           	movea.l (a2),a0
  f829d4:	4a82           	tst.l d2
  f829d6:	6730           	beq.s 0xf82a08
  f829d8:	202a 0004      	move.l 4(a2),d0
  f829dc:	b083           	cmp.l d3,d0
  f829de:	6416           	bcc.s 0xf829f6
  f829e0:	d1c0           	adda.l d0,a0
  f829e2:	2488           	move.l a0,(a2)
  f829e4:	4a80           	tst.l d0
  f829e6:	661a           	bne.s 0xf82a02
  f829e8:	4aad fce2      	tst.l -798(a5)
  f829ec:	6600 fc36      	bne.w 0xf82624
  f829f0:	7cff           	moveq #-1,d6
  f829f2:	6000 fc30      	bra.w 0xf82624
  f829f6:	9083           	sub.l d3,d0
  f829f8:	2540 0004      	move.l d0,4(a2)
  f829fc:	d1c3           	adda.l d3,a0
  f829fe:	2488           	move.l a0,(a2)
  f82a00:	2003           	move.l d3,d0
  f82a02:	d880           	add.l d0,d4
  f82a04:	6000 015a      	bra.w 0xf82b60
  f82a08:	225b           	movea.l (a3)+,a1
  f82a0a:	1290           	move.b (a0),(a1)
  f82a0c:	5292           	addq.l #1,(a2)
  f82a0e:	53aa 0004      	subq.l #1,4(a2)
  f82a12:	5284           	addq.l #1,d4
  f82a14:	609a           	bra.s 0xf829b0
  f82a16:	4a83           	tst.l d3
  f82a18:	6602           	bne.s 0xf82a1c
  f82a1a:	76ff           	moveq #-1,d3
  f82a1c:	4a81           	tst.l d1
  f82a1e:	6700 00e4      	beq.w 0xf82b04
  f82a22:	4a82           	tst.l d2
  f82a24:	665c           	bne.s 0xf82a82
  f82a26:	2c5b           	movea.l (a3)+,a6
  f82a28:	42ad fce6      	clr.l -794(a5)
  f82a2c:	4280           	clr.l d0
  f82a2e:	43ed fcf6      	lea -778(a5),a1
  f82a32:	2b49 fcea      	move.l a1,-790(a5)
  f82a36:	41fa fb38      	lea 0xf82570(pc),a0
  f82a3a:	2b48 fcee      	move.l a0,-786(a5)
  f82a3e:	6054           	bra.s 0xf82a94
  f82a40:	5480           	addq.l #2,d0
  f82a42:	6600 0090      	bne.w 0xf82ad4
  f82a46:	2007           	move.l d7,d0
  f82a48:	602a           	bra.s 0xf82a74
  f82a4a:	5387           	subq.l #1,d7
  f82a4c:	2f0a           	move.l a2,-(sp)
  f82a4e:	2043           	movea.l d3,a0
  f82a50:	1030 7800      	move.b (0,a0,d7.l),d0
  f82a54:	49c0           	extb.l d0
  f82a56:	2f00           	move.l d0,-(sp)
  f82a58:	61ff ffff faa2 	bsr.l 0xf824fc
  f82a5e:	508f           	addq.l #8,sp
  f82a60:	6000 008a      	bra.w 0xf82aec
  f82a64:	d887           	add.l d7,d4
  f82a66:	5383           	subq.l #1,d3
  f82a68:	4a82           	tst.l d2
  f82a6a:	6602           	bne.s 0xf82a6e
  f82a6c:	588e           	addq.l #4,a6
  f82a6e:	52ad fce6      	addq.l #1,-794(a5)
  f82a72:	4280           	clr.l d0
  f82a74:	4aaa 0004      	tst.l 4(a2)
  f82a78:	6e0e           	bgt.s 0xf82a88
  f82a7a:	4a80           	tst.l d0
  f82a7c:	6774           	beq.s 0xf82af2
  f82a7e:	6000 ff4a      	bra.w 0xf829ca
  f82a82:	4ded fcf2      	lea -782(a5),a6
  f82a86:	60a0           	bra.s 0xf82a28
  f82a88:	4a83           	tst.l d3
  f82a8a:	67ee           	beq.s 0xf82a7a
  f82a8c:	7201           	moveq #1,d1
  f82a8e:	b280           	cmp.l d0,d1
  f82a90:	6700 ff38      	beq.w 0xf829ca
  f82a94:	2052           	movea.l (a2),a0
  f82a96:	2e00           	move.l d0,d7
  f82a98:	5287           	addq.l #1,d7
  f82a9a:	1b90 0920 fdff 	move.b (a0),(-513,a5,d0.l)
  f82aa0:	5288           	addq.l #1,a0
  f82aa2:	2488           	move.l a0,(a2)
  f82aa4:	53aa 0004      	subq.l #1,4(a2)
  f82aa8:	2b7a 041c fcf6 	move.l 0xf82ec6(pc),-778(a5)
  f82aae:	2b7a 041a fcfa 	move.l 0xf82eca(pc),-774(a5)
  f82ab4:	486d fcf6      	pea -778(a5)
  f82ab8:	2f2d fcee      	move.l -786(a5),-(sp)
  f82abc:	61ff ffff f99e 	bsr.l 0xf8245c
  f82ac2:	508f           	addq.l #8,sp
  f82ac4:	72ff           	moveq #-1,d1
  f82ac6:	b280           	cmp.l d0,d1
  f82ac8:	6700 ff00      	beq.w 0xf829ca
  f82acc:	4a80           	tst.l d0
  f82ace:	6600 ff70      	bne.w 0xf82a40
  f82ad2:	4296           	clr.l (a6)
  f82ad4:	2016           	move.l (a6),d0
  f82ad6:	72ff           	moveq #-1,d1
  f82ad8:	b280           	cmp.l d0,d1
  f82ada:	6788           	beq.s 0xf82a64
  f82adc:	4a35 0920 fcff 	tst.b (-769,a5,d0.l)
  f82ae2:	6680           	bne.s 0xf82a64
  f82ae4:	260d           	move.l a5,d3
  f82ae6:	0683 ffff fdff 	addi.l #-513,d3
  f82aec:	4a87           	tst.l d7
  f82aee:	6600 ff5a      	bne.w 0xf82a4a
  f82af2:	2e2d fce6      	move.l -794(a5),d7
  f82af6:	6700 fb2c      	beq.w 0xf82624
  f82afa:	4a82           	tst.l d2
  f82afc:	6660           	bne.s 0xf82b5e
  f82afe:	4296           	clr.l (a6)
  f82b00:	5286           	addq.l #1,d6
  f82b02:	605a           	bra.s 0xf82b5e
  f82b04:	4a82           	tst.l d2
  f82b06:	6660           	bne.s 0xf82b68
  f82b08:	201b           	move.l (a3)+,d0
  f82b0a:	d680           	add.l d0,d3
  f82b0c:	2040           	movea.l d0,a0
  f82b0e:	2252           	movea.l (a2),a1
  f82b10:	4281           	clr.l d1
  f82b12:	1211           	move.b (a1),d1
  f82b14:	4a35 1920 fcff 	tst.b (-769,a5,d1.l)
  f82b1a:	671c           	beq.s 0xf82b38
  f82b1c:	53aa 0004      	subq.l #1,4(a2)
  f82b20:	4de9 0001      	lea 1(a1),a6
  f82b24:	248e           	move.l a6,(a2)
  f82b26:	10d1           	move.b (a1),(a0)+
  f82b28:	b1c3           	cmpa.l d3,a0
  f82b2a:	670c           	beq.s 0xf82b38
  f82b2c:	4aaa 0004      	tst.l 4(a2)
  f82b30:	6edc           	bgt.s 0xf82b0e
  f82b32:	b1c0           	cmpa.l d0,a0
  f82b34:	6700 feb2      	beq.w 0xf829e8
  f82b38:	2e08           	move.l a0,d7
  f82b3a:	9e80           	sub.l d0,d7
  f82b3c:	b088           	cmp.l a0,d0
  f82b3e:	6700 fae4      	beq.w 0xf82624
  f82b42:	4210           	clr.b (a0)
  f82b44:	60ba           	bra.s 0xf82b00
  f82b46:	5287           	addq.l #1,d7
  f82b48:	222a 0004      	move.l 4(a2),d1
  f82b4c:	5381           	subq.l #1,d1
  f82b4e:	2541 0004      	move.l d1,4(a2)
  f82b52:	5280           	addq.l #1,d0
  f82b54:	2480           	move.l d0,(a2)
  f82b56:	be83           	cmp.l d3,d7
  f82b58:	6704           	beq.s 0xf82b5e
  f82b5a:	4a81           	tst.l d1
  f82b5c:	6e0c           	bgt.s 0xf82b6a
  f82b5e:	d887           	add.l d7,d4
  f82b60:	52ad fce2      	addq.l #1,-798(a5)
  f82b64:	6000 fa68      	bra.w 0xf825ce
  f82b68:	4287           	clr.l d7
  f82b6a:	2012           	move.l (a2),d0
  f82b6c:	2240           	movea.l d0,a1
  f82b6e:	4281           	clr.l d1
  f82b70:	1211           	move.b (a1),d1
  f82b72:	4a35 1920 fcff 	tst.b (-769,a5,d1.l)
  f82b78:	66cc           	bne.s 0xf82b46
  f82b7a:	4a87           	tst.l d7
  f82b7c:	66e0           	bne.s 0xf82b5e
  f82b7e:	6000 faa4      	bra.w 0xf82624
  f82b82:	4a83           	tst.l d3
  f82b84:	6602           	bne.s 0xf82b88
  f82b86:	76ff           	moveq #-1,d3
  f82b88:	7e08           	moveq #8,d7
  f82b8a:	ce82           	and.l d2,d7
  f82b8c:	0802 0000      	btst #0,d2
  f82b90:	6700 009c      	beq.w 0xf82c2e
  f82b94:	4a87           	tst.l d7
  f82b96:	6600 0088      	bne.w 0xf82c20
  f82b9a:	2c5b           	movea.l (a3)+,a6
  f82b9c:	4280           	clr.l d0
  f82b9e:	2052           	movea.l (a2),a0
  f82ba0:	1210           	move.b (a0),d1
  f82ba2:	0c01 0020      	cmpi.b #32,d1
  f82ba6:	676c           	beq.s 0xf82c14
  f82ba8:	0c01 0009      	cmpi.b #9,d1
  f82bac:	6766           	beq.s 0xf82c14
  f82bae:	4a83           	tst.l d3
  f82bb0:	6762           	beq.s 0xf82c14
  f82bb2:	7401           	moveq #1,d2
  f82bb4:	b480           	cmp.l d0,d2
  f82bb6:	6700 fe12      	beq.w 0xf829ca
  f82bba:	2400           	move.l d0,d2
  f82bbc:	5282           	addq.l #1,d2
  f82bbe:	1b81 0920 fdff 	move.b d1,(-513,a5,d0.l)
  f82bc4:	5288           	addq.l #1,a0
  f82bc6:	2488           	move.l a0,(a2)
  f82bc8:	53aa 0004      	subq.l #1,4(a2)
  f82bcc:	2b7a 02f8 fcf6 	move.l 0xf82ec6(pc),-778(a5)
  f82bd2:	2b7a 02f6 fcfa 	move.l 0xf82eca(pc),-774(a5)
  f82bd8:	486d fcf6      	pea -778(a5)
  f82bdc:	487a f992      	pea 0xf82570(pc)
  f82be0:	61ff ffff f87a 	bsr.l 0xf8245c
  f82be6:	508f           	addq.l #8,sp
  f82be8:	72ff           	moveq #-1,d1
  f82bea:	b280           	cmp.l d0,d1
  f82bec:	6700 fddc      	beq.w 0xf829ca
  f82bf0:	4a80           	tst.l d0
  f82bf2:	6610           	bne.s 0xf82c04
  f82bf4:	4296           	clr.l (a6)
  f82bf6:	d882           	add.l d2,d4
  f82bf8:	5383           	subq.l #1,d3
  f82bfa:	4a87           	tst.l d7
  f82bfc:	6602           	bne.s 0xf82c00
  f82bfe:	588e           	addq.l #4,a6
  f82c00:	4282           	clr.l d2
  f82c02:	6004           	bra.s 0xf82c08
  f82c04:	5480           	addq.l #2,d0
  f82c06:	66ee           	bne.s 0xf82bf6
  f82c08:	4aaa 0004      	tst.l 4(a2)
  f82c0c:	6e1a           	bgt.s 0xf82c28
  f82c0e:	4a82           	tst.l d2
  f82c10:	6600 fdb8      	bne.w 0xf829ca
  f82c14:	4a87           	tst.l d7
  f82c16:	6600 ff48      	bne.w 0xf82b60
  f82c1a:	4296           	clr.l (a6)
  f82c1c:	6000 fd92      	bra.w 0xf829b0
  f82c20:	4ded fcf2      	lea -782(a5),a6
  f82c24:	6000 ff76      	bra.w 0xf82b9c
  f82c28:	2002           	move.l d2,d0
  f82c2a:	6000 ff72      	bra.w 0xf82b9e
  f82c2e:	4a87           	tst.l d7
  f82c30:	6668           	bne.s 0xf82c9a
  f82c32:	201b           	move.l (a3)+,d0
  f82c34:	d680           	add.l d0,d3
  f82c36:	2040           	movea.l d0,a0
  f82c38:	2252           	movea.l (a2),a1
  f82c3a:	1211           	move.b (a1),d1
  f82c3c:	0c01 0020      	cmpi.b #32,d1
  f82c40:	671c           	beq.s 0xf82c5e
  f82c42:	0c01 0009      	cmpi.b #9,d1
  f82c46:	6716           	beq.s 0xf82c5e
  f82c48:	53aa 0004      	subq.l #1,4(a2)
  f82c4c:	4de9 0001      	lea 1(a1),a6
  f82c50:	248e           	move.l a6,(a2)
  f82c52:	10d1           	move.b (a1),(a0)+
  f82c54:	b1c3           	cmpa.l d3,a0
  f82c56:	6706           	beq.s 0xf82c5e
  f82c58:	4aaa 0004      	tst.l 4(a2)
  f82c5c:	6eda           	bgt.s 0xf82c38
  f82c5e:	4210           	clr.b (a0)
  f82c60:	91c0           	suba.l d0,a0
  f82c62:	d888           	add.l a0,d4
  f82c64:	6000 fd4a      	bra.w 0xf829b0
  f82c68:	5280           	addq.l #1,d0
  f82c6a:	222a 0004      	move.l 4(a2),d1
  f82c6e:	5381           	subq.l #1,d1
  f82c70:	2541 0004      	move.l d1,4(a2)
  f82c74:	5288           	addq.l #1,a0
  f82c76:	2488           	move.l a0,(a2)
  f82c78:	b083           	cmp.l d3,d0
  f82c7a:	6700 fd86      	beq.w 0xf82a02
  f82c7e:	4a81           	tst.l d1
  f82c80:	6f00 fd80      	ble.w 0xf82a02
  f82c84:	2052           	movea.l (a2),a0
  f82c86:	1210           	move.b (a0),d1
  f82c88:	0c01 0020      	cmpi.b #32,d1
  f82c8c:	6700 fd74      	beq.w 0xf82a02
  f82c90:	0c01 0009      	cmpi.b #9,d1
  f82c94:	66d2           	bne.s 0xf82c68
  f82c96:	6000 fd6a      	bra.w 0xf82a02
  f82c9a:	4280           	clr.l d0
  f82c9c:	60e6           	bra.s 0xf82c84
  f82c9e:	5383           	subq.l #1,d3
  f82ca0:	0c83 0000 01ff 	cmpi.l #511,d3
  f82ca6:	6306           	bls.s 0xf82cae
  f82ca8:	263c 0000 01ff 	move.l #511,d3
  f82cae:	5283           	addq.l #1,d3
  f82cb0:	0042 02c0      	ori.w #704,d2
  f82cb4:	4ded fdff      	lea -513(a5),a6
  f82cb8:	2e0e           	move.l a6,d7
  f82cba:	41fa 002e      	lea 0xf82cea(pc),a0
  f82cbe:	2252           	movea.l (a2),a1
  f82cc0:	1011           	move.b (a1),d0
  f82cc2:	0c00 0039      	cmpi.b #57,d0
  f82cc6:	6240           	bhi.s 0xf82d08
  f82cc8:	0c00 002a      	cmpi.b #42,d0
  f82ccc:	6356           	bls.s 0xf82d24
  f82cce:	1200           	move.b d0,d1
  f82cd0:	0601 00d5      	addi.b #-43,d1
  f82cd4:	0c01 000e      	cmpi.b #14,d1
  f82cd8:	624a           	bhi.s 0xf82d24
  f82cda:	0281 0000 00ff 	andi.l #255,d1
  f82ce0:	d281           	add.l d1,d1
  f82ce2:	3230 1800      	move.w (0,a0,d1.l),d1
  f82ce6:	4efb 1002      	jmp (0xf82cea,pc,d1.w)
  f82cea:	00de           	.short 0x00de
  f82cec:	003a           	.short 0x003a
  f82cee:	00de           	.short 0x00de
  f82cf0:	003a           	.short 0x003a
  f82cf2:	003a           	.short 0x003a
  f82cf4:	0088           	.short 0x0088
  f82cf6:	00b6 00b6 00b6 	ori.l #11927734,(-74,a6,d0.w)
  f82cfc:	00b6 
  f82cfe:	00b6 00b6 00b6 	ori.l #11927734,(-58,a6,d0.w)
  f82d04:	00c6 
  f82d06:	00c6           	.short 0x00c6
  f82d08:	0c00 0066      	cmpi.b #102,d0
  f82d0c:	625c           	bhi.s 0xf82d6a
  f82d0e:	0c00 0060      	cmpi.b #96,d0
  f82d12:	6200 00b0      	bhi.w 0xf82dc4
  f82d16:	0c00 0046      	cmpi.b #70,d0
  f82d1a:	622a           	bhi.s 0xf82d46
  f82d1c:	0c00 0040      	cmpi.b #64,d0
  f82d20:	6200 00a2      	bhi.w 0xf82dc4
  f82d24:	4a02           	tst.b d2
  f82d26:	6a00 00b8      	bpl.w 0xf82de0
  f82d2a:	be8e           	cmp.l a6,d7
  f82d2c:	6400 f8f6      	bcc.w 0xf82624
  f82d30:	2f0a           	move.l a2,-(sp)
  f82d32:	4280           	clr.l d0
  f82d34:	102e ffff      	move.b -1(a6),d0
  f82d38:	2f00           	move.l d0,-(sp)
  f82d3a:	61ff ffff f7c0 	bsr.l 0xf824fc
  f82d40:	508f           	addq.l #8,sp
  f82d42:	6000 f8e0      	bra.w 0xf82624
  f82d46:	0c00 0058      	cmpi.b #88,d0
  f82d4a:	66d8           	bne.s 0xf82d24
  f82d4c:	0802 0008      	btst #8,d2
  f82d50:	67d2           	beq.s 0xf82d24
  f82d52:	0802 0010      	btst #16,d2
  f82d56:	6700 0082      	beq.w 0xf82dda
  f82d5a:	7202           	moveq #2,d1
  f82d5c:	d287           	add.l d7,d1
  f82d5e:	b28e           	cmp.l a6,d1
  f82d60:	66c2           	bne.s 0xf82d24
  f82d62:	0242 feff      	andi.w #-257,d2
  f82d66:	7a10           	moveq #16,d5
  f82d68:	601c           	bra.s 0xf82d86
  f82d6a:	0c00 0078      	cmpi.b #120,d0
  f82d6e:	67dc           	beq.s 0xf82d4c
  f82d70:	60b2           	bra.s 0xf82d24
  f82d72:	4a85           	tst.l d5
  f82d74:	6606           	bne.s 0xf82d7c
  f82d76:	0042 0100      	ori.w #256,d2
  f82d7a:	7a08           	moveq #8,d5
  f82d7c:	0802 0009      	btst #9,d2
  f82d80:	6728           	beq.s 0xf82daa
  f82d82:	0242 fd3f      	andi.w #-705,d2
  f82d86:	1cc0           	move.b d0,(a6)+
  f82d88:	202a 0004      	move.l 4(a2),d0
  f82d8c:	5380           	subq.l #1,d0
  f82d8e:	2540 0004      	move.l d0,4(a2)
  f82d92:	6f90           	ble.s 0xf82d24
  f82d94:	5289           	addq.l #1,a1
  f82d96:	2489           	move.l a1,(a2)
  f82d98:	5383           	subq.l #1,d3
  f82d9a:	6600 ff22      	bne.w 0xf82cbe
  f82d9e:	6084           	bra.s 0xf82d24
  f82da0:	1a30 59b0 00f8 	move.b (16264884,d5.l),d5
  f82da6:	2eb4 
  f82da8:	49c5           	extb.l d5
  f82daa:	0242 fe3f      	andi.w #-449,d2
  f82dae:	60d6           	bra.s 0xf82d86
  f82db0:	1a30 59b0 00f8 	move.b (16264884,d5.l),d5
  f82db6:	2eb4 
  f82db8:	49c5           	extb.l d5
  f82dba:	7208           	moveq #8,d1
  f82dbc:	b285           	cmp.l d5,d1
  f82dbe:	6dea           	blt.s 0xf82daa
  f82dc0:	6000 ff62      	bra.w 0xf82d24
  f82dc4:	720a           	moveq #10,d1
  f82dc6:	60f4           	bra.s 0xf82dbc
  f82dc8:	0802 0006      	btst #6,d2
  f82dcc:	6700 ff56      	beq.w 0xf82d24
  f82dd0:	72bf           	moveq #-65,d1
  f82dd2:	c481           	and.l d1,d2
  f82dd4:	08c2 0010      	bset #16,d2
  f82dd8:	60ac           	bra.s 0xf82d86
  f82dda:	7201           	moveq #1,d1
  f82ddc:	6000 ff7e      	bra.w 0xf82d5c
  f82de0:	102e ffff      	move.b -1(a6),d0
  f82de4:	1200           	move.b d0,d1
  f82de6:	0201 00df      	andi.b #-33,d1
  f82dea:	0c01 0058      	cmpi.b #88,d1
  f82dee:	6614           	bne.s 0xf82e04
  f82df0:	538e           	subq.l #1,a6
  f82df2:	2f0a           	move.l a2,-(sp)
  f82df4:	0280 0000 00ff 	andi.l #255,d0
  f82dfa:	2f00           	move.l d0,-(sp)
  f82dfc:	61ff ffff f6fe 	bsr.l 0xf824fc
  f82e02:	508f           	addq.l #8,sp
  f82e04:	44c2           	move.w d2,ccr
  f82e06:	6b3a           	bmi.s 0xf82e42
  f82e08:	4216           	clr.b (a6)
  f82e0a:	4a42           	tst.w d2
  f82e0c:	6b1c           	bmi.s 0xf82e2a
  f82e0e:	2f05           	move.l d5,-(sp)
  f82e10:	42a7           	clr.l -(sp)
  f82e12:	2f07           	move.l d7,-(sp)
  f82e14:	61ff 0000 1226 	bsr.l 0xf8403c
  f82e1a:	4fef 000c      	lea 12(sp),sp
  f82e1e:	205b           	movea.l (a3)+,a0
  f82e20:	0802 0004      	btst #4,d2
  f82e24:	6712           	beq.s 0xf82e38
  f82e26:	2081           	move.l d1,(a0)
  f82e28:	6016           	bra.s 0xf82e40
  f82e2a:	2f05           	move.l d5,-(sp)
  f82e2c:	42a7           	clr.l -(sp)
  f82e2e:	2f07           	move.l d7,-(sp)
  f82e30:	61ff 0000 13f6 	bsr.l 0xf84228
  f82e36:	60e2           	bra.s 0xf82e1a
  f82e38:	0802 000e      	btst #14,d2
  f82e3c:	670c           	beq.s 0xf82e4a
  f82e3e:	1081           	move.b d1,(a0)
  f82e40:	5286           	addq.l #1,d6
  f82e42:	9dc7           	suba.l d7,a6
  f82e44:	d88e           	add.l a6,d4
  f82e46:	6000 fd18      	bra.w 0xf82b60
  f82e4a:	44c2           	move.w d2,ccr
  f82e4c:	6604           	bne.s 0xf82e52
  f82e4e:	3081           	move.w d1,(a0)
  f82e50:	60ee           	bra.s 0xf82e40
  f82e52:	0802 0000      	btst #0,d2
  f82e56:	66ce           	bne.s 0xf82e26
  f82e58:	0802 000a      	btst #10,d2
  f82e5c:	6708           	beq.s 0xf82e66
  f82e5e:	2080           	move.l d0,(a0)
  f82e60:	2141 0004      	move.l d1,4(a0)
  f82e64:	60da           	bra.s 0xf82e40
  f82e66:	0802 000b      	btst #11,d2
  f82e6a:	67ba           	beq.s 0xf82e26
  f82e6c:	60f0           	bra.s 0xf82e5e
  f82e6e:	4e55 ffe8      	link.w a5,#-24
  f82e72:	202d 0008      	move.l 8(a5),d0
  f82e76:	42ad fffc      	clr.l -4(a5)
  f82e7a:	3b7c 0004 fff2 	move.w #4,-14(a5)
  f82e80:	2b40 ffea      	move.l d0,-22(a5)
  f82e84:	2f00           	move.l d0,-(sp)
  f82e86:	61ff 0000 836c 	bsr.l 0xf8b1f4
  f82e8c:	588f           	addq.l #4,sp
  f82e8e:	2b40 ffee      	move.l d0,-18(a5)
  f82e92:	2b40 fff8      	move.l d0,-8(a5)
  f82e96:	42ad fff4      	clr.l -12(a5)
  f82e9a:	486d 0010      	pea 16(a5)
  f82e9e:	2f2d 000c      	move.l 12(a5),-(sp)
  f82ea2:	486d ffea      	pea -22(a5)
  f82ea6:	61ff ffff f6d4 	bsr.l 0xf8257c
  f82eac:	4fef 000c      	lea 12(sp),sp
  f82eb0:	4e5d           	unlk a5
  f82eb2:	4e75           	rts
  f82eb4:	0a01 0203      	eori.b #3,d1
  f82eb8:	0405 0607      	subi.b #7,d5
  f82ebc:	0809           	.short 0x0809
  f82ebe:	0a0b           	.short 0x0a0b
  f82ec0:	0c0d           	.short 0x0c0d
  f82ec2:	0e0f           	.short 0x0e0f
  f82ec4:	1000           	move.b d0,d0
  f82ec6:	0000 0000      	ori.b #0,d0
  f82eca:	0000 0000      	ori.b #0,d0
  f82ece:	0000 207c      	ori.b #124,d0
  f82ed2:	00df           	.short 0x00df
  f82ed4:	f002 3010      	pflush #0,#0
  f82ed8:	0800 000e      	btst #14,d0
  f82edc:	6608           	bne.s 0xf82ee6
  f82ede:	3010           	move.w (a0),d0
  f82ee0:	0800 000e      	btst #14,d0
  f82ee4:	6708           	beq.s 0xf82eee
  f82ee6:	4e71           	nop
  f82ee8:	4e71           	nop
  f82eea:	4e71           	nop
  f82eec:	60e2           	bra.s 0xf82ed0
  f82eee:	4e75           	rts
  f82ef0:	48e7 3c36      	movem.l d2-d5/a2-a3/a5-a6,-(sp)
  f82ef4:	242f 0024      	move.l 36(sp),d2
  f82ef8:	4c3c 2800 0000 	muls.l #21120,d2
  f82efe:	5280 
  f82f00:	2442           	movea.l d2,a2
  f82f02:	d5fc 0002 0000 	adda.l #131072,a2
  f82f08:	61ff ffff ffc6 	bsr.l 0xf82ed0
  f82f0e:	2a3c 00df f040 	move.l #14676032,d5
  f82f14:	2045           	movea.l d5,a0
  f82f16:	30bc 09f0      	move.w #2544,(a0)
  f82f1a:	283c 00df f042 	move.l #14676034,d4
  f82f20:	2044           	movea.l d4,a0
  f82f22:	4250           	clr.w (a0)
  f82f24:	263c 00df f064 	move.l #14676068,d3
  f82f2a:	2043           	movea.l d3,a0
  f82f2c:	4250           	clr.w (a0)
  f82f2e:	2c7c 00df f066 	movea.l #14676070,a6
  f82f34:	4256           	clr.w (a6)
  f82f36:	2a7c 00df f054 	movea.l #14676052,a5
  f82f3c:	2a8a           	move.l a2,(a5)
  f82f3e:	2002           	move.l d2,d0
  f82f40:	0680 0002 0280 	addi.l #131712,d0
  f82f46:	267c 00df f050 	movea.l #14676048,a3
  f82f4c:	2680           	move.l d0,(a3)
  f82f4e:	247c 00df f058 	movea.l #14676056,a2
  f82f54:	34bc 25a8      	move.w #9640,(a2)
  f82f58:	61ff ffff ff76 	bsr.l 0xf82ed0
  f82f5e:	2045           	movea.l d5,a0
  f82f60:	30bc 09f0      	move.w #2544,(a0)
  f82f64:	2044           	movea.l d4,a0
  f82f66:	4250           	clr.w (a0)
  f82f68:	2043           	movea.l d3,a0
  f82f6a:	4250           	clr.w (a0)
  f82f6c:	4256           	clr.w (a6)
  f82f6e:	2002           	move.l d2,d0
  f82f70:	0680 0002 2ee0 	addi.l #143072,d0
  f82f76:	2a80           	move.l d0,(a5)
  f82f78:	0682 0002 3160 	addi.l #143712,d2
  f82f7e:	2682           	move.l d2,(a3)
  f82f80:	34bc 10a8      	move.w #4264,(a2)
  f82f84:	4cdf 6c3c      	movem.l (sp)+,d2-d5/a2-a3/a5-a6
  f82f88:	60ff ffff ff46 	bra.l 0xf82ed0
  f82f8e:	4fef ffe8      	lea -24(sp),sp
  f82f92:	48e7 3f3e      	movem.l d2-d7/a2-a6,-(sp)
  f82f96:	226f 0048      	movea.l 72(sp),a1
  f82f9a:	262f 0050      	move.l 80(sp),d3
  f82f9e:	222f 004c      	move.l 76(sp),d1
  f82fa2:	0c81 0000 0080 	cmpi.l #128,d1
  f82fa8:	6304           	bls.s 0xf82fae
  f82faa:	727f           	moveq #127,d1
  f82fac:	4601           	not.b d1
  f82fae:	4282           	clr.l d2
  f82fb0:	45f9 0001 0000 	lea 0x10000,a2
  f82fb6:	4bfa 04bc      	lea 0xf83474(pc),a5
  f82fba:	47f2 2800      	lea (0,a2,d2.l),a3
  f82fbe:	1031 2800      	move.b (0,a1,d2.l),d0
  f82fc2:	6726           	beq.s 0xf82fea
  f82fc4:	49c0           	extb.l d0
  f82fc6:	78e0           	moveq #-32,d4
  f82fc8:	d084           	add.l d4,d0
  f82fca:	e788           	lsl.l #3,d0
  f82fcc:	41f5 0800      	lea (0,a5,d0.l),a0
  f82fd0:	4280           	clr.l d0
  f82fd2:	2800           	move.l d0,d4
  f82fd4:	ef8c           	lsl.l #7,d4
  f82fd6:	17b0 0800 4800 	move.b (0,a0,d0.l),(0,a3,d4.l)
  f82fdc:	5280           	addq.l #1,d0
  f82fde:	7808           	moveq #8,d4
  f82fe0:	b880           	cmp.l d0,d4
  f82fe2:	66ee           	bne.s 0xf82fd2
  f82fe4:	5282           	addq.l #1,d2
  f82fe6:	b481           	cmp.l d1,d2
  f82fe8:	66d0           	bne.s 0xf82fba
  f82fea:	7c07           	moveq #7,d6
  f82fec:	cc83           	and.l d3,d6
  f82fee:	202f 0054      	move.l 84(sp),d0
  f82ff2:	4c3c 0800 0000 	muls.l #640,d0
  f82ff8:	0280 
  f82ffa:	e688           	lsr.l #3,d0
  f82ffc:	2203           	move.l d3,d1
  f82ffe:	e689           	lsr.l #3,d1
  f83000:	d081           	add.l d1,d0
  f83002:	e8c3 0743      	bftst d3,29,3
  f83006:	6600 00d8      	bne.w 0xf830e0
  f8300a:	2a40           	movea.l d0,a5
  f8300c:	dbfc 0002 0000 	adda.l #131072,a5
  f83012:	4283           	clr.l d3
  f83014:	7801           	moveq #1,d4
  f83016:	2004           	move.l d4,d0
  f83018:	e7a8           	lsl.l d3,d0
  f8301a:	222f 0058      	move.l 88(sp),d1
  f8301e:	c280           	and.l d0,d1
  f83020:	c0af 005c      	and.l 92(sp),d0
  f83024:	2640           	movea.l d0,a3
  f83026:	4a81           	tst.l d1
  f83028:	6666           	bne.s 0xf83090
  f8302a:	4a80           	tst.l d0
  f8302c:	6632           	bne.s 0xf83060
  f8302e:	2f02           	move.l d2,-(sp)
  f83030:	42a7           	clr.l -(sp)
  f83032:	4875 b800      	pea (0,a5,a3.l)
  f83036:	61ff 0000 80bc 	bsr.l 0xf8b0f4
  f8303c:	47eb 0050      	lea 80(a3),a3
  f83040:	4fef 000c      	lea 12(sp),sp
  f83044:	b6fc 0280      	cmpa.w #640,a3
  f83048:	66e4           	bne.s 0xf8302e
  f8304a:	5283           	addq.l #1,d3
  f8304c:	4bed 5280      	lea 21120(a5),a5
  f83050:	7003           	moveq #3,d0
  f83052:	b083           	cmp.l d3,d0
  f83054:	66c0           	bne.s 0xf83016
  f83056:	4cdf 7cfc      	movem.l (sp)+,d2-d7/a2-a6
  f8305a:	4fef 0018      	lea 24(sp),sp
  f8305e:	4e75           	rts
  f83060:	264a           	movea.l a2,a3
  f83062:	43f8 0000      	lea 0x0,a1
  f83066:	4df5 9800      	lea (0,a5,a1.l),a6
  f8306a:	41f8 0000      	lea 0x0,a0
  f8306e:	b1c2           	cmpa.l d2,a0
  f83070:	6610           	bne.s 0xf83082
  f83072:	43e9 0050      	lea 80(a1),a1
  f83076:	47eb 0080      	lea 128(a3),a3
  f8307a:	b2fc 0280      	cmpa.w #640,a1
  f8307e:	66e6           	bne.s 0xf83066
  f83080:	60c8           	bra.s 0xf8304a
  f83082:	1033 8800      	move.b (0,a3,a0.l),d0
  f83086:	4600           	not.b d0
  f83088:	1d80 8800      	move.b d0,(0,a6,a0.l)
  f8308c:	5288           	addq.l #1,a0
  f8308e:	60de           	bra.s 0xf8306e
  f83090:	4a80           	tst.l d0
  f83092:	6626           	bne.s 0xf830ba
  f83094:	2a0a           	move.l a2,d5
  f83096:	2f02           	move.l d2,-(sp)
  f83098:	2f05           	move.l d5,-(sp)
  f8309a:	4875 b800      	pea (0,a5,a3.l)
  f8309e:	61ff 0000 7eec 	bsr.l 0xf8af8c
  f830a4:	47eb 0050      	lea 80(a3),a3
  f830a8:	0685 0000 0080 	addi.l #128,d5
  f830ae:	4fef 000c      	lea 12(sp),sp
  f830b2:	b6fc 0280      	cmpa.w #640,a3
  f830b6:	66de           	bne.s 0xf83096
  f830b8:	6090           	bra.s 0xf8304a
  f830ba:	47f8 0000      	lea 0x0,a3
  f830be:	2f02           	move.l d2,-(sp)
  f830c0:	4878 00ff      	pea 0xff
  f830c4:	4875 b800      	pea (0,a5,a3.l)
  f830c8:	61ff 0000 802a 	bsr.l 0xf8b0f4
  f830ce:	47eb 0050      	lea 80(a3),a3
  f830d2:	4fef 000c      	lea 12(sp),sp
  f830d6:	b6fc 0280      	cmpa.w #640,a3
  f830da:	66e2           	bne.s 0xf830be
  f830dc:	6000 ff6c      	bra.w 0xf8304a
  f830e0:	e78a           	lsl.l #3,d2
  f830e2:	d483           	add.l d3,d2
  f830e4:	2202           	move.l d2,d1
  f830e6:	5e81           	addq.l #7,d1
  f830e8:	78f8           	moveq #-8,d4
  f830ea:	c284           	and.l d4,d1
  f830ec:	c684           	and.l d4,d3
  f830ee:	9283           	sub.l d3,d1
  f830f0:	e689           	lsr.l #3,d1
  f830f2:	7607           	moveq #7,d3
  f830f4:	c483           	and.l d3,d2
  f830f6:	7e08           	moveq #8,d7
  f830f8:	9e82           	sub.l d2,d7
  f830fa:	7400           	moveq #0,d2
  f830fc:	4602           	not.b d2
  f830fe:	2802           	move.l d2,d4
  f83100:	eca4           	asr.l d6,d4
  f83102:	2f44 0032      	move.l d4,50(sp)
  f83106:	efaa           	lsl.l d7,d2
  f83108:	2f42 0036      	move.l d2,54(sp)
  f8310c:	0680 0002 0280 	addi.l #131712,d0
  f83112:	2f40 002e      	move.l d0,46(sp)
  f83116:	4285           	clr.l d5
  f83118:	1f44 003e      	move.b d4,62(sp)
  f8311c:	2001           	move.l d1,d0
  f8311e:	5380           	subq.l #1,d0
  f83120:	2f40 003a      	move.l d0,58(sp)
  f83124:	7601           	moveq #1,d3
  f83126:	b681           	cmp.l d1,d3
  f83128:	56c2           	sne d2
  f8312a:	4402           	neg.b d2
  f8312c:	1f42 003f      	move.b d2,63(sp)
  f83130:	5581           	subq.l #2,d1
  f83132:	2f41 0040      	move.l d1,64(sp)
  f83136:	206f 002e      	movea.l 46(sp),a0
  f8313a:	41e8 fd80      	lea -640(a0),a0
  f8313e:	7201           	moveq #1,d1
  f83140:	eba9           	lsl.l d5,d1
  f83142:	242f 005c      	move.l 92(sp),d2
  f83146:	c481           	and.l d1,d2
  f83148:	c2af 0058      	and.l 88(sp),d1
  f8314c:	660a           	bne.s 0xf83158
  f8314e:	4a82           	tst.l d2
  f83150:	6676           	bne.s 0xf831c8
  f83152:	4204           	clr.b d4
  f83154:	4203           	clr.b d3
  f83156:	6008           	bra.s 0xf83160
  f83158:	4a82           	tst.l d2
  f8315a:	6670           	bne.s 0xf831cc
  f8315c:	4204           	clr.b d4
  f8315e:	50c3           	st d3
  f83160:	264a           	movea.l a2,a3
  f83162:	1203           	move.b d3,d1
  f83164:	c213           	and.b (a3),d1
  f83166:	b901           	eor.b d4,d1
  f83168:	1010           	move.b (a0),d0
  f8316a:	4282           	clr.l d2
  f8316c:	1401           	move.b d1,d2
  f8316e:	eca2           	asr.l d6,d2
  f83170:	b102           	eor.b d0,d2
  f83172:	c42f 0035      	and.b 53(sp),d2
  f83176:	2248           	movea.l a0,a1
  f83178:	b102           	eor.b d0,d2
  f8317a:	12c2           	move.b d2,(a1)+
  f8317c:	3a7c 0001      	movea.w #1,a5
  f83180:	4282           	clr.l d2
  f83182:	1401           	move.b d1,d2
  f83184:	efaa           	lsl.l d7,d2
  f83186:	bbef 003a      	cmpa.l 58(sp),a5
  f8318a:	6544           	bcs.s 0xf831d0
  f8318c:	4a2f 003f      	tst.b 63(sp)
  f83190:	675e           	beq.s 0xf831f0
  f83192:	222f 0040      	move.l 64(sp),d1
  f83196:	d3c1           	adda.l d1,a1
  f83198:	1211           	move.b (a1),d1
  f8319a:	b302           	eor.b d1,d2
  f8319c:	c42f 0039      	and.b 57(sp),d2
  f831a0:	b302           	eor.b d1,d2
  f831a2:	1282           	move.b d2,(a1)
  f831a4:	41e8 0050      	lea 80(a0),a0
  f831a8:	47eb 0080      	lea 128(a3),a3
  f831ac:	b1ef 002e      	cmpa.l 46(sp),a0
  f831b0:	66b0           	bne.s 0xf83162
  f831b2:	5285           	addq.l #1,d5
  f831b4:	06af 0000 5280 	addi.l #21120,46(sp)
  f831ba:	002e 
  f831bc:	7403           	moveq #3,d2
  f831be:	b485           	cmp.l d5,d2
  f831c0:	6600 ff74      	bne.w 0xf83136
  f831c4:	6000 fe90      	bra.w 0xf83056
  f831c8:	50c4           	st d4
  f831ca:	6092           	bra.s 0xf8315e
  f831cc:	50c4           	st d4
  f831ce:	6084           	bra.s 0xf83154
  f831d0:	1203           	move.b d3,d1
  f831d2:	c233 d800      	and.b (0,a3,a5.l),d1
  f831d6:	b901           	eor.b d4,d1
  f831d8:	4280           	clr.l d0
  f831da:	1001           	move.b d1,d0
  f831dc:	eca0           	asr.l d6,d0
  f831de:	c02f 003e      	and.b 62(sp),d0
  f831e2:	c42f 0039      	and.b 57(sp),d2
  f831e6:	8002           	or.b d2,d0
  f831e8:	1180 d800      	move.b d0,(0,a0,a5.l)
  f831ec:	528d           	addq.l #1,a5
  f831ee:	6090           	bra.s 0xf83180
  f831f0:	4281           	clr.l d1
  f831f2:	60a2           	bra.s 0xf83196
  f831f4:	2f0c           	move.l a4,-(sp)
  f831f6:	202f 0008      	move.l 8(sp),d0
  f831fa:	720a           	moveq #10,d1
  f831fc:	b280           	cmp.l d0,d1
  f831fe:	6700 00a8      	beq.w 0xf832a8
  f83202:	6558           	bcs.s 0xf8325c
  f83204:	7208           	moveq #8,d1
  f83206:	b280           	cmp.l d0,d1
  f83208:	6776           	beq.s 0xf83280
  f8320a:	7209           	moveq #9,d1
  f8320c:	b280           	cmp.l d0,d1
  f8320e:	675a           	beq.s 0xf8326a
  f83210:	7220           	moveq #32,d1
  f83212:	b280           	cmp.l d0,d1
  f83214:	6302           	bls.s 0xf83218
  f83216:	7020           	moveq #32,d0
  f83218:	7200           	moveq #0,d1
  f8321a:	4601           	not.b d1
  f8321c:	c081           	and.l d1,d0
  f8321e:	e788           	lsl.l #3,d0
  f83220:	43f0 09b0 00f8 	lea (16266100,d0.l),a1
  f83226:	3374 
  f83228:	202c 801e      	move.l -32738(a4),d0
  f8322c:	4c3c 0800 0000 	muls.l #640,d0
  f83232:	0280 
  f83234:	222c 8022      	move.l -32734(a4),d1
  f83238:	0681 0002 0000 	addi.l #131072,d1
  f8323e:	2040           	movea.l d0,a0
  f83240:	d1c1           	adda.l d1,a0
  f83242:	4280           	clr.l d0
  f83244:	10b1 0800      	move.b (0,a1,d0.l),(a0)
  f83248:	41e8 0050      	lea 80(a0),a0
  f8324c:	5280           	addq.l #1,d0
  f8324e:	7208           	moveq #8,d1
  f83250:	b280           	cmp.l d0,d1
  f83252:	66f0           	bne.s 0xf83244
  f83254:	202c 8022      	move.l -32734(a4),d0
  f83258:	5280           	addq.l #1,d0
  f8325a:	6018           	bra.s 0xf83274
  f8325c:	720d           	moveq #13,d1
  f8325e:	b280           	cmp.l d0,d1
  f83260:	66ae           	bne.s 0xf83210
  f83262:	42ac 8022      	clr.l -32734(a4)
  f83266:	285f           	movea.l (sp)+,a4
  f83268:	4e75           	rts
  f8326a:	202c 8022      	move.l -32734(a4),d0
  f8326e:	5080           	addq.l #8,d0
  f83270:	72f8           	moveq #-8,d1
  f83272:	c081           	and.l d1,d0
  f83274:	724f           	moveq #79,d1
  f83276:	b280           	cmp.l d0,d1
  f83278:	652a           	bcs.s 0xf832a4
  f8327a:	2940 8022      	move.l d0,-32734(a4)
  f8327e:	60e6           	bra.s 0xf83266
  f83280:	202c 8022      	move.l -32734(a4),d0
  f83284:	5380           	subq.l #1,d0
  f83286:	2940 8022      	move.l d0,-32734(a4)
  f8328a:	724f           	moveq #79,d1
  f8328c:	b280           	cmp.l d0,d1
  f8328e:	64d6           	bcc.s 0xf83266
  f83290:	202c 801e      	move.l -32738(a4),d0
  f83294:	67cc           	beq.s 0xf83262
  f83296:	724f           	moveq #79,d1
  f83298:	2941 8022      	move.l d1,-32734(a4)
  f8329c:	5380           	subq.l #1,d0
  f8329e:	2940 801e      	move.l d0,-32738(a4)
  f832a2:	60c2           	bra.s 0xf83266
  f832a4:	42ac 8022      	clr.l -32734(a4)
  f832a8:	202c 801e      	move.l -32738(a4),d0
  f832ac:	5280           	addq.l #1,d0
  f832ae:	7219           	moveq #25,d1
  f832b0:	b280           	cmp.l d0,d1
  f832b2:	64ea           	bcc.s 0xf8329e
  f832b4:	7019           	moveq #25,d0
  f832b6:	2940 801e      	move.l d0,-32738(a4)
  f832ba:	42a7           	clr.l -(sp)
  f832bc:	61ff ffff fc32 	bsr.l 0xf82ef0
  f832c2:	202c 801a      	move.l -32742(a4),d0
  f832c6:	588f           	addq.l #4,sp
  f832c8:	679c           	beq.s 0xf83266
  f832ca:	5380           	subq.l #1,d0
  f832cc:	2940 801a      	move.l d0,-32742(a4)
  f832d0:	4878 0001      	pea 0x1
  f832d4:	61ff ffff fc1a 	bsr.l 0xf82ef0
  f832da:	588f           	addq.l #4,sp
  f832dc:	7202           	moveq #2,d1
  f832de:	2f41 0008      	move.l d1,8(sp)
  f832e2:	285f           	movea.l (sp)+,a4
  f832e4:	60ff ffff fc0a 	bra.l 0xf82ef0
  f832ea:	2f0a           	move.l a2,-(sp)
  f832ec:	246f 0008      	movea.l 8(sp),a2
  f832f0:	101a           	move.b (a2)+,d0
  f832f2:	6604           	bne.s 0xf832f8
  f832f4:	245f           	movea.l (sp)+,a2
  f832f6:	4e75           	rts
  f832f8:	0c00 000a      	cmpi.b #10,d0
  f832fc:	660c           	bne.s 0xf8330a
  f832fe:	4878 000d      	pea 0xd
  f83302:	61ff ffff fef0 	bsr.l 0xf831f4
  f83308:	588f           	addq.l #4,sp
  f8330a:	4280           	clr.l d0
  f8330c:	102a ffff      	move.b -1(a2),d0
  f83310:	2f00           	move.l d0,-(sp)
  f83312:	61ff ffff fee0 	bsr.l 0xf831f4
  f83318:	588f           	addq.l #4,sp
  f8331a:	60d4           	bra.s 0xf832f0
  f8331c:	296f 0008 8022 	move.l 8(sp),-32734(a4)
  f83322:	296f 000c 801e 	move.l 12(sp),-32738(a4)
  f83328:	60ff ffff ffc0 	bra.l 0xf832ea
  f8332e:	0842 0000      	bchg #0,d2
  f83332:	2f0c           	move.l a4,-(sp)
  f83334:	33fc b000 00df 	move.w #-20480,0xdff100
  f8333a:	f100 
  f8333c:	4279 00df f102 	clr.w 0xdff102
  f83342:	33fc 0001 00df 	move.w #1,0xdff104
  f83348:	f104 
  f8334a:	4279 00df f108 	clr.w 0xdff108
  f83350:	4279 00df f10a 	clr.w 0xdff10a
  f83356:	4279 00df f110 	clr.w 0xdff110
  f8335c:	33fc 0004 00df 	move.w #4,0xdff180
  f83362:	f180 
  f83364:	33fc 0eee 00df 	move.w #3822,0xdff182
  f8336a:	f182 
  f8336c:	33fc 000f 00df 	move.w #15,0xdff184
  f83372:	f184 
  f83374:	33fc 0f0f 00df 	move.w #3855,0xdff186
  f8337a:	f186 
  f8337c:	33fc 00ff 00df 	move.w #255,0xdff188
  f83382:	f188 
  f83384:	33fc 0ff0 00df 	move.w #4080,0xdff18a
  f8338a:	f18a 
  f8338c:	33fc 04cc 00df 	move.w #1228,0xdff18c
  f83392:	f18c 
  f83394:	33fc 0cc4 00df 	move.w #3268,0xdff18e
  f8339a:	f18e 
  f8339c:	23fc 0002 0000 	move.l #131072,0xdff0e0
  f833a2:	00df f0e0 
  f833a6:	23fc 0002 5280 	move.l #152192,0xdff0e4
  f833ac:	00df f0e4 
  f833b0:	23fc 0002 a500 	move.l #173312,0xdff0e8
  f833b6:	00df f0e8 
  f833ba:	2f3c 0001 0000 	move.l #65536,-(sp)
  f833c0:	42a7           	clr.l -(sp)
  f833c2:	2f3c 0002 0000 	move.l #131072,-(sp)
  f833c8:	61ff 0000 7d2a 	bsr.l 0xf8b0f4
  f833ce:	33fc 2c81 00df 	move.w #11393,0xdff08e
  f833d4:	f08e 
  f833d6:	33fc 2cc1 00df 	move.w #11457,0xdff090
  f833dc:	f090 
  f833de:	33fc 003c 00df 	move.w #60,0xdff092
  f833e4:	f092 
  f833e6:	33fc 00d4 00df 	move.w #212,0xdff094
  f833ec:	f094 
  f833ee:	33fc ffff 00df 	move.w #-1,0xdff044
  f833f4:	f044 
  f833f6:	33fc ffff 00df 	move.w #-1,0xdff046
  f833fc:	f046 
  f833fe:	4279 00df f074 	clr.w 0xdff074
  f83404:	4279 00df f072 	clr.w 0xdff072
  f8340a:	4279 00df f070 	clr.w 0xdff070
  f83410:	42b9 00df f050 	clr.l 0xdff050
  f83416:	42b9 00df f04c 	clr.l 0xdff04c
  f8341c:	42b9 00df f048 	clr.l 0xdff048
  f83422:	42b9 00df f054 	clr.l 0xdff054
  f83428:	4279 00df f064 	clr.w 0xdff064
  f8342e:	4279 00df f062 	clr.w 0xdff062
  f83434:	4279 00df f060 	clr.w 0xdff060
  f8343a:	4279 00df f066 	clr.w 0xdff066
  f83440:	4279 00df f040 	clr.w 0xdff040
  f83446:	4279 00df f042 	clr.w 0xdff042
  f8344c:	4279 00df f058 	clr.w 0xdff058
  f83452:	487a feda      	pea 0xf8332e(pc)
  f83456:	61ff 0000 08a4 	bsr.l 0xf83cfc
  f8345c:	33fc 8340 00df 	move.w #-31936,0xdff096
  f83462:	f096 
  f83464:	33fc c020 00df 	move.w #-16352,0xdff09a
  f8346a:	f09a 
  f8346c:	4fef 0010      	lea 16(sp),sp
  f83470:	285f           	movea.l (sp)+,a4
  f83472:	4e75           	rts
  f83474:	0000 0000      	ori.b #0,d0
  f83478:	0000 0000      	ori.b #0,d0
  f8347c:	1818           	move.b (a0)+,d4
  f8347e:	1818           	move.b (a0)+,d4
  f83480:	1800           	move.b d0,d4
  f83482:	1800           	move.b d0,d4
  f83484:	6666           	bne.s 0xf834ec
  f83486:	0000 0000      	ori.b #0,d0
  f8348a:	0000 6c6c      	ori.b #108,d0
  f8348e:	fe6c           	.short 0xfe6c
  f83490:	fe6c           	.short 0xfe6c
  f83492:	6c00 183e      	bge.w 0xf84cd2
  f83496:	603c           	bra.s 0xf834d4
  f83498:	067c           	.short 0x067c
  f8349a:	1800           	move.b d0,d4
  f8349c:	00c6           	.short 0x00c6
  f8349e:	cc18           	and.b (a0)+,d6
  f834a0:	3066           	movea.w -(a6),a0
  f834a2:	c600           	and.b d0,d3
  f834a4:	78cc           	moveq #-52,d4
  f834a6:	c876 dccc      	and.w (-52,a6,a5.l*4),d4
  f834aa:	7600           	moveq #0,d3
  f834ac:	1818           	move.b (a0)+,d4
  f834ae:	3000           	move.w d0,d0
  f834b0:	0000 0000      	ori.b #0,d0
  f834b4:	0c18 3030      	cmpi.b #48,(a0)+
  f834b8:	3018           	move.w (a0)+,d0
  f834ba:	0c00 3018      	cmpi.b #24,d0
  f834be:	0c0c           	.short 0x0c0c
  f834c0:	0c18 3000      	cmpi.b #0,(a0)+
  f834c4:	0066 3cff      	ori.w #15615,-(a6)
  f834c8:	3c66           	movea.w -(a6),a6
  f834ca:	0000 0000      	ori.b #0,d0
  f834ce:	187e           	.short 0x187e
  f834d0:	1800           	move.b d0,d4
  f834d2:	0000 0000      	ori.b #0,d0
  f834d6:	0000 0018      	ori.b #24,d0
  f834da:	1830 0000      	move.b (0,a0,d0.w),d4
  f834de:	007e           	.short 0x007e
  f834e0:	0000 0000      	ori.b #0,d0
  f834e4:	0000 0000      	ori.b #0,d0
  f834e8:	0018 1800      	ori.b #0,(a0)+
  f834ec:	0306           	btst d1,d6
  f834ee:	0c18 3060      	cmpi.b #96,(a0)+
  f834f2:	c000           	and.b d0,d0
  f834f4:	7cc6           	moveq #-58,d6
  f834f6:	cede           	mulu.w (a6)+,d7
  f834f8:	f6e6           	.short 0xf6e6
  f834fa:	7c00           	moveq #0,d6
  f834fc:	1838 1818      	move.b 0x1818,d4
  f83500:	1818           	move.b (a0)+,d4
  f83502:	1800           	move.b d0,d4
  f83504:	7cc6           	moveq #-58,d6
  f83506:	061c 3060      	addi.b #96,(a4)+
  f8350a:	fe00           	.short 0xfe00
  f8350c:	7cc6           	moveq #-58,d6
  f8350e:	061c 06c6      	addi.b #-58,(a4)+
  f83512:	7c00           	moveq #0,d6
  f83514:	0ccc           	.short 0x0ccc
  f83516:	cccc           	.short 0xcccc
  f83518:	fe0c           	.short 0xfe0c
  f8351a:	0c00 fec0      	cmpi.b #-64,d0
  f8351e:	fc06           	.short 0xfc06
  f83520:	06c6           	.short 0x06c6
  f83522:	7c00           	moveq #0,d6
  f83524:	3c60           	movea.w -(a0),a6
  f83526:	c0fc c6c6      	mulu.w #-14650,d0
  f8352a:	7c00           	moveq #0,d6
  f8352c:	fec6           	.short 0xfec6
  f8352e:	060c           	.short 0x060c
  f83530:	1818           	move.b (a0)+,d4
  f83532:	1800           	move.b d0,d4
  f83534:	7cc6           	moveq #-58,d6
  f83536:	c67c c6c6      	and.w #-14650,d3
  f8353a:	7c00           	moveq #0,d6
  f8353c:	7cc6           	moveq #-58,d6
  f8353e:	c67e           	.short 0xc67e
  f83540:	060c           	.short 0x060c
  f83542:	7800           	moveq #0,d4
  f83544:	0018 1800      	ori.b #0,(a0)+
  f83548:	0018 1800      	ori.b #0,(a0)+
  f8354c:	0018 1800      	ori.b #0,(a0)+
  f83550:	0018 1830      	ori.b #48,(a0)+
  f83554:	0c18 3060      	cmpi.b #96,(a0)+
  f83558:	3018           	move.w (a0)+,d0
  f8355a:	0c00 0000      	cmpi.b #0,d0
  f8355e:	7e00           	moveq #0,d7
  f83560:	007e           	.short 0x007e
  f83562:	0000 3018      	ori.b #24,d0
  f83566:	0c06 0c18      	cmpi.b #24,d6
  f8356a:	3000           	move.w d0,d0
  f8356c:	7cc6           	moveq #-58,d6
  f8356e:	060c           	.short 0x060c
  f83570:	1800           	move.b d0,d4
  f83572:	1800           	move.b d0,d4
  f83574:	7cc6           	moveq #-58,d6
  f83576:	ded6           	adda.w (a6),sp
  f83578:	dec0           	adda.w d0,sp
  f8357a:	7c00           	moveq #0,d6
  f8357c:	7cc6           	moveq #-58,d6
  f8357e:	c6fe           	.short 0xc6fe
  f83580:	c6c6           	mulu.w d6,d3
  f83582:	c600           	and.b d0,d3
  f83584:	fcc6           	.short 0xfcc6
  f83586:	c6fc c6c6      	mulu.w #-14650,d3
  f8358a:	fc00           	.short 0xfc00
  f8358c:	7cc6           	moveq #-58,d6
  f8358e:	c0c0           	mulu.w d0,d0
  f83590:	c0c6           	mulu.w d6,d0
  f83592:	7c00           	moveq #0,d6
  f83594:	fcc6           	.short 0xfcc6
  f83596:	c6c6           	mulu.w d6,d3
  f83598:	c6c6           	mulu.w d6,d3
  f8359a:	fc00           	.short 0xfc00
  f8359c:	fec0           	.short 0xfec0
  f8359e:	c0f8 c0c0      	mulu.w 0xffffc0c0,d0
  f835a2:	fe00           	.short 0xfe00
  f835a4:	fec0           	.short 0xfec0
  f835a6:	c0f8 c0c0      	mulu.w 0xffffc0c0,d0
  f835aa:	c000           	and.b d0,d0
  f835ac:	7cc6           	moveq #-58,d6
  f835ae:	c0ce           	.short 0xc0ce
  f835b0:	c6c6           	mulu.w d6,d3
  f835b2:	7c00           	moveq #0,d6
  f835b4:	c6c6           	mulu.w d6,d3
  f835b6:	c6fe           	.short 0xc6fe
  f835b8:	c6c6           	mulu.w d6,d3
  f835ba:	c600           	and.b d0,d3
  f835bc:	7e18           	moveq #24,d7
  f835be:	1818           	move.b (a0)+,d4
  f835c0:	1818           	move.b (a0)+,d4
  f835c2:	7e00           	moveq #0,d7
  f835c4:	0606 0606      	addi.b #6,d6
  f835c8:	c6c6           	mulu.w d6,d3
  f835ca:	7c00           	moveq #0,d6
  f835cc:	c6c6           	mulu.w d6,d3
  f835ce:	ccf8 ccc6      	mulu.w 0xffffccc6,d6
  f835d2:	c600           	and.b d0,d3
  f835d4:	c0c0           	mulu.w d0,d0
  f835d6:	c0c0           	mulu.w d0,d0
  f835d8:	c0c0           	mulu.w d0,d0
  f835da:	fe00           	.short 0xfe00
  f835dc:	82c6           	divu.w d6,d1
  f835de:	eefe           	.short 0xeefe
  f835e0:	d6c6           	adda.w d6,a3
  f835e2:	c600           	and.b d0,d3
  f835e4:	c6e6           	mulu.w -(a6),d3
  f835e6:	f6de           	.short 0xf6de
  f835e8:	cec6           	mulu.w d6,d7
  f835ea:	c600           	and.b d0,d3
  f835ec:	7cc6           	moveq #-58,d6
  f835ee:	c6c6           	mulu.w d6,d3
  f835f0:	c6c6           	mulu.w d6,d3
  f835f2:	7c00           	moveq #0,d6
  f835f4:	fcc6           	.short 0xfcc6
  f835f6:	c6fc c0c0      	mulu.w #-16192,d3
  f835fa:	c000           	and.b d0,d0
  f835fc:	7cc6           	moveq #-58,d6
  f835fe:	c6c6           	mulu.w d6,d3
  f83600:	c6de           	mulu.w (a6)+,d3
  f83602:	7c06           	moveq #6,d6
  f83604:	fcc6           	.short 0xfcc6
  f83606:	c6fc c6c6      	mulu.w #-14650,d3
  f8360a:	c600           	and.b d0,d3
  f8360c:	7cc6           	moveq #-58,d6
  f8360e:	c07c 06c6      	and.w #1734,d0
  f83612:	7c00           	moveq #0,d6
  f83614:	7e18           	moveq #24,d7
  f83616:	1818           	move.b (a0)+,d4
  f83618:	1818           	move.b (a0)+,d4
  f8361a:	1800           	move.b d0,d4
  f8361c:	c6c6           	mulu.w d6,d3
  f8361e:	c6c6           	mulu.w d6,d3
  f83620:	c6c6           	mulu.w d6,d3
  f83622:	7e00           	moveq #0,d7
  f83624:	c6c6           	mulu.w d6,d3
  f83626:	c6c6           	mulu.w d6,d3
  f83628:	6c38           	bge.s 0xf83662
  f8362a:	1000           	move.b d0,d0
  f8362c:	c6c6           	mulu.w d6,d3
  f8362e:	c6d6           	mulu.w (a6),d3
  f83630:	feee           	.short 0xfeee
  f83632:	c600           	and.b d0,d3
  f83634:	c6c6           	mulu.w d6,d3
  f83636:	6c38           	bge.s 0xf83670
  f83638:	6cc6           	bge.s 0xf83600
  f8363a:	c600           	and.b d0,d3
  f8363c:	c3c3           	muls.w d3,d1
  f8363e:	c37e           	.short 0xc37e
  f83640:	1818           	move.b (a0)+,d4
  f83642:	1800           	move.b d0,d4
  f83644:	fe0c           	.short 0xfe0c
  f83646:	1830 60c0      	move.b (-64,a0,d6.w),d4
  f8364a:	fe00           	.short 0xfe00
  f8364c:	3c30 3030      	move.w (48,a0,d3.w),d6
  f83650:	3030 3c00      	move.w (0,a0,d3.l*4),d0
  f83654:	c060           	and.w -(a0),d0
  f83656:	3018           	move.w (a0)+,d0
  f83658:	0c06 0300      	cmpi.b #0,d6
  f8365c:	3c0c           	move.w a4,d6
  f8365e:	0c0c           	.short 0x0c0c
  f83660:	0c0c           	.short 0x0c0c
  f83662:	3c00           	move.w d0,d6
  f83664:	1038 6cc6      	move.b 0x6cc6,d0
  f83668:	0000 0000      	ori.b #0,d0
  f8366c:	0000 0000      	ori.b #0,d0
  f83670:	0000 00ff      	ori.b #-1,d0
  f83674:	1818           	move.b (a0)+,d4
  f83676:	0c00 0000      	cmpi.b #0,d0
  f8367a:	0000 0000      	ori.b #0,d0
  f8367e:	7c06           	moveq #6,d6
  f83680:	7ec6           	moveq #-58,d7
  f83682:	7e00           	moveq #0,d7
  f83684:	c0c0           	mulu.w d0,d0
  f83686:	fcc6           	.short 0xfcc6
  f83688:	c6c6           	mulu.w d6,d3
  f8368a:	fc00           	.short 0xfc00
  f8368c:	0000 7cc6      	ori.b #-58,d0
  f83690:	c0c6           	mulu.w d6,d0
  f83692:	7c00           	moveq #0,d6
  f83694:	0606 7ec6      	addi.b #-58,d6
  f83698:	c6c6           	mulu.w d6,d3
  f8369a:	7e00           	moveq #0,d7
  f8369c:	0000 7cc6      	ori.b #-58,d0
  f836a0:	fec0           	.short 0xfec0
  f836a2:	7c00           	moveq #0,d6
  f836a4:	1c36 30fc      	move.b (-4,a6,d3.w),d6
  f836a8:	3030 3000      	move.w (0,a0,d3.w),d0
  f836ac:	0000 7ec6      	ori.b #-58,d0
  f836b0:	c67e           	.short 0xc67e
  f836b2:	067c           	.short 0x067c
  f836b4:	c0c0           	mulu.w d0,d0
  f836b6:	fcc6           	.short 0xfcc6
  f836b8:	c6c6           	mulu.w d6,d3
  f836ba:	c600           	and.b d0,d3
  f836bc:	1800           	move.b d0,d4
  f836be:	1818           	move.b (a0)+,d4
  f836c0:	1818           	move.b (a0)+,d4
  f836c2:	1800           	move.b d0,d4
  f836c4:	0600 0606      	addi.b #6,d0
  f836c8:	0606 c67c      	addi.b #124,d6
  f836cc:	c0c0           	mulu.w d0,d0
  f836ce:	ccd8           	mulu.w (a0)+,d6
  f836d0:	f8cc           	.short 0xf8cc
  f836d2:	c600           	and.b d0,d3
  f836d4:	1818           	move.b (a0)+,d4
  f836d6:	1818           	move.b (a0)+,d4
  f836d8:	1818           	move.b (a0)+,d4
  f836da:	1800           	move.b d0,d4
  f836dc:	0000 ecfe      	ori.b #-2,d0
  f836e0:	d6d6           	adda.w (a6),a3
  f836e2:	c600           	and.b d0,d3
  f836e4:	0000 fcc6      	ori.b #-58,d0
  f836e8:	c6c6           	mulu.w d6,d3
  f836ea:	c600           	and.b d0,d3
  f836ec:	0000 7cc6      	ori.b #-58,d0
  f836f0:	c6c6           	mulu.w d6,d3
  f836f2:	7c00           	moveq #0,d6
  f836f4:	0000 fcc6      	ori.b #-58,d0
  f836f8:	c6fc c0c0      	mulu.w #-16192,d3
  f836fc:	0000 7ec6      	ori.b #-58,d0
  f83700:	c67e           	.short 0xc67e
  f83702:	0606 0000      	addi.b #0,d6
  f83706:	fcc6           	.short 0xfcc6
  f83708:	c0c0           	mulu.w d0,d0
  f8370a:	c000           	and.b d0,d0
  f8370c:	0000 7ec0      	ori.b #-64,d0
  f83710:	7c06           	moveq #6,d6
  f83712:	fc00           	.short 0xfc00
  f83714:	1818           	move.b (a0)+,d4
  f83716:	7e18           	moveq #24,d7
  f83718:	1818           	move.b (a0)+,d4
  f8371a:	0c00 0000      	cmpi.b #0,d0
  f8371e:	c6c6           	mulu.w d6,d3
  f83720:	c6c6           	mulu.w d6,d3
  f83722:	7e00           	moveq #0,d7
  f83724:	0000 c6c6      	ori.b #-58,d0
  f83728:	6c38           	bge.s 0xf83762
  f8372a:	1000           	move.b d0,d0
  f8372c:	0000 c6d6      	ori.b #-42,d0
  f83730:	d66c 6c00      	add.w 27648(a4),d3
  f83734:	0000 c66c      	ori.b #108,d0
  f83738:	386c c600      	movea.w -14848(a4),a4
  f8373c:	0000 c6c6      	ori.b #-58,d0
  f83740:	c67e           	.short 0xc67e
  f83742:	067c           	.short 0x067c
  f83744:	0000 fe0c      	ori.b #12,d0
  f83748:	3860           	movea.w -(a0),a4
  f8374a:	fe00           	.short 0xfe00
  f8374c:	0e18           	.short 0x0e18
  f8374e:	1870           	.short 0x1870
  f83750:	1818           	move.b (a0)+,d4
  f83752:	0e00           	.short 0x0e00
  f83754:	1818           	move.b (a0)+,d4
  f83756:	1818           	move.b (a0)+,d4
  f83758:	1818           	move.b (a0)+,d4
  f8375a:	1800           	move.b d0,d4
  f8375c:	7018           	moveq #24,d0
  f8375e:	180e           	.short 0x180e
  f83760:	1818           	move.b (a0)+,d4
  f83762:	7000           	moveq #0,d0
  f83764:	729c           	moveq #-100,d1
  f83766:	0000 0000      	ori.b #0,d0
  f8376a:	0000 cc33      	ori.b #51,d0
  f8376e:	cc33 cc33      	and.b (51,a3,a4.l*4),d6
  f83772:	cc33 7e66      	and.b (102,a3,d7.l*8),d6
  f83776:	6666           	bne.s 0xf837de
  f83778:	6666           	bne.s 0xf837e0
  f8377a:	7e00           	moveq #0,d7
  f8377c:	7e66           	moveq #102,d7
  f8377e:	6666           	bne.s 0xf837e6
  f83780:	6666           	bne.s 0xf837e8
  f83782:	7e00           	moveq #0,d7
  f83784:	7e66           	moveq #102,d7
  f83786:	6666           	bne.s 0xf837ee
  f83788:	6666           	bne.s 0xf837f0
  f8378a:	7e00           	moveq #0,d7
  f8378c:	7e66           	moveq #102,d7
  f8378e:	6666           	bne.s 0xf837f6
  f83790:	6666           	bne.s 0xf837f8
  f83792:	7e00           	moveq #0,d7
  f83794:	7e66           	moveq #102,d7
  f83796:	6666           	bne.s 0xf837fe
  f83798:	6666           	bne.s 0xf83800
  f8379a:	7e00           	moveq #0,d7
  f8379c:	7e66           	moveq #102,d7
  f8379e:	6666           	bne.s 0xf83806
  f837a0:	6666           	bne.s 0xf83808
  f837a2:	7e00           	moveq #0,d7
  f837a4:	7e66           	moveq #102,d7
  f837a6:	6666           	bne.s 0xf8380e
  f837a8:	6666           	bne.s 0xf83810
  f837aa:	7e00           	moveq #0,d7
  f837ac:	7e66           	moveq #102,d7
  f837ae:	6666           	bne.s 0xf83816
  f837b0:	6666           	bne.s 0xf83818
  f837b2:	7e00           	moveq #0,d7
  f837b4:	7e66           	moveq #102,d7
  f837b6:	6666           	bne.s 0xf8381e
  f837b8:	6666           	bne.s 0xf83820
  f837ba:	7e00           	moveq #0,d7
  f837bc:	7e66           	moveq #102,d7
  f837be:	6666           	bne.s 0xf83826
  f837c0:	6666           	bne.s 0xf83828
  f837c2:	7e00           	moveq #0,d7
  f837c4:	7e66           	moveq #102,d7
  f837c6:	6666           	bne.s 0xf8382e
  f837c8:	6666           	bne.s 0xf83830
  f837ca:	7e00           	moveq #0,d7
  f837cc:	7e66           	moveq #102,d7
  f837ce:	6666           	bne.s 0xf83836
  f837d0:	6666           	bne.s 0xf83838
  f837d2:	7e00           	moveq #0,d7
  f837d4:	7e66           	moveq #102,d7
  f837d6:	6666           	bne.s 0xf8383e
  f837d8:	6666           	bne.s 0xf83840
  f837da:	7e00           	moveq #0,d7
  f837dc:	7e66           	moveq #102,d7
  f837de:	6666           	bne.s 0xf83846
  f837e0:	6666           	bne.s 0xf83848
  f837e2:	7e00           	moveq #0,d7
  f837e4:	7e66           	moveq #102,d7
  f837e6:	6666           	bne.s 0xf8384e
  f837e8:	6666           	bne.s 0xf83850
  f837ea:	7e00           	moveq #0,d7
  f837ec:	7e66           	moveq #102,d7
  f837ee:	6666           	bne.s 0xf83856
  f837f0:	6666           	bne.s 0xf83858
  f837f2:	7e00           	moveq #0,d7
  f837f4:	7e66           	moveq #102,d7
  f837f6:	6666           	bne.s 0xf8385e
  f837f8:	6666           	bne.s 0xf83860
  f837fa:	7e00           	moveq #0,d7
  f837fc:	7e66           	moveq #102,d7
  f837fe:	6666           	bne.s 0xf83866
  f83800:	6666           	bne.s 0xf83868
  f83802:	7e00           	moveq #0,d7
  f83804:	7e66           	moveq #102,d7
  f83806:	6666           	bne.s 0xf8386e
  f83808:	6666           	bne.s 0xf83870
  f8380a:	7e00           	moveq #0,d7
  f8380c:	7e66           	moveq #102,d7
  f8380e:	6666           	bne.s 0xf83876
  f83810:	6666           	bne.s 0xf83878
  f83812:	7e00           	moveq #0,d7
  f83814:	7e66           	moveq #102,d7
  f83816:	6666           	bne.s 0xf8387e
  f83818:	6666           	bne.s 0xf83880
  f8381a:	7e00           	moveq #0,d7
  f8381c:	7e66           	moveq #102,d7
  f8381e:	6666           	bne.s 0xf83886
  f83820:	6666           	bne.s 0xf83888
  f83822:	7e00           	moveq #0,d7
  f83824:	7e66           	moveq #102,d7
  f83826:	6666           	bne.s 0xf8388e
  f83828:	6666           	bne.s 0xf83890
  f8382a:	7e00           	moveq #0,d7
  f8382c:	7e66           	moveq #102,d7
  f8382e:	6666           	bne.s 0xf83896
  f83830:	6666           	bne.s 0xf83898
  f83832:	7e00           	moveq #0,d7
  f83834:	7e66           	moveq #102,d7
  f83836:	6666           	bne.s 0xf8389e
  f83838:	6666           	bne.s 0xf838a0
  f8383a:	7e00           	moveq #0,d7
  f8383c:	7e66           	moveq #102,d7
  f8383e:	6666           	bne.s 0xf838a6
  f83840:	6666           	bne.s 0xf838a8
  f83842:	7e00           	moveq #0,d7
  f83844:	7e66           	moveq #102,d7
  f83846:	6666           	bne.s 0xf838ae
  f83848:	6666           	bne.s 0xf838b0
  f8384a:	7e00           	moveq #0,d7
  f8384c:	7e66           	moveq #102,d7
  f8384e:	6666           	bne.s 0xf838b6
  f83850:	6666           	bne.s 0xf838b8
  f83852:	7e00           	moveq #0,d7
  f83854:	7e66           	moveq #102,d7
  f83856:	6666           	bne.s 0xf838be
  f83858:	6666           	bne.s 0xf838c0
  f8385a:	7e00           	moveq #0,d7
  f8385c:	7e66           	moveq #102,d7
  f8385e:	6666           	bne.s 0xf838c6
  f83860:	6666           	bne.s 0xf838c8
  f83862:	7e00           	moveq #0,d7
  f83864:	7e66           	moveq #102,d7
  f83866:	6666           	bne.s 0xf838ce
  f83868:	6666           	bne.s 0xf838d0
  f8386a:	7e00           	moveq #0,d7
  f8386c:	7e66           	moveq #102,d7
  f8386e:	6666           	bne.s 0xf838d6
  f83870:	6666           	bne.s 0xf838d8
  f83872:	7e00           	moveq #0,d7
  f83874:	0000 0000      	ori.b #0,d0
  f83878:	0000 0000      	ori.b #0,d0
  f8387c:	7cc6           	moveq #-58,d6
  f8387e:	c6fe           	.short 0xc6fe
  f83880:	c6c6           	mulu.w d6,d3
  f83882:	c603           	and.b d3,d3
  f83884:	0c3e           	.short 0x0c3e
  f83886:	6c6c           	bge.s 0xf838f4
  f83888:	3e0c           	move.w a4,d7
  f8388a:	0000 c0c0      	ori.b #-64,d0
  f8388e:	d8f0 e0c0      	adda.w (-64,a0,a6.w),a4
  f83892:	fe00           	.short 0xfe00
  f83894:	423c           	.short 0x423c
  f83896:	663c           	bne.s 0xf838d4
  f83898:	4200           	clr.b d0
  f8389a:	0000 6666      	ori.b #102,d0
  f8389e:	3c18           	move.w (a0)+,d6
  f838a0:	3c18           	move.w (a0)+,d6
  f838a2:	1800           	move.b d0,d4
  f838a4:	187c           	.short 0x187c
  f838a6:	c670 1ec6      	and.w (-58,a0,d1.l*8),d3
  f838aa:	7c00           	moveq #0,d6
  f838ac:	3c40           	movea.w d0,a6
  f838ae:	3c66           	movea.w -(a6),a6
  f838b0:	3c02           	move.w d2,d6
  f838b2:	3c00           	move.w d0,d6
  f838b4:	c600           	and.b d0,d3
  f838b6:	0000 0000      	ori.b #0,d0
  f838ba:	0000 3c42      	ori.b #66,d0
  f838be:	99a1           	sub.l d4,-(a1)
  f838c0:	a199           	.short 0xa199
  f838c2:	423c           	.short 0x423c
  f838c4:	3e66           	movea.w -(a6),sp
  f838c6:	663e           	bne.s 0xf83906
  f838c8:	007e           	.short 0x007e
  f838ca:	0000 0033      	ori.b #51,d0
  f838ce:	66cc           	bne.s 0xf8389c
  f838d0:	6633           	bne.s 0xf83905
  f838d2:	0000 60fe      	ori.b #-2,d0
  f838d6:	4c18           	.short 0x4c18
  f838d8:	3060           	movea.w -(a0),a0
  f838da:	fe00           	.short 0xfe00
  f838dc:	0000 007e      	ori.b #126,d0
  f838e0:	0000 0000      	ori.b #0,d0
  f838e4:	3c42           	movea.w d2,a6
  f838e6:	b9a5           	eor.l d4,-(a5)
  f838e8:	b9a5           	eor.l d4,-(a5)
  f838ea:	423c           	.short 0x423c
  f838ec:	30fe           	.short 0x30fe
  f838ee:	1830 60c0      	move.b (-64,a0,d6.w),d4
  f838f2:	fe00           	.short 0xfe00
  f838f4:	3c66           	movea.w -(a6),a6
  f838f6:	3c00           	move.w d0,d6
  f838f8:	0000 0000      	ori.b #0,d0
  f838fc:	0000 7c06      	ori.b #6,d0
  f83900:	7ec6           	moveq #-58,d7
  f83902:	7e03           	moveq #3,d7
  f83904:	384c           	movea.w a4,a4
  f83906:	1830 7c00      	move.b (0,a0,d7.l*4),d4
  f8390a:	0000 1818      	ori.b #24,d0
  f8390e:	1c18           	move.b (a0)+,d6
  f83910:	3818           	move.w (a0)+,d4
  f83912:	1800           	move.b d0,d4
  f83914:	0c18 0000      	cmpi.b #0,(a0)+
  f83918:	0000 0000      	ori.b #0,d0
  f8391c:	0000 c6c6      	ori.b #-58,d0
  f83920:	c6c6           	mulu.w d6,d3
  f83922:	fec0           	.short 0xfec0
  f83924:	1830 7ec0      	move.b (-64,a0,d7.l*8),d4
  f83928:	7c06           	moveq #6,d6
  f8392a:	fc00           	.short 0xfc00
  f8392c:	0000 1818      	ori.b #24,d0
  f83930:	0000 0000      	ori.b #0,d0
  f83934:	0000 0000      	ori.b #0,d0
  f83938:	0000 1830      	ori.b #48,d0
  f8393c:	1838 1818      	move.b 0x1818,d4
  f83940:	1800           	move.b d0,d4
  f83942:	0000 3c66      	ori.b #102,d0
  f83946:	663c           	bne.s 0xf83984
  f83948:	007e           	.short 0x007e
  f8394a:	0000 00cc      	ori.b #-52,d0
  f8394e:	6633           	bne.s 0xf83983
  f83950:	66cc           	bne.s 0xf8391e
  f83952:	0000 1830      	ori.b #48,d0
  f83956:	fe0c           	.short 0xfe0c
  f83958:	3860           	movea.w -(a0),a4
  f8395a:	fe00           	.short 0xfe00
  f8395c:	40c6           	move.w sr,d6
  f8395e:	4c58           	.short 0x4c58
  f83960:	3e72 c40e      	movea.w (14,a2,a4.w*4),sp
  f83964:	c063           	and.w -(a3),d0
  f83966:	c66c d935      	and.w -9931(a4),d3
  f8396a:	6701           	beq.s 0xf8396d
  f8396c:	3000           	move.w d0,d0
  f8396e:	fe0c           	.short 0xfe0c
  f83970:	3860           	movea.w -(a0),a4
  f83972:	fe00           	.short 0xfe00
  f83974:	3018           	move.w (a0)+,d0
  f83976:	7cc6           	moveq #-58,d6
  f83978:	fec6           	.short 0xfec6
  f8397a:	c600           	and.b d0,d3
  f8397c:	1830 7cc6      	move.b (-58,a0,d7.l*4),d4
  f83980:	fec6           	.short 0xfec6
  f83982:	c600           	and.b d0,d3
  f83984:	386c 7cc6      	movea.w 31942(a4),a4
  f83988:	fec6           	.short 0xfec6
  f8398a:	c600           	and.b d0,d3
  f8398c:	729c           	moveq #-100,d1
  f8398e:	7cc6           	moveq #-58,d6
  f83990:	fec6           	.short 0xfec6
  f83992:	c600           	and.b d0,d3
  f83994:	c600           	and.b d0,d3
  f83996:	7cc6           	moveq #-58,d6
  f83998:	fec6           	.short 0xfec6
  f8399a:	c600           	and.b d0,d3
  f8399c:	7cc6           	moveq #-58,d6
  f8399e:	7cc6           	moveq #-58,d6
  f839a0:	fec6           	.short 0xfec6
  f839a2:	c600           	and.b d0,d3
  f839a4:	307c c6c0      	movea.w #-14656,a0
  f839a8:	c0c6           	mulu.w d6,d0
  f839aa:	7c00           	moveq #0,d6
  f839ac:	7cc6           	moveq #-58,d6
  f839ae:	c0c0           	mulu.w d0,d0
  f839b0:	c0c6           	mulu.w d6,d0
  f839b2:	7c30           	moveq #48,d6
  f839b4:	3018           	move.w (a0)+,d0
  f839b6:	fec0           	.short 0xfec0
  f839b8:	f8c0           	.short 0xf8c0
  f839ba:	fe00           	.short 0xfe00
  f839bc:	1830 fec0      	move.b (-64,a0,sp.l*8),d4
  f839c0:	f8c0           	.short 0xf8c0
  f839c2:	fe00           	.short 0xfe00
  f839c4:	fec0           	.short 0xfec0
  f839c6:	c0f8 c0c0      	mulu.w 0xffffc0c0,d0
  f839ca:	fe06           	.short 0xfe06
  f839cc:	c600           	and.b d0,d3
  f839ce:	fec0           	.short 0xfec0
  f839d0:	f8c0           	.short 0xf8c0
  f839d2:	fe00           	.short 0xfe00
  f839d4:	3018           	move.w (a0)+,d0
  f839d6:	7e18           	moveq #24,d7
  f839d8:	1818           	move.b (a0)+,d4
  f839da:	7e00           	moveq #0,d7
  f839dc:	0c18 7e18      	cmpi.b #24,(a0)+
  f839e0:	1818           	move.b (a0)+,d4
  f839e2:	7e00           	moveq #0,d7
  f839e4:	3c66           	movea.w -(a6),a6
  f839e6:	7e18           	moveq #24,d7
  f839e8:	1818           	move.b (a0)+,d4
  f839ea:	7e00           	moveq #0,d7
  f839ec:	6600 7e18      	bne.w 0xf8b806
  f839f0:	1818           	move.b (a0)+,d4
  f839f2:	7e00           	moveq #0,d7
  f839f4:	fcc6           	.short 0xfcc6
  f839f6:	c6f6 c6c6      	mulu.w (-58,a6,a4.w*8),d3
  f839fa:	fc00           	.short 0xfc00
  f839fc:	18d6           	move.b (a6),(a4)+
  f839fe:	e6f6 dece      	ror.w (-50,a6,a5.l*8)
  f83a02:	c600           	and.b d0,d3
  f83a04:	3018           	move.w (a0)+,d0
  f83a06:	7cc6           	moveq #-58,d6
  f83a08:	c6c6           	mulu.w d6,d3
  f83a0a:	7c00           	moveq #0,d6
  f83a0c:	0c7c           	.short 0x0c7c
  f83a0e:	c6c6           	mulu.w d6,d3
  f83a10:	c6c6           	mulu.w d6,d3
  f83a12:	7c00           	moveq #0,d6
  f83a14:	386c 7cc6      	movea.w 31942(a4),a4
  f83a18:	c6c6           	mulu.w d6,d3
  f83a1a:	7c00           	moveq #0,d6
  f83a1c:	729c           	moveq #-100,d1
  f83a1e:	7cc6           	moveq #-58,d6
  f83a20:	c6c6           	mulu.w d6,d3
  f83a22:	7c00           	moveq #0,d6
  f83a24:	c600           	and.b d0,d3
  f83a26:	7cc6           	moveq #-58,d6
  f83a28:	c6c6           	mulu.w d6,d3
  f83a2a:	7c00           	moveq #0,d6
  f83a2c:	00c6           	.short 0x00c6
  f83a2e:	6c38           	bge.s 0xf83a68
  f83a30:	6cc6           	bge.s 0xf839f8
  f83a32:	0000 7cc6      	ori.b #-58,d0
  f83a36:	cede           	mulu.w (a6)+,d7
  f83a38:	f6e6           	.short 0xf6e6
  f83a3a:	7c00           	moveq #0,d6
  f83a3c:	3018           	move.w (a0)+,d0
  f83a3e:	c6c6           	mulu.w d6,d3
  f83a40:	c6c6           	mulu.w d6,d3
  f83a42:	7e00           	moveq #0,d7
  f83a44:	1830 c6c6      	move.b (-58,a0,a4.w*8),d4
  f83a48:	c6c6           	mulu.w d6,d3
  f83a4a:	7e00           	moveq #0,d7
  f83a4c:	386c c6c6      	movea.w -14650(a4),a4
  f83a50:	c6c6           	mulu.w d6,d3
  f83a52:	7e00           	moveq #0,d7
  f83a54:	c600           	and.b d0,d3
  f83a56:	c6c6           	mulu.w d6,d3
  f83a58:	c6c6           	mulu.w d6,d3
  f83a5a:	7e00           	moveq #0,d7
  f83a5c:	0c18 c3c3      	cmpi.b #-61,(a0)+
  f83a60:	7e18           	moveq #24,d7
  f83a62:	1800           	move.b d0,d4
  f83a64:	c0c0           	mulu.w d0,d0
  f83a66:	fec3           	.short 0xfec3
  f83a68:	c3fe           	.short 0xc3fe
  f83a6a:	c0c0           	mulu.w d0,d0
  f83a6c:	fcc6           	.short 0xfcc6
  f83a6e:	c6dc           	mulu.w (a4)+,d3
  f83a70:	c6c6           	mulu.w d6,d3
  f83a72:	dcc0           	adda.w d0,a6
  f83a74:	3018           	move.w (a0)+,d0
  f83a76:	7c06           	moveq #6,d6
  f83a78:	7ec6           	moveq #-58,d7
  f83a7a:	7e00           	moveq #0,d7
  f83a7c:	1830 7c06      	move.b (6,a0,d7.l*4),d4
  f83a80:	7ec6           	moveq #-58,d7
  f83a82:	7e00           	moveq #0,d7
  f83a84:	386c 7c06      	movea.w 31750(a4),a4
  f83a88:	7ec6           	moveq #-58,d7
  f83a8a:	7e00           	moveq #0,d7
  f83a8c:	729c           	moveq #-100,d1
  f83a8e:	7c06           	moveq #6,d6
  f83a90:	7ec6           	moveq #-58,d7
  f83a92:	7e00           	moveq #0,d7
  f83a94:	c600           	and.b d0,d3
  f83a96:	7c06           	moveq #6,d6
  f83a98:	7ec6           	moveq #-58,d7
  f83a9a:	7e00           	moveq #0,d7
  f83a9c:	3c66           	movea.w -(a6),a6
  f83a9e:	7c06           	moveq #6,d6
  f83aa0:	7ec6           	moveq #-58,d7
  f83aa2:	7e00           	moveq #0,d7
  f83aa4:	1830 7cc6      	move.b (-58,a0,d7.l*4),d4
  f83aa8:	c0c6           	mulu.w d6,d0
  f83aaa:	7c00           	moveq #0,d6
  f83aac:	0000 7cc6      	ori.b #-58,d0
  f83ab0:	c0c6           	mulu.w d6,d0
  f83ab2:	7c30           	moveq #48,d6
  f83ab4:	3018           	move.w (a0)+,d0
  f83ab6:	7cc6           	moveq #-58,d6
  f83ab8:	fec0           	.short 0xfec0
  f83aba:	7c00           	moveq #0,d6
  f83abc:	1830 7cc6      	move.b (-58,a0,d7.l*4),d4
  f83ac0:	fec0           	.short 0xfec0
  f83ac2:	7c00           	moveq #0,d6
  f83ac4:	0000 7cc6      	ori.b #-58,d0
  f83ac8:	fec0           	.short 0xfec0
  f83aca:	7c06           	moveq #6,d6
  f83acc:	c600           	and.b d0,d3
  f83ace:	7cc6           	moveq #-58,d6
  f83ad0:	fec0           	.short 0xfec0
  f83ad2:	7c00           	moveq #0,d6
  f83ad4:	3018           	move.w (a0)+,d0
  f83ad6:	0018 1818      	ori.b #24,(a0)+
  f83ada:	1800           	move.b d0,d4
  f83adc:	0c18 0018      	cmpi.b #24,(a0)+
  f83ae0:	1818           	move.b (a0)+,d4
  f83ae2:	1800           	move.b d0,d4
  f83ae4:	3c66           	movea.w -(a6),a6
  f83ae6:	0018 1818      	ori.b #24,(a0)+
  f83aea:	1800           	move.b d0,d4
  f83aec:	6600 0018      	bne.w 0xf83b06
  f83af0:	1818           	move.b (a0)+,d4
  f83af2:	1800           	move.b d0,d4
  f83af4:	60fc           	bra.s 0xf83af2
  f83af6:	187c           	.short 0x187c
  f83af8:	c6c6           	mulu.w d6,d3
  f83afa:	7c00           	moveq #0,d6
  f83afc:	1830 fcc6      	move.b (-58,a0,sp.l*4),d4
  f83b00:	c6c6           	mulu.w d6,d3
  f83b02:	c600           	and.b d0,d3
  f83b04:	3018           	move.w (a0)+,d0
  f83b06:	7cc6           	moveq #-58,d6
  f83b08:	c6c6           	mulu.w d6,d3
  f83b0a:	7c00           	moveq #0,d6
  f83b0c:	1830 7cc6      	move.b (-58,a0,d7.l*4),d4
  f83b10:	c6c6           	mulu.w d6,d3
  f83b12:	7c00           	moveq #0,d6
  f83b14:	386c 7cc6      	movea.w 31942(a4),a4
  f83b18:	c6c6           	mulu.w d6,d3
  f83b1a:	7c00           	moveq #0,d6
  f83b1c:	729c           	moveq #-100,d1
  f83b1e:	7cc6           	moveq #-58,d6
  f83b20:	c6c6           	mulu.w d6,d3
  f83b22:	7c00           	moveq #0,d6
  f83b24:	c600           	and.b d0,d3
  f83b26:	7cc6           	moveq #-58,d6
  f83b28:	c6c6           	mulu.w d6,d3
  f83b2a:	7c00           	moveq #0,d6
  f83b2c:	0018 007e      	ori.b #126,(a0)+
  f83b30:	0018 0000      	ori.b #0,(a0)+
  f83b34:	0000 7cce      	ori.b #-50,d0
  f83b38:	d6e6           	adda.w -(a6),a3
  f83b3a:	7c00           	moveq #0,d6
  f83b3c:	3018           	move.w (a0)+,d0
  f83b3e:	c6c6           	mulu.w d6,d3
  f83b40:	c6c6           	mulu.w d6,d3
  f83b42:	7e00           	moveq #0,d7
  f83b44:	1830 c6c6      	move.b (-58,a0,a4.w*8),d4
  f83b48:	c6c6           	mulu.w d6,d3
  f83b4a:	7e00           	moveq #0,d7
  f83b4c:	386c c6c6      	movea.w -14650(a4),a4
  f83b50:	c6c6           	mulu.w d6,d3
  f83b52:	7e00           	moveq #0,d7
  f83b54:	c600           	and.b d0,d3
  f83b56:	c6c6           	mulu.w d6,d3
  f83b58:	c6c6           	mulu.w d6,d3
  f83b5a:	7e00           	moveq #0,d7
  f83b5c:	1830 c6c6      	move.b (-58,a0,a4.w*8),d4
  f83b60:	c67e           	.short 0xc67e
  f83b62:	067c           	.short 0x067c
  f83b64:	c0c0           	mulu.w d0,d0
  f83b66:	fcc6           	.short 0xfcc6
  f83b68:	c6fc c0c0      	mulu.w #-16192,d3
  f83b6c:	c600           	and.b d0,d3
  f83b6e:	c6c6           	mulu.w d6,d3
  f83b70:	c67e           	.short 0xc67e
  f83b72:	067c           	.short 0x067c
  f83b74:	2f0c           	move.l a4,-(sp)
  f83b76:	2f02           	move.l d2,-(sp)
  f83b78:	42ac 90e2      	clr.l -28446(a4)
  f83b7c:	202c 90b2      	move.l -28494(a4),d0
  f83b80:	222c 90b6      	move.l -28490(a4),d1
  f83b84:	b280           	cmp.l d0,d1
  f83b86:	671e           	beq.s 0xf83ba6
  f83b88:	2200           	move.l d0,d1
  f83b8a:	5281           	addq.l #1,d1
  f83b8c:	743f           	moveq #63,d2
  f83b8e:	c481           	and.l d1,d2
  f83b90:	2942 90b2      	move.l d2,-28494(a4)
  f83b94:	3034 0b20 9032 	move.w (-28622,a4,d0.l*2),d0
  f83b9a:	0280 0000 ffff 	andi.l #65535,d0
  f83ba0:	241f           	move.l (sp)+,d2
  f83ba2:	285f           	movea.l (sp)+,a4
  f83ba4:	4e75           	rts
  f83ba6:	70ff           	moveq #-1,d0
  f83ba8:	60f6           	bra.s 0xf83ba0
  f83baa:	2f0c           	move.l a4,-(sp)
  f83bac:	2f02           	move.l d2,-(sp)
  f83bae:	222f 000c      	move.l 12(sp),d1
  f83bb2:	204c           	movea.l a4,a0
  f83bb4:	d1fc ffff 90b6 	adda.l #-28490,a0
  f83bba:	2010           	move.l (a0),d0
  f83bbc:	5280           	addq.l #1,d0
  f83bbe:	743f           	moveq #63,d2
  f83bc0:	c082           	and.l d2,d0
  f83bc2:	b0ac 90b2      	cmp.l -28494(a4),d0
  f83bc6:	661a           	bne.s 0xf83be2
  f83bc8:	4a01           	tst.b d1
  f83bca:	6710           	beq.s 0xf83bdc
  f83bcc:	2010           	move.l (a0),d0
  f83bce:	5380           	subq.l #1,d0
  f83bd0:	c082           	and.l d2,d0
  f83bd2:	0241 00ff      	andi.w #255,d1
  f83bd6:	3981 0b20 9032 	move.w d1,(-28622,a4,d0.l*2)
  f83bdc:	241f           	move.l (sp)+,d2
  f83bde:	285f           	movea.l (sp)+,a4
  f83be0:	4e75           	rts
  f83be2:	2250           	movea.l (a0),a1
  f83be4:	3981 9b20 9032 	move.w d1,(-28622,a4,a1.l*2)
  f83bea:	2080           	move.l d0,(a0)
  f83bec:	60ee           	bra.s 0xf83bdc
  f83bee:	203c 0036 1f0f 	move.l #3546895,d0
  f83bf4:	4aac 90d0      	tst.l -28464(a4)
  f83bf8:	6606           	bne.s 0xf83c00
  f83bfa:	203c 0036 9e99 	move.l #3579545,d0
  f83c00:	33fc 4000 00df 	move.w #16384,0xdff09a
  f83c06:	f09a 
  f83c08:	4c7c 0000 0000 	divul.l #9600,d0,d0
  f83c0e:	2580 
  f83c10:	5380           	subq.l #1,d0
  f83c12:	33c0 00df f032 	move.w d0,0xdff032
  f83c18:	13fc 004f 00bf 	move.b #79,0xbfd000
  f83c1e:	d000 
  f83c20:	33fc 0801 00df 	move.w #2049,0xdff09a
  f83c26:	f09a 
  f83c28:	33fc 0801 00df 	move.w #2049,0xdff09c
  f83c2e:	f09c 
  f83c30:	33fc 8800 00df 	move.w #-30720,0xdff09a
  f83c36:	f09a 
  f83c38:	4e75           	rts
  f83c3a:	48e7 3e08      	movem.l d2-d6/a4,-(sp)
  f83c3e:	282f 001c      	move.l 28(sp),d4
  f83c42:	204c           	movea.l a4,a0
  f83c44:	d1fc ffff 802e 	adda.l #-32722,a0
  f83c4a:	3010           	move.w (a0),d0
  f83c4c:	0280 0000 ffff 	andi.l #65535,d0
  f83c52:	1984 0920 8032 	move.b d4,(-32718,a4,d0.l)
  f83c58:	3010           	move.w (a0),d0
  f83c5a:	5240           	addq.w #1,d0
  f83c5c:	0240 0fff      	andi.w #4095,d0
  f83c60:	3080           	move.w d0,(a0)
  f83c62:	4a2c 8026      	tst.b -32730(a4)
  f83c66:	6752           	beq.s 0xf83cba
  f83c68:	0044 0100      	ori.w #256,d4
  f83c6c:	263c 0000 c351 	move.l #50001,d3
  f83c72:	40c5           	move.w sr,d5
  f83c74:	007c 0700      	ori.w #1792,sr
  f83c78:	3439 00df f018 	move.w 0xdff018,d2
  f83c7e:	0802 000e      	btst #14,d2
  f83c82:	671a           	beq.s 0xf83c9e
  f83c84:	3f02           	move.w d2,-(sp)
  f83c86:	4267           	clr.w -(sp)
  f83c88:	61ff ffff ff20 	bsr.l 0xf83baa
  f83c8e:	197c 0001 8026 	move.b #1,-32730(a4)
  f83c94:	33fc 0800 00df 	move.w #2048,0xdff09c
  f83c9a:	f09c 
  f83c9c:	588f           	addq.l #4,sp
  f83c9e:	46c5           	move.w d5,sr
  f83ca0:	5383           	subq.l #1,d3
  f83ca2:	6706           	beq.s 0xf83caa
  f83ca4:	0802 000d      	btst #13,d2
  f83ca8:	67c8           	beq.s 0xf83c72
  f83caa:	33c4 00df f030 	move.w d4,0xdff030
  f83cb0:	33fc 0001 00df 	move.w #1,0xdff09c
  f83cb6:	f09c 
  f83cb8:	601c           	bra.s 0xf83cd6
  f83cba:	61ff 0000 0766 	bsr.l 0xf84422
  f83cc0:	2a00           	move.l d0,d5
  f83cc2:	ef8d           	lsl.l #7,d5
  f83cc4:	2601           	move.l d1,d3
  f83cc6:	7c19           	moveq #25,d6
  f83cc8:	ecab           	lsr.l d6,d3
  f83cca:	8685           	or.l d5,d3
  f83ccc:	2400           	move.l d0,d2
  f83cce:	ecaa           	lsr.l d6,d2
  f83cd0:	2002           	move.l d2,d0
  f83cd2:	8083           	or.l d3,d0
  f83cd4:	6792           	beq.s 0xf83c68
  f83cd6:	4cdf 107c      	movem.l (sp)+,d2-d6/a4
  f83cda:	4e75           	rts
  f83cdc:	3039 00df f018 	move.w 0xdff018,d0
  f83ce2:	0800 000e      	btst #14,d0
  f83ce6:	6710           	beq.s 0xf83cf8
  f83ce8:	33fc 0800 00df 	move.w #2048,0xdff09c
  f83cee:	f09c 
  f83cf0:	0280 0000 00ff 	andi.l #255,d0
  f83cf6:	4e75           	rts
  f83cf8:	70ff           	moveq #-1,d0
  f83cfa:	60fa           	bra.s 0xf83cf6
  f83cfc:	2f0a           	move.l a2,-(sp)
  f83cfe:	2f02           	move.l d2,-(sp)
  f83d00:	246f 000c      	movea.l 12(sp),a2
  f83d04:	141a           	move.b (a2)+,d2
  f83d06:	6606           	bne.s 0xf83d0e
  f83d08:	241f           	move.l (sp)+,d2
  f83d0a:	245f           	movea.l (sp)+,a2
  f83d0c:	4e75           	rts
  f83d0e:	0c02 000a      	cmpi.b #10,d2
  f83d12:	660c           	bne.s 0xf83d20
  f83d14:	4878 000d      	pea 0xd
  f83d18:	61ff ffff ff20 	bsr.l 0xf83c3a
  f83d1e:	588f           	addq.l #4,sp
  f83d20:	49c2           	extb.l d2
  f83d22:	2f02           	move.l d2,-(sp)
  f83d24:	61ff ffff ff14 	bsr.l 0xf83c3a
  f83d2a:	588f           	addq.l #4,sp
  f83d2c:	60d6           	bra.s 0xf83d04
  f83d2e:	2f02           	move.l d2,-(sp)
  f83d30:	40c2           	move.w sr,d2
  f83d32:	007c 0700      	ori.w #1792,sr
  f83d36:	61ff ffff ffa4 	bsr.l 0xf83cdc
  f83d3c:	72ff           	moveq #-1,d1
  f83d3e:	b280           	cmp.l d0,d1
  f83d40:	6710           	beq.s 0xf83d52
  f83d42:	197c 0001 8026 	move.b #1,-32730(a4)
  f83d48:	2f00           	move.l d0,-(sp)
  f83d4a:	61ff ffff fe5e 	bsr.l 0xf83baa
  f83d50:	588f           	addq.l #4,sp
  f83d52:	46c2           	move.w d2,sr
  f83d54:	241f           	move.l (sp)+,d2
  f83d56:	4e75           	rts
  f83d58:	61ff ffff fe1a 	bsr.l 0xf83b74
  f83d5e:	72ff           	moveq #-1,d1
  f83d60:	b280           	cmp.l d0,d1
  f83d62:	6616           	bne.s 0xf83d7a
  f83d64:	61ff ffff ffc8 	bsr.l 0xf83d2e
  f83d6a:	61ff ffff fe08 	bsr.l 0xf83b74
  f83d70:	72ff           	moveq #-1,d1
  f83d72:	b280           	cmp.l d0,d1
  f83d74:	6604           	bne.s 0xf83d7a
  f83d76:	70ff           	moveq #-1,d0
  f83d78:	4e75           	rts
  f83d7a:	720d           	moveq #13,d1
  f83d7c:	b2ac 802a      	cmp.l -32726(a4),d1
  f83d80:	6606           	bne.s 0xf83d88
  f83d82:	720a           	moveq #10,d1
  f83d84:	b280           	cmp.l d0,d1
  f83d86:	67ee           	beq.s 0xf83d76
  f83d88:	2940 802a      	move.l d0,-32726(a4)
  f83d8c:	7200           	moveq #0,d1
  f83d8e:	4601           	not.b d1
  f83d90:	c081           	and.l d1,d0
  f83d92:	60e4           	bra.s 0xf83d78
  f83d94:	2f02           	move.l d2,-(sp)
  f83d96:	242f 0008      	move.l 8(sp),d2
  f83d9a:	700a           	moveq #10,d0
  f83d9c:	b082           	cmp.l d2,d0
  f83d9e:	6616           	bne.s 0xf83db6
  f83da0:	4878 000d      	pea 0xd
  f83da4:	61ff ffff fe94 	bsr.l 0xf83c3a
  f83daa:	4878 000d      	pea 0xd
  f83dae:	61ff ffff f444 	bsr.l 0xf831f4
  f83db4:	508f           	addq.l #8,sp
  f83db6:	2f02           	move.l d2,-(sp)
  f83db8:	61ff ffff fe80 	bsr.l 0xf83c3a
  f83dbe:	2f02           	move.l d2,-(sp)
  f83dc0:	61ff ffff f432 	bsr.l 0xf831f4
  f83dc6:	508f           	addq.l #8,sp
  f83dc8:	2002           	move.l d2,d0
  f83dca:	241f           	move.l (sp)+,d2
  f83dcc:	4e75           	rts
  f83dce:	0d0a 0000      	movep.w 0(a2),d6
  f83dd2:	2f0c           	move.l a4,-(sp)
  f83dd4:	2f02           	move.l d2,-(sp)
  f83dd6:	242f 000c      	move.l 12(sp),d2
  f83dda:	2f02           	move.l d2,-(sp)
  f83ddc:	61ff ffff ff1e 	bsr.l 0xf83cfc
  f83de2:	4878 000d      	pea 0xd
  f83de6:	61ff ffff fe52 	bsr.l 0xf83c3a
  f83dec:	4878 000a      	pea 0xa
  f83df0:	61ff ffff fe48 	bsr.l 0xf83c3a
  f83df6:	2f02           	move.l d2,-(sp)
  f83df8:	61ff ffff f4f0 	bsr.l 0xf832ea
  f83dfe:	487a ffce      	pea 0xf83dce(pc)
  f83e02:	61ff ffff f4e6 	bsr.l 0xf832ea
  f83e08:	4fef 0014      	lea 20(sp),sp
  f83e0c:	4280           	clr.l d0
  f83e0e:	241f           	move.l (sp)+,d2
  f83e10:	285f           	movea.l (sp)+,a4
  f83e12:	4e75           	rts
  f83e14:	2f0c           	move.l a4,-(sp)
  f83e16:	2f02           	move.l d2,-(sp)
  f83e18:	42ac 90e2      	clr.l -28446(a4)
  f83e1c:	202c 90b2      	move.l -28494(a4),d0
  f83e20:	204c           	movea.l a4,a0
  f83e22:	d1fc ffff 90b6 	adda.l #-28490,a0
  f83e28:	224c           	movea.l a4,a1
  f83e2a:	d3fc ffff 9032 	adda.l #-28622,a1
  f83e30:	2210           	move.l (a0),d1
  f83e32:	b081           	cmp.l d1,d0
  f83e34:	660a           	bne.s 0xf83e40
  f83e36:	61ff ffff fef6 	bsr.l 0xf83d2e
  f83e3c:	4280           	clr.l d0
  f83e3e:	6016           	bra.s 0xf83e56
  f83e40:	2200           	move.l d0,d1
  f83e42:	5281           	addq.l #1,d1
  f83e44:	743f           	moveq #63,d2
  f83e46:	c282           	and.l d2,d1
  f83e48:	0c71 0003 0a00 	cmpi.w #3,(0,a1,d0.l*2)
  f83e4e:	660c           	bne.s 0xf83e5c
  f83e50:	2941 90b2      	move.l d1,-28494(a4)
  f83e54:	7001           	moveq #1,d0
  f83e56:	241f           	move.l (sp)+,d2
  f83e58:	285f           	movea.l (sp)+,a4
  f83e5a:	4e75           	rts
  f83e5c:	2001           	move.l d1,d0
  f83e5e:	60d0           	bra.s 0xf83e30
  f83e60:	48e7 3838      	movem.l d2-d4/a2-a4,-(sp)
  f83e64:	244c           	movea.l a4,a2
  f83e66:	d5fc ffff 802e 	adda.l #-32722,a2
  f83e6c:	3612           	move.w (a2),d3
  f83e6e:	4284           	clr.l d4
  f83e70:	3803           	move.w d3,d4
  f83e72:	4282           	clr.l d2
  f83e74:	264c           	movea.l a4,a3
  f83e76:	d7fc ffff 8032 	adda.l #-32718,a3
  f83e7c:	b882           	cmp.l d2,d4
  f83e7e:	6608           	bne.s 0xf83e88
  f83e80:	3483           	move.w d3,(a2)
  f83e82:	4cdf 1c1c      	movem.l (sp)+,d2-d4/a2-a4
  f83e86:	4e75           	rts
  f83e88:	4280           	clr.l d0
  f83e8a:	1033 2800      	move.b (0,a3,d2.l),d0
  f83e8e:	2f00           	move.l d0,-(sp)
  f83e90:	61ff ffff ff02 	bsr.l 0xf83d94
  f83e96:	5282           	addq.l #1,d2
  f83e98:	0282 0000 0fff 	andi.l #4095,d2
  f83e9e:	588f           	addq.l #4,sp
  f83ea0:	60da           	bra.s 0xf83e7c
  f83ea2:	0000 48e7      	ori.b #-25,d0
  f83ea6:	3800           	move.w d0,d4
  f83ea8:	242f 0010      	move.l 16(sp),d2
  f83eac:	202f 0014      	move.l 20(sp),d0
  f83eb0:	262f 0018      	move.l 24(sp),d3
  f83eb4:	2203           	move.l d3,d1
  f83eb6:	e189           	lsl.l #8,d1
  f83eb8:	0281 0000 ffff 	andi.l #65535,d1
  f83ebe:	ee8b           	lsr.l #7,d3
  f83ec0:	7802           	moveq #2,d4
  f83ec2:	c684           	and.l d4,d3
  f83ec4:	8283           	or.l d3,d1
  f83ec6:	7601           	moveq #1,d3
  f83ec8:	c682           	and.l d2,d3
  f83eca:	8283           	or.l d3,d1
  f83ecc:	2600           	move.l d0,d3
  f83ece:	7818           	moveq #24,d4
  f83ed0:	e9ab           	lsl.l d4,d3
  f83ed2:	8283           	or.l d3,d1
  f83ed4:	e28a           	lsr.l #1,d2
  f83ed6:	7610           	moveq #16,d3
  f83ed8:	e7aa           	lsl.l d3,d2
  f83eda:	8282           	or.l d2,d1
  f83edc:	ec88           	lsr.l #6,d0
  f83ede:	7804           	moveq #4,d4
  f83ee0:	c084           	and.l d4,d0
  f83ee2:	8081           	or.l d1,d0
  f83ee4:	4cdf 001c      	movem.l (sp)+,d2-d4
  f83ee8:	4e75           	rts
  f83eea:	2f0a           	move.l a2,-(sp)
  f83eec:	297c 0000 1080 	move.l #4224,-28478(a4)
  f83ef2:	90c2 
  f83ef4:	347c 1080      	movea.w #4224,a2
  f83ef8:	24bc 2c49 4000 	move.l #742998016,(a2)
  f83efe:	21fc c000 0000 	move.l #-1073741824,0x1084
  f83f04:	1084 
  f83f06:	21fc a000 4000 	move.l #-1610596352,0x1088
  f83f0c:	1088 
  f83f0e:	21fc 9000 6000 	move.l #-1879023616,0x108c
  f83f14:	108c 
  f83f16:	21fc 8800 7000 	move.l #-2013237248,0x1090
  f83f1c:	1090 
  f83f1e:	21fc 9c00 6000 	move.l #-1677697024,0x1094
  f83f24:	1094 
  f83f26:	21fc c800 3000 	move.l #-939511808,0x1098
  f83f2c:	1098 
  f83f2e:	21fc a400 1800 	move.l #-1543497728,0x109c
  f83f34:	109c 
  f83f36:	21fc 2400 1800 	move.l #603985920,0x10a0
  f83f3c:	10a0 
  f83f3e:	21fc 1800 0000 	move.l #402653184,0x10a4
  f83f44:	10a4 
  f83f46:	42b8 10a8      	clr.l 0x10a8
  f83f4a:	297c 0000 10ac 	move.l #4268,-28482(a4)
  f83f50:	90be 
  f83f52:	327c 10ac      	movea.w #4268,a1
  f83f56:	22bc 2c40 3400 	move.l #742405120,(a1)
  f83f5c:	21fc f000 f000 	move.l #-268374016,0x10b0
  f83f62:	10b0 
  f83f64:	21fc f000 f000 	move.l #-268374016,0x10b4
  f83f6a:	10b4 
  f83f6c:	21fc f000 f000 	move.l #-268374016,0x10b8
  f83f72:	10b8 
  f83f74:	21fc f000 f000 	move.l #-268374016,0x10bc
  f83f7a:	10bc 
  f83f7c:	21fc f000 f000 	move.l #-268374016,0x10c0
  f83f82:	10c0 
  f83f84:	21fc f000 f000 	move.l #-268374016,0x10c4
  f83f8a:	10c4 
  f83f8c:	21fc f000 f000 	move.l #-268374016,0x10c8
  f83f92:	10c8 
  f83f94:	21fc f000 f000 	move.l #-268374016,0x10cc
  f83f9a:	10cc 
  f83f9c:	42b8 10d0      	clr.l 0x10d0
  f83fa0:	297c 0000 10d4 	move.l #4308,-28486(a4)
  f83fa6:	90ba 
  f83fa8:	307c 10d4      	movea.w #4308,a0
  f83fac:	4290           	clr.l (a0)
  f83fae:	42b8 10d8      	clr.l 0x10d8
  f83fb2:	42b8 10dc      	clr.l 0x10dc
  f83fb6:	42b8 10e0      	clr.l 0x10e0
  f83fba:	42b8 10e4      	clr.l 0x10e4
  f83fbe:	42b8 10e8      	clr.l 0x10e8
  f83fc2:	42b8 10ec      	clr.l 0x10ec
  f83fc6:	42b8 10f0      	clr.l 0x10f0
  f83fca:	42b8 10f4      	clr.l 0x10f4
  f83fce:	42b8 10f8      	clr.l 0x10f8
  f83fd2:	23ca 00df f120 	move.l a2,0xdff120
  f83fd8:	23c8 00df f124 	move.l a0,0xdff124
  f83fde:	23c9 00df f128 	move.l a1,0xdff128
  f83fe4:	23c8 00df f12c 	move.l a0,0xdff12c
  f83fea:	23c8 00df f130 	move.l a0,0xdff130
  f83ff0:	23c8 00df f134 	move.l a0,0xdff134
  f83ff6:	23c8 00df f138 	move.l a0,0xdff138
  f83ffc:	23c8 00df f13c 	move.l a0,0xdff13c
  f84002:	33fc 0fff 00df 	move.w #4095,0xdff1a2
  f84008:	f1a2 
  f8400a:	4279 00df f1a4 	clr.w 0xdff1a4
  f84010:	33fc 044f 00df 	move.w #1103,0xdff1a6
  f84016:	f1a6 
  f84018:	33fc 004f 00df 	move.w #79,0xdff1aa
  f8401e:	f1aa 
  f84020:	33fc 04f0 00df 	move.w #1264,0xdff1ac
  f84026:	f1ac 
  f84028:	33fc 0a70 00df 	move.w #2672,0xdff1ae
  f8402e:	f1ae 
  f84030:	33fc 8020 00df 	move.w #-32736,0xdff096
  f84036:	f096 
  f84038:	245f           	movea.l (sp)+,a2
  f8403a:	4e75           	rts
  f8403c:	4fef ffe8      	lea -24(sp),sp
  f84040:	48e7 3f36      	movem.l d2-d7/a2-a3/a5-a6,-(sp)
  f84044:	2c6f 0044      	movea.l 68(sp),a6
  f84048:	246f 0048      	movea.l 72(sp),a2
  f8404c:	2a2f 004c      	move.l 76(sp),d5
  f84050:	204e           	movea.l a6,a0
  f84052:	2a48           	movea.l a0,a5
  f84054:	161d           	move.b (a5)+,d3
  f84056:	0c03 0020      	cmpi.b #32,d3
  f8405a:	6758           	beq.s 0xf840b4
  f8405c:	0c03 0009      	cmpi.b #9,d3
  f84060:	6752           	beq.s 0xf840b4
  f84062:	0c03 002d      	cmpi.b #45,d3
  f84066:	6650           	bne.s 0xf840b8
  f84068:	4be8 0002      	lea 2(a0),a5
  f8406c:	1628 0001      	move.b 1(a0),d3
  f84070:	7801           	moveq #1,d4
  f84072:	70ef           	moveq #-17,d0
  f84074:	c085           	and.l d5,d0
  f84076:	6600 013c      	bne.w 0xf841b4
  f8407a:	0c03 0030      	cmpi.b #48,d3
  f8407e:	664a           	bne.s 0xf840ca
  f84080:	1015           	move.b (a5),d0
  f84082:	0200 00df      	andi.b #-33,d0
  f84086:	0c00 0058      	cmpi.b #88,d0
  f8408a:	663e           	bne.s 0xf840ca
  f8408c:	102d 0001      	move.b 1(a5),d0
  f84090:	1200           	move.b d0,d1
  f84092:	0601 00d0      	addi.b #-48,d1
  f84096:	0c01 0009      	cmpi.b #9,d1
  f8409a:	6310           	bls.s 0xf840ac
  f8409c:	1200           	move.b d0,d1
  f8409e:	0201 00df      	andi.b #-33,d1
  f840a2:	0601 00bf      	addi.b #-65,d1
  f840a6:	0c01 0005      	cmpi.b #5,d1
  f840aa:	621e           	bhi.s 0xf840ca
  f840ac:	548d           	addq.l #2,a5
  f840ae:	1600           	move.b d0,d3
  f840b0:	7a10           	moveq #16,d5
  f840b2:	6024           	bra.s 0xf840d8
  f840b4:	204d           	movea.l a5,a0
  f840b6:	609a           	bra.s 0xf84052
  f840b8:	0c03 002b      	cmpi.b #43,d3
  f840bc:	6608           	bne.s 0xf840c6
  f840be:	4be8 0002      	lea 2(a0),a5
  f840c2:	1628 0001      	move.b 1(a0),d3
  f840c6:	4284           	clr.l d4
  f840c8:	60a8           	bra.s 0xf84072
  f840ca:	4a85           	tst.l d5
  f840cc:	66e2           	bne.s 0xf840b0
  f840ce:	0c03 0030      	cmpi.b #48,d3
  f840d2:	6600 00da      	bne.w 0xf841ae
  f840d6:	7a08           	moveq #8,d5
  f840d8:	2204           	move.l d4,d1
  f840da:	5bc0           	smi d0
  f840dc:	49c0           	extb.l d0
  f840de:	2c3c 7fff ffff 	move.l #2147483647,d6
  f840e4:	7eff           	moveq #-1,d7
  f840e6:	de81           	add.l d1,d7
  f840e8:	dd80           	addx.l d0,d6
  f840ea:	2f46 0030      	move.l d6,48(sp)
  f840ee:	2f47 0034      	move.l d7,52(sp)
  f840f2:	2f45 003c      	move.l d5,60(sp)
  f840f6:	5bc7           	smi d7
  f840f8:	49c7           	extb.l d7
  f840fa:	2f47 0038      	move.l d7,56(sp)
  f840fe:	2f2f 003c      	move.l 60(sp),-(sp)
  f84102:	2f2f 003c      	move.l 60(sp),-(sp)
  f84106:	2f2f 003c      	move.l 60(sp),-(sp)
  f8410a:	2f2f 003c      	move.l 60(sp),-(sp)
  f8410e:	61ff 0000 67a4 	bsr.l 0xf8a8b4
  f84114:	4fef 0010      	lea 16(sp),sp
  f84118:	2641           	movea.l d1,a3
  f8411a:	2f2f 003c      	move.l 60(sp),-(sp)
  f8411e:	2f2f 003c      	move.l 60(sp),-(sp)
  f84122:	2f2f 003c      	move.l 60(sp),-(sp)
  f84126:	2f2f 003c      	move.l 60(sp),-(sp)
  f8412a:	61ff 0000 6208 	bsr.l 0xf8a334
  f84130:	4fef 0010      	lea 16(sp),sp
  f84134:	2f40 0028      	move.l d0,40(sp)
  f84138:	2f41 002c      	move.l d1,44(sp)
  f8413c:	41f8 0000      	lea 0x0,a0
  f84140:	4280           	clr.l d0
  f84142:	4281           	clr.l d1
  f84144:	1403           	move.b d3,d2
  f84146:	0602 00d0      	addi.b #-48,d2
  f8414a:	0c02 0009      	cmpi.b #9,d2
  f8414e:	627a           	bhi.s 0xf841ca
  f84150:	1602           	move.b d2,d3
  f84152:	1403           	move.b d3,d2
  f84154:	49c2           	extb.l d2
  f84156:	ba82           	cmp.l d2,d5
  f84158:	6f00 009e      	ble.w 0xf841f8
  f8415c:	7cff           	moveq #-1,d6
  f8415e:	bc88           	cmp.l a0,d6
  f84160:	6748           	beq.s 0xf841aa
  f84162:	2c2f 0028      	move.l 40(sp),d6
  f84166:	2e2f 002c      	move.l 44(sp),d7
  f8416a:	9e81           	sub.l d1,d7
  f8416c:	9d80           	subx.l d0,d6
  f8416e:	6500 0082      	bcs.w 0xf841f2
  f84172:	2c2f 0028      	move.l 40(sp),d6
  f84176:	2e2f 002c      	move.l 44(sp),d7
  f8417a:	9e81           	sub.l d1,d7
  f8417c:	9d80           	subx.l d0,d6
  f8417e:	6604           	bne.s 0xf84184
  f84180:	b7c2           	cmpa.l d2,a3
  f84182:	6d6e           	blt.s 0xf841f2
  f84184:	2f01           	move.l d1,-(sp)
  f84186:	2f00           	move.l d0,-(sp)
  f84188:	2f2f 0044      	move.l 68(sp),-(sp)
  f8418c:	2f2f 0044      	move.l 68(sp),-(sp)
  f84190:	61ff 0000 60b2 	bsr.l 0xf8a244
  f84196:	4fef 0010      	lea 16(sp),sp
  f8419a:	1603           	move.b d3,d3
  f8419c:	49c3           	extb.l d3
  f8419e:	5bc2           	smi d2
  f841a0:	49c2           	extb.l d2
  f841a2:	d283           	add.l d3,d1
  f841a4:	d182           	addx.l d2,d0
  f841a6:	307c 0001      	movea.w #1,a0
  f841aa:	161d           	move.b (a5)+,d3
  f841ac:	6096           	bra.s 0xf84144
  f841ae:	7a0a           	moveq #10,d5
  f841b0:	6000 ff26      	bra.w 0xf840d8
  f841b4:	2005           	move.l d5,d0
  f841b6:	5580           	subq.l #2,d0
  f841b8:	7222           	moveq #34,d1
  f841ba:	b280           	cmp.l d0,d1
  f841bc:	6400 ff1a      	bcc.w 0xf840d8
  f841c0:	4280           	clr.l d0
  f841c2:	4281           	clr.l d1
  f841c4:	4a8a           	tst.l a2
  f841c6:	664a           	bne.s 0xf84212
  f841c8:	604a           	bra.s 0xf84214
  f841ca:	1403           	move.b d3,d2
  f841cc:	0602 00bf      	addi.b #-65,d2
  f841d0:	0c02 0019      	cmpi.b #25,d2
  f841d4:	6208           	bhi.s 0xf841de
  f841d6:	0603 00c9      	addi.b #-55,d3
  f841da:	6000 ff76      	bra.w 0xf84152
  f841de:	1403           	move.b d3,d2
  f841e0:	0602 009f      	addi.b #-97,d2
  f841e4:	0c02 0019      	cmpi.b #25,d2
  f841e8:	620e           	bhi.s 0xf841f8
  f841ea:	0603 00a9      	addi.b #-87,d3
  f841ee:	6000 ff62      	bra.w 0xf84152
  f841f2:	307c ffff      	movea.w #-1,a0
  f841f6:	60b2           	bra.s 0xf841aa
  f841f8:	7eff           	moveq #-1,d7
  f841fa:	be88           	cmp.l a0,d7
  f841fc:	6720           	beq.s 0xf8421e
  f841fe:	4a88           	tst.l a0
  f84200:	67c2           	beq.s 0xf841c4
  f84202:	4a84           	tst.l d4
  f84204:	6704           	beq.s 0xf8420a
  f84206:	4481           	neg.l d1
  f84208:	4080           	negx.l d0
  f8420a:	4a8a           	tst.l a2
  f8420c:	6706           	beq.s 0xf84214
  f8420e:	4ded ffff      	lea -1(a5),a6
  f84212:	248e           	move.l a6,(a2)
  f84214:	4cdf 6cfc      	movem.l (sp)+,d2-d7/a2-a3/a5-a6
  f84218:	4fef 0018      	lea 24(sp),sp
  f8421c:	4e75           	rts
  f8421e:	202f 0030      	move.l 48(sp),d0
  f84222:	222f 0034      	move.l 52(sp),d1
  f84226:	60e2           	bra.s 0xf8420a
  f84228:	4fef fff0      	lea -16(sp),sp
  f8422c:	48e7 3f36      	movem.l d2-d7/a2-a3/a5-a6,-(sp)
  f84230:	2c6f 003c      	movea.l 60(sp),a6
  f84234:	246f 0040      	movea.l 64(sp),a2
  f84238:	2c2f 0044      	move.l 68(sp),d6
  f8423c:	204e           	movea.l a6,a0
  f8423e:	2a48           	movea.l a0,a5
  f84240:	161d           	move.b (a5)+,d3
  f84242:	0c03 0020      	cmpi.b #32,d3
  f84246:	6758           	beq.s 0xf842a0
  f84248:	0c03 0009      	cmpi.b #9,d3
  f8424c:	6752           	beq.s 0xf842a0
  f8424e:	0c03 002d      	cmpi.b #45,d3
  f84252:	6650           	bne.s 0xf842a4
  f84254:	4be8 0002      	lea 2(a0),a5
  f84258:	1628 0001      	move.b 1(a0),d3
  f8425c:	7e01           	moveq #1,d7
  f8425e:	70ef           	moveq #-17,d0
  f84260:	c086           	and.l d6,d0
  f84262:	6600 0124      	bne.w 0xf84388
  f84266:	0c03 0030      	cmpi.b #48,d3
  f8426a:	664a           	bne.s 0xf842b6
  f8426c:	1015           	move.b (a5),d0
  f8426e:	0200 00df      	andi.b #-33,d0
  f84272:	0c00 0058      	cmpi.b #88,d0
  f84276:	663e           	bne.s 0xf842b6
  f84278:	102d 0001      	move.b 1(a5),d0
  f8427c:	1200           	move.b d0,d1
  f8427e:	0601 00d0      	addi.b #-48,d1
  f84282:	0c01 0009      	cmpi.b #9,d1
  f84286:	6310           	bls.s 0xf84298
  f84288:	1200           	move.b d0,d1
  f8428a:	0201 00df      	andi.b #-33,d1
  f8428e:	0601 00bf      	addi.b #-65,d1
  f84292:	0c01 0005      	cmpi.b #5,d1
  f84296:	621e           	bhi.s 0xf842b6
  f84298:	548d           	addq.l #2,a5
  f8429a:	1600           	move.b d0,d3
  f8429c:	7c10           	moveq #16,d6
  f8429e:	6024           	bra.s 0xf842c4
  f842a0:	204d           	movea.l a5,a0
  f842a2:	609a           	bra.s 0xf8423e
  f842a4:	0c03 002b      	cmpi.b #43,d3
  f842a8:	6608           	bne.s 0xf842b2
  f842aa:	4be8 0002      	lea 2(a0),a5
  f842ae:	1628 0001      	move.b 1(a0),d3
  f842b2:	4287           	clr.l d7
  f842b4:	60a8           	bra.s 0xf8425e
  f842b6:	4a86           	tst.l d6
  f842b8:	66e2           	bne.s 0xf8429c
  f842ba:	0c03 0030      	cmpi.b #48,d3
  f842be:	6600 00c2      	bne.w 0xf84382
  f842c2:	7c08           	moveq #8,d6
  f842c4:	2f46 0034      	move.l d6,52(sp)
  f842c8:	5bc2           	smi d2
  f842ca:	49c2           	extb.l d2
  f842cc:	2f42 0030      	move.l d2,48(sp)
  f842d0:	2f2f 0034      	move.l 52(sp),-(sp)
  f842d4:	2f2f 0034      	move.l 52(sp),-(sp)
  f842d8:	4878 ffff      	pea 0xffffffff
  f842dc:	4878 ffff      	pea 0xffffffff
  f842e0:	61ff 0000 6052 	bsr.l 0xf8a334
  f842e6:	4fef 0010      	lea 16(sp),sp
  f842ea:	2f40 0028      	move.l d0,40(sp)
  f842ee:	2f41 002c      	move.l d1,44(sp)
  f842f2:	2f2f 0034      	move.l 52(sp),-(sp)
  f842f6:	2f2f 0034      	move.l 52(sp),-(sp)
  f842fa:	4878 ffff      	pea 0xffffffff
  f842fe:	4878 ffff      	pea 0xffffffff
  f84302:	61ff 0000 65b0 	bsr.l 0xf8a8b4
  f84308:	4fef 0010      	lea 16(sp),sp
  f8430c:	2641           	movea.l d1,a3
  f8430e:	41f8 0000      	lea 0x0,a0
  f84312:	4280           	clr.l d0
  f84314:	4281           	clr.l d1
  f84316:	1403           	move.b d3,d2
  f84318:	0602 00d0      	addi.b #-48,d2
  f8431c:	0c02 0009      	cmpi.b #9,d2
  f84320:	627c           	bhi.s 0xf8439e
  f84322:	1602           	move.b d2,d3
  f84324:	1803           	move.b d3,d4
  f84326:	49c4           	extb.l d4
  f84328:	2244           	movea.l d4,a1
  f8432a:	bc84           	cmp.l d4,d6
  f8432c:	6f00 009e      	ble.w 0xf843cc
  f84330:	7aff           	moveq #-1,d5
  f84332:	ba88           	cmp.l a0,d5
  f84334:	6748           	beq.s 0xf8437e
  f84336:	282f 0028      	move.l 40(sp),d4
  f8433a:	2a2f 002c      	move.l 44(sp),d5
  f8433e:	9a81           	sub.l d1,d5
  f84340:	9980           	subx.l d0,d4
  f84342:	6500 0082      	bcs.w 0xf843c6
  f84346:	282f 0028      	move.l 40(sp),d4
  f8434a:	2a2f 002c      	move.l 44(sp),d5
  f8434e:	9a81           	sub.l d1,d5
  f84350:	9980           	subx.l d0,d4
  f84352:	6604           	bne.s 0xf84358
  f84354:	b7c9           	cmpa.l a1,a3
  f84356:	6d6e           	blt.s 0xf843c6
  f84358:	2f01           	move.l d1,-(sp)
  f8435a:	2f00           	move.l d0,-(sp)
  f8435c:	2f2f 003c      	move.l 60(sp),-(sp)
  f84360:	2f2f 003c      	move.l 60(sp),-(sp)
  f84364:	61ff 0000 5ede 	bsr.l 0xf8a244
  f8436a:	4fef 0010      	lea 16(sp),sp
  f8436e:	1603           	move.b d3,d3
  f84370:	49c3           	extb.l d3
  f84372:	5bc2           	smi d2
  f84374:	49c2           	extb.l d2
  f84376:	d283           	add.l d3,d1
  f84378:	d182           	addx.l d2,d0
  f8437a:	307c 0001      	movea.w #1,a0
  f8437e:	161d           	move.b (a5)+,d3
  f84380:	6094           	bra.s 0xf84316
  f84382:	7c0a           	moveq #10,d6
  f84384:	6000 ff3e      	bra.w 0xf842c4
  f84388:	2006           	move.l d6,d0
  f8438a:	5580           	subq.l #2,d0
  f8438c:	7222           	moveq #34,d1
  f8438e:	b280           	cmp.l d0,d1
  f84390:	6400 ff32      	bcc.w 0xf842c4
  f84394:	4280           	clr.l d0
  f84396:	4281           	clr.l d1
  f84398:	4a8a           	tst.l a2
  f8439a:	664a           	bne.s 0xf843e6
  f8439c:	604a           	bra.s 0xf843e8
  f8439e:	1403           	move.b d3,d2
  f843a0:	0602 00bf      	addi.b #-65,d2
  f843a4:	0c02 0019      	cmpi.b #25,d2
  f843a8:	6208           	bhi.s 0xf843b2
  f843aa:	0603 00c9      	addi.b #-55,d3
  f843ae:	6000 ff74      	bra.w 0xf84324
  f843b2:	1403           	move.b d3,d2
  f843b4:	0602 009f      	addi.b #-97,d2
  f843b8:	0c02 0019      	cmpi.b #25,d2
  f843bc:	620e           	bhi.s 0xf843cc
  f843be:	0603 00a9      	addi.b #-87,d3
  f843c2:	6000 ff60      	bra.w 0xf84324
  f843c6:	307c ffff      	movea.w #-1,a0
  f843ca:	60b2           	bra.s 0xf8437e
  f843cc:	7aff           	moveq #-1,d5
  f843ce:	ba88           	cmp.l a0,d5
  f843d0:	6720           	beq.s 0xf843f2
  f843d2:	4a88           	tst.l a0
  f843d4:	67c2           	beq.s 0xf84398
  f843d6:	4a87           	tst.l d7
  f843d8:	6704           	beq.s 0xf843de
  f843da:	4481           	neg.l d1
  f843dc:	4080           	negx.l d0
  f843de:	4a8a           	tst.l a2
  f843e0:	6706           	beq.s 0xf843e8
  f843e2:	4ded ffff      	lea -1(a5),a6
  f843e6:	248e           	move.l a6,(a2)
  f843e8:	4cdf 6cfc      	movem.l (sp)+,d2-d7/a2-a3/a5-a6
  f843ec:	4fef 0010      	lea 16(sp),sp
  f843f0:	4e75           	rts
  f843f2:	70ff           	moveq #-1,d0
  f843f4:	72ff           	moveq #-1,d1
  f843f6:	60e6           	bra.s 0xf843de
  f843f8:	2f03           	move.l d3,-(sp)
  f843fa:	2f02           	move.l d2,-(sp)
  f843fc:	207c 00bf e701 	movea.l #12576513,a0
  f84402:	1610           	move.b (a0),d3
  f84404:	1439 00bf e601 	move.b 0xbfe601,d2
  f8440a:	1010           	move.b (a0),d0
  f8440c:	1200           	move.b d0,d1
  f8440e:	9203           	sub.b d3,d1
  f84410:	8202           	or.b d2,d1
  f84412:	0280 0000 00ff 	andi.l #255,d0
  f84418:	e188           	lsl.l #8,d0
  f8441a:	8001           	or.b d1,d0
  f8441c:	241f           	move.l (sp)+,d2
  f8441e:	261f           	move.l (sp)+,d3
  f84420:	4e75           	rts
  f84422:	48e7 3e00      	movem.l d2-d6,-(sp)
  f84426:	40c6           	move.w sr,d6
  f84428:	007c 0700      	ori.w #1792,sr
  f8442c:	61ff ffff ffca 	bsr.l 0xf843f8
  f84432:	224c           	movea.l a4,a1
  f84434:	d3fc ffff 90c6 	adda.l #-28474,a1
  f8443a:	3211           	move.w (a1),d1
  f8443c:	204c           	movea.l a4,a0
  f8443e:	d1fc ffff 90c8 	adda.l #-28472,a0
  f84444:	2810           	move.l (a0),d4
  f84446:	2a28 0004      	move.l 4(a0),d5
  f8444a:	9240           	sub.w d0,d1
  f8444c:	4283           	clr.l d3
  f8444e:	3601           	move.w d1,d3
  f84450:	4282           	clr.l d2
  f84452:	d685           	add.l d5,d3
  f84454:	d584           	addx.l d4,d2
  f84456:	2082           	move.l d2,(a0)
  f84458:	2143 0004      	move.l d3,4(a0)
  f8445c:	3280           	move.w d0,(a1)
  f8445e:	46c6           	move.w d6,sr
  f84460:	2010           	move.l (a0),d0
  f84462:	2228 0004      	move.l 4(a0),d1
  f84466:	4cdf 007c      	movem.l (sp)+,d2-d6
  f8446a:	4e75           	rts
  f8446c:	48e7 3e00      	movem.l d2-d6,-(sp)
  f84470:	202f 0018      	move.l 24(sp),d0
  f84474:	222f 001c      	move.l 28(sp),d1
  f84478:	262c 90d8      	move.l -28456(a4),d3
  f8447c:	4282           	clr.l d2
  f8447e:	2800           	move.l d0,d4
  f84480:	2a01           	move.l d1,d5
  f84482:	7a0c           	moveq #12,d5
  f84484:	eaac           	lsr.l d5,d4
  f84486:	2a04           	move.l d4,d5
  f84488:	4284           	clr.l d4
  f8448a:	2c04           	move.l d4,d6
  f8448c:	8c85           	or.l d5,d6
  f8448e:	6740           	beq.s 0xf844d0
  f84490:	4878 03e8      	pea 0x3e8
  f84494:	42a7           	clr.l -(sp)
  f84496:	2f01           	move.l d1,-(sp)
  f84498:	2f00           	move.l d0,-(sp)
  f8449a:	61ff 0000 5da8 	bsr.l 0xf8a244
  f844a0:	4fef 000c      	lea 12(sp),sp
  f844a4:	2e83           	move.l d3,(sp)
  f844a6:	2f02           	move.l d2,-(sp)
  f844a8:	2f01           	move.l d1,-(sp)
  f844aa:	2f00           	move.l d0,-(sp)
  f844ac:	61ff 0000 5e86 	bsr.l 0xf8a334
  f844b2:	4fef 0010      	lea 16(sp),sp
  f844b6:	4878 03e8      	pea 0x3e8
  f844ba:	42a7           	clr.l -(sp)
  f844bc:	2f01           	move.l d1,-(sp)
  f844be:	2f00           	move.l d0,-(sp)
  f844c0:	61ff 0000 5d82 	bsr.l 0xf8a244
  f844c6:	4fef 0010      	lea 16(sp),sp
  f844ca:	4cdf 007c      	movem.l (sp)+,d2-d6
  f844ce:	4e75           	rts
  f844d0:	2f3c 000f 4240 	move.l #1000000,-(sp)
  f844d6:	42a7           	clr.l -(sp)
  f844d8:	2f01           	move.l d1,-(sp)
  f844da:	2f00           	move.l d0,-(sp)
  f844dc:	61ff 0000 5d66 	bsr.l 0xf8a244
  f844e2:	4fef 000c      	lea 12(sp),sp
  f844e6:	2e83           	move.l d3,(sp)
  f844e8:	2f02           	move.l d2,-(sp)
  f844ea:	2f01           	move.l d1,-(sp)
  f844ec:	2f00           	move.l d0,-(sp)
  f844ee:	61ff 0000 5e44 	bsr.l 0xf8a334
  f844f4:	60d0           	bra.s 0xf844c6
  f844f6:	2f03           	move.l d3,-(sp)
  f844f8:	2f02           	move.l d2,-(sp)
  f844fa:	61ff ffff ff26 	bsr.l 0xf84422
  f84500:	242f 000c      	move.l 12(sp),d2
  f84504:	262f 0010      	move.l 16(sp),d3
  f84508:	9681           	sub.l d1,d3
  f8450a:	9580           	subx.l d0,d2
  f8450c:	630a           	bls.s 0xf84518
  f8450e:	4e71           	nop
  f84510:	4280           	clr.l d0
  f84512:	241f           	move.l (sp)+,d2
  f84514:	261f           	move.l (sp)+,d3
  f84516:	4e75           	rts
  f84518:	7001           	moveq #1,d0
  f8451a:	60f6           	bra.s 0xf84512
  f8451c:	2f02           	move.l d2,-(sp)
  f8451e:	222c 90d8      	move.l -28456(a4),d1
  f84522:	4280           	clr.l d0
  f84524:	226f 0008      	movea.l 8(sp),a1
  f84528:	41f8 0000      	lea 0x0,a0
  f8452c:	2f09           	move.l a1,-(sp)
  f8452e:	2f08           	move.l a0,-(sp)
  f84530:	2f01           	move.l d1,-(sp)
  f84532:	2f00           	move.l d0,-(sp)
  f84534:	61ff 0000 5d0e 	bsr.l 0xf8a244
  f8453a:	4fef 0010      	lea 16(sp),sp
  f8453e:	4878 03e8      	pea 0x3e8
  f84542:	42a7           	clr.l -(sp)
  f84544:	2f01           	move.l d1,-(sp)
  f84546:	2f00           	move.l d0,-(sp)
  f84548:	61ff 0000 5dea 	bsr.l 0xf8a334
  f8454e:	4fef 0010      	lea 16(sp),sp
  f84552:	2401           	move.l d1,d2
  f84554:	61ff ffff fecc 	bsr.l 0xf84422
  f8455a:	91c8           	suba.l a0,a0
  f8455c:	93c9           	suba.l a1,a1
  f8455e:	2242           	movea.l d2,a1
  f84560:	2408           	move.l a0,d2
  f84562:	d289           	add.l a1,d1
  f84564:	d182           	addx.l d2,d0
  f84566:	241f           	move.l (sp)+,d2
  f84568:	4e75           	rts
  f8456a:	2f02           	move.l d2,-(sp)
  f8456c:	222c 90d8      	move.l -28456(a4),d1
  f84570:	4280           	clr.l d0
  f84572:	226f 0008      	movea.l 8(sp),a1
  f84576:	41f8 0000      	lea 0x0,a0
  f8457a:	2f09           	move.l a1,-(sp)
  f8457c:	2f08           	move.l a0,-(sp)
  f8457e:	2f01           	move.l d1,-(sp)
  f84580:	2f00           	move.l d0,-(sp)
  f84582:	61ff 0000 5cc0 	bsr.l 0xf8a244
  f84588:	4fef 000c      	lea 12(sp),sp
  f8458c:	2ebc 000f 4240 	move.l #1000000,(sp)
  f84592:	42a7           	clr.l -(sp)
  f84594:	2f01           	move.l d1,-(sp)
  f84596:	2f00           	move.l d0,-(sp)
  f84598:	61ff 0000 5d9a 	bsr.l 0xf8a334
  f8459e:	4fef 0010      	lea 16(sp),sp
  f845a2:	2401           	move.l d1,d2
  f845a4:	61ff ffff fe7c 	bsr.l 0xf84422
  f845aa:	91c8           	suba.l a0,a0
  f845ac:	93c9           	suba.l a1,a1
  f845ae:	2242           	movea.l d2,a1
  f845b0:	2408           	move.l a0,d2
  f845b2:	d289           	add.l a1,d1
  f845b4:	d182           	addx.l d2,d0
  f845b6:	241f           	move.l (sp)+,d2
  f845b8:	4e75           	rts
  f845ba:	2f03           	move.l d3,-(sp)
  f845bc:	2f02           	move.l d2,-(sp)
  f845be:	61ff ffff fe62 	bsr.l 0xf84422
  f845c4:	262f 000c      	move.l 12(sp),d3
  f845c8:	4282           	clr.l d2
  f845ca:	d681           	add.l d1,d3
  f845cc:	d580           	addx.l d0,d2
  f845ce:	2f03           	move.l d3,-(sp)
  f845d0:	2f02           	move.l d2,-(sp)
  f845d2:	61ff ffff ff22 	bsr.l 0xf844f6
  f845d8:	508f           	addq.l #8,sp
  f845da:	4a80           	tst.l d0
  f845dc:	67f0           	beq.s 0xf845ce
  f845de:	241f           	move.l (sp)+,d2
  f845e0:	261f           	move.l (sp)+,d3
  f845e2:	4e75           	rts
  f845e4:	2f03           	move.l d3,-(sp)
  f845e6:	2f02           	move.l d2,-(sp)
  f845e8:	2f2f 000c      	move.l 12(sp),-(sp)
  f845ec:	61ff ffff ff2e 	bsr.l 0xf8451c
  f845f2:	2400           	move.l d0,d2
  f845f4:	2601           	move.l d1,d3
  f845f6:	588f           	addq.l #4,sp
  f845f8:	2f03           	move.l d3,-(sp)
  f845fa:	2f02           	move.l d2,-(sp)
  f845fc:	61ff ffff fef8 	bsr.l 0xf844f6
  f84602:	508f           	addq.l #8,sp
  f84604:	4a80           	tst.l d0
  f84606:	67f0           	beq.s 0xf845f8
  f84608:	241f           	move.l (sp)+,d2
  f8460a:	261f           	move.l (sp)+,d3
  f8460c:	4e75           	rts
  f8460e:	2f03           	move.l d3,-(sp)
  f84610:	2f02           	move.l d2,-(sp)
  f84612:	2f2f 000c      	move.l 12(sp),-(sp)
  f84616:	61ff ffff ff52 	bsr.l 0xf8456a
  f8461c:	2400           	move.l d0,d2
  f8461e:	2601           	move.l d1,d3
  f84620:	588f           	addq.l #4,sp
  f84622:	2f03           	move.l d3,-(sp)
  f84624:	2f02           	move.l d2,-(sp)
  f84626:	61ff ffff fece 	bsr.l 0xf844f6
  f8462c:	508f           	addq.l #8,sp
  f8462e:	4a80           	tst.l d0
  f84630:	67f0           	beq.s 0xf84622
  f84632:	241f           	move.l (sp)+,d2
  f84634:	261f           	move.l (sp)+,d3
  f84636:	4e75           	rts
  f84638:	61ff ffff fde8 	bsr.l 0xf84422
  f8463e:	2001           	move.l d1,d0
  f84640:	4e75           	rts
  f84642:	4349           	.short 0x4349
  f84644:	412d 4120      	chk.l 16672(a5),d0
  f84648:	4543           	.short 0x4543
  f8464a:	4c4b           	.short 0x4c4b
  f8464c:	2074 696d 656f 	movea.l ([25967,a4],0),a0
  f84652:	7574           	.short 0x7574
  f84654:	0043 4941      	ori.w #18753,d3
  f84658:	2d41 2048      	move.l d1,8264(a6)
  f8465c:	7a20           	moveq #32,d5
  f8465e:	7469           	moveq #105,d2
  f84660:	636b           	bls.s 0xf846cd
  f84662:	2074 696d 656f 	movea.l ([25967,a4],0),a0
  f84668:	7574           	.short 0x7574
  f8466a:	0000 48e7      	ori.b #-25,d0
  f8466e:	3028 4239      	move.w 16953(a0),d0
  f84672:	00bf           	.short 0x00bf
  f84674:	ee01           	asr.b #7,d1
  f84676:	4239 00bf ef01 	clr.b 0xbfef01
  f8467c:	4239 00bf ea01 	clr.b 0xbfea01
  f84682:	4239 00bf e901 	clr.b 0xbfe901
  f84688:	4239 00bf e801 	clr.b 0xbfe801
  f8468e:	13fc 0008 00bf 	move.b #8,0xbfef01
  f84694:	ef01 
  f84696:	50f9 00bf e601 	st 0xbfe601
  f8469c:	50f9 00bf e701 	st 0xbfe701
  f846a2:	13fc 0019 00bf 	move.b #25,0xbfef01
  f846a8:	ef01 
  f846aa:	1439 00bf e701 	move.b 0xbfe701,d2
  f846b0:	1239 00bf e801 	move.b 0xbfe801,d1
  f846b6:	203c 0098 9680 	move.l #10000000,d0
  f846bc:	1639 00bf e701 	move.b 0xbfe701,d3
  f846c2:	b403           	cmp.b d3,d2
  f846c4:	6700 00c8      	beq.w 0xf8478e
  f846c8:	207c 00bf e801 	movea.l #12576769,a0
  f846ce:	1010           	move.b (a0),d0
  f846d0:	b200           	cmp.b d0,d1
  f846d2:	6700 00d2      	beq.w 0xf847a6
  f846d6:	13fc 0001 00bf 	move.b #1,0xbfef01
  f846dc:	ef01 
  f846de:	1010           	move.b (a0),d0
  f846e0:	1639 00bf e801 	move.b 0xbfe801,d3
  f846e6:	b600           	cmp.b d0,d3
  f846e8:	67f6           	beq.s 0xf846e0
  f846ea:	61ff ffff fd0c 	bsr.l 0xf843f8
  f846f0:	2400           	move.l d0,d2
  f846f2:	1039 00bf e801 	move.b 0xbfe801,d0
  f846f8:	b003           	cmp.b d3,d0
  f846fa:	67f6           	beq.s 0xf846f2
  f846fc:	61ff ffff fcfa 	bsr.l 0xf843f8
  f84702:	0282 0000 ffff 	andi.l #65535,d2
  f84708:	0280 0000 ffff 	andi.l #65535,d0
  f8470e:	9480           	sub.l d0,d2
  f84710:	61ff ffff fce6 	bsr.l 0xf843f8
  f84716:	2600           	move.l d0,d3
  f84718:	61ff ffff fcde 	bsr.l 0xf843f8
  f8471e:	0283 0000 ffff 	andi.l #65535,d3
  f84724:	0280 0000 ffff 	andi.l #65535,d0
  f8472a:	9680           	sub.l d0,d3
  f8472c:	2202           	move.l d2,d1
  f8472e:	9283           	sub.l d3,d1
  f84730:	43fa 008a      	lea 0xf847bc(pc),a1
  f84734:	4280           	clr.l d0
  f84736:	4282           	clr.l d2
  f84738:	3411           	move.w (a1),d2
  f8473a:	2042           	movea.l d2,a0
  f8473c:	45e8 fff1      	lea -15(a0),a2
  f84740:	b28a           	cmp.l a2,d1
  f84742:	6308           	bls.s 0xf8474c
  f84744:	41e8 000f      	lea 15(a0),a0
  f84748:	b288           	cmp.l a0,d1
  f8474a:	650c           	bcs.s 0xf84758
  f8474c:	5280           	addq.l #1,d0
  f8474e:	5089           	addq.l #8,a1
  f84750:	7404           	moveq #4,d2
  f84752:	b480           	cmp.l d0,d2
  f84754:	66e0           	bne.s 0xf84736
  f84756:	4280           	clr.l d0
  f84758:	4281           	clr.l d1
  f8475a:	1230 0fb0 00f8 	move.b (16271290,d0.l*8),d1
  f84760:	47ba 
  f84762:	2941 90d4      	move.l d1,-28460(a4)
  f84766:	2970 0fb0 00f8 	move.l (16271286,d0.l*8),-28456(a4)
  f8476c:	47b6 90d8 
  f84770:	1030 0fb0 00f8 	move.b (16271291,d0.l*8),d0
  f84776:	47bb 
  f84778:	0280 0000 00ff 	andi.l #255,d0
  f8477e:	2940 90d0      	move.l d0,-28464(a4)
  f84782:	61ff ffff fc74 	bsr.l 0xf843f8
  f84788:	3940 90c6      	move.w d0,-28474(a4)
  f8478c:	6012           	bra.s 0xf847a0
  f8478e:	5380           	subq.l #1,d0
  f84790:	6600 ff2a      	bne.w 0xf846bc
  f84794:	487a feac      	pea 0xf84642(pc)
  f84798:	61ff ffff f638 	bsr.l 0xf83dd2
  f8479e:	588f           	addq.l #4,sp
  f847a0:	4cdf 140c      	movem.l (sp)+,d2-d3/a2/a4
  f847a4:	4e75           	rts
  f847a6:	1039 00bf e701 	move.b 0xbfe701,d0
  f847ac:	6600 ff1a      	bne.w 0xf846c8
  f847b0:	487a fea3      	pea 0xf84655(pc)
  f847b4:	60e2           	bra.s 0xf84798
  f847b6:	000a           	.short 0x000a
  f847b8:	ec85           	asr.l #6,d5
  f847ba:	3c00           	move.w d0,d6
  f847bc:	2e9c           	move.l (a4)+,(sp)
  f847be:	000a           	.short 0x000a
  f847c0:	d303           	addx.b d3,d1
  f847c2:	3201           	move.w d1,d1
  f847c4:	376b 000a ec85 	move.w 10(a3),-4987(a3)
  f847ca:	3200           	move.w d0,d1
  f847cc:	37ee           	.short 0x37ee
  f847ce:	000a           	.short 0x000a
  f847d0:	d303           	addx.b d3,d1
  f847d2:	3c01           	move.w d1,d6
  f847d4:	2e2f 0000      	move.l 0(sp),d7
  f847d8:	2f0a           	move.l a2,-(sp)
  f847da:	2f02           	move.l d2,-(sp)
  f847dc:	4aac 90de      	tst.l -28450(a4)
  f847e0:	6618           	bne.s 0xf847fa
  f847e2:	297c 0008 0000 	move.l #524288,-28450(a4)
  f847e8:	90de 
  f847ea:	23fc 0007 fffc 	move.l #524284,0x80000
  f847f0:	0008 0000 
  f847f4:	42b9 0008 0004 	clr.l 0x80004
  f847fa:	202f 000c      	move.l 12(sp),d0
  f847fe:	5680           	addq.l #3,d0
  f84800:	72fc           	moveq #-4,d1
  f84802:	c081           	and.l d1,d0
  f84804:	206c 90de      	movea.l -28450(a4),a0
  f84808:	45f8 0000      	lea 0x0,a2
  f8480c:	4a88           	tst.l a0
  f8480e:	672e           	beq.s 0xf8483e
  f84810:	2210           	move.l (a0),d1
  f84812:	b081           	cmp.l d1,d0
  f84814:	623c           	bhi.s 0xf84852
  f84816:	2240           	movea.l d0,a1
  f84818:	5089           	addq.l #8,a1
  f8481a:	b3c1           	cmpa.l d1,a1
  f8481c:	6228           	bhi.s 0xf84846
  f8481e:	43f0 0804      	lea (4,a0,d0.l),a1
  f84822:	74fc           	moveq #-4,d2
  f84824:	9480           	sub.l d0,d2
  f84826:	d481           	add.l d1,d2
  f84828:	2182 0804      	move.l d2,(4,a0,d0.l)
  f8482c:	2368 0004 0004 	move.l 4(a0),4(a1)
  f84832:	2080           	move.l d0,(a0)
  f84834:	4a8a           	tst.l a2
  f84836:	6614           	bne.s 0xf8484c
  f84838:	2949 90de      	move.l a1,-28450(a4)
  f8483c:	5888           	addq.l #4,a0
  f8483e:	2008           	move.l a0,d0
  f84840:	241f           	move.l (sp)+,d2
  f84842:	245f           	movea.l (sp)+,a2
  f84844:	4e75           	rts
  f84846:	2268 0004      	movea.l 4(a0),a1
  f8484a:	60e8           	bra.s 0xf84834
  f8484c:	2549 0004      	move.l a1,4(a2)
  f84850:	60ea           	bra.s 0xf8483c
  f84852:	2448           	movea.l a0,a2
  f84854:	2068 0004      	movea.l 4(a0),a0
  f84858:	60b2           	bra.s 0xf8480c
  f8485a:	2f03           	move.l d3,-(sp)
  f8485c:	2f02           	move.l d2,-(sp)
  f8485e:	262f 0010      	move.l 16(sp),d3
  f84862:	4c2f 3800 000c 	muls.l 12(sp),d3
  f84868:	2f03           	move.l d3,-(sp)
  f8486a:	61ff ffff ff6c 	bsr.l 0xf847d8
  f84870:	2400           	move.l d0,d2
  f84872:	588f           	addq.l #4,sp
  f84874:	6710           	beq.s 0xf84886
  f84876:	2f03           	move.l d3,-(sp)
  f84878:	42a7           	clr.l -(sp)
  f8487a:	2f00           	move.l d0,-(sp)
  f8487c:	61ff 0000 6876 	bsr.l 0xf8b0f4
  f84882:	4fef 000c      	lea 12(sp),sp
  f84886:	2002           	move.l d2,d0
  f84888:	241f           	move.l (sp)+,d2
  f8488a:	261f           	move.l (sp)+,d3
  f8488c:	4e75           	rts
  f8488e:	48e7 3036      	movem.l d2-d3/a2-a3/a5-a6,-(sp)
  f84892:	246f 001c      	movea.l 28(sp),a2
  f84896:	4a8a           	tst.l a2
  f84898:	6750           	beq.s 0xf848ea
  f8489a:	224a           	movea.l a2,a1
  f8489c:	2021           	move.l -(a1),d0
  f8489e:	242c 90de      	move.l -28450(a4),d2
  f848a2:	2042           	movea.l d2,a0
  f848a4:	47f8 0000      	lea 0x0,a3
  f848a8:	72fc           	moveq #-4,d1
  f848aa:	c280           	and.l d0,d1
  f848ac:	4bf1 1804      	lea (4,a1,d1.l),a5
  f848b0:	4a88           	tst.l a0
  f848b2:	6604           	bne.s 0xf848b8
  f848b4:	2482           	move.l d2,(a2)
  f848b6:	604c           	bra.s 0xf84904
  f848b8:	2210           	move.l (a0),d1
  f848ba:	76fc           	moveq #-4,d3
  f848bc:	c681           	and.l d1,d3
  f848be:	4df0 3804      	lea (4,a0,d3.l),a6
  f848c2:	bdc9           	cmpa.l a1,a6
  f848c4:	662a           	bne.s 0xf848f0
  f848c6:	2241           	movea.l d1,a1
  f848c8:	43f1 0804      	lea (4,a1,d0.l),a1
  f848cc:	2009           	move.l a1,d0
  f848ce:	2089           	move.l a1,(a0)
  f848d0:	72fc           	moveq #-4,d1
  f848d2:	c280           	and.l d0,d1
  f848d4:	43f0 1804      	lea (4,a0,d1.l),a1
  f848d8:	b3e8 0004      	cmpa.l 4(a0),a1
  f848dc:	660c           	bne.s 0xf848ea
  f848de:	5880           	addq.l #4,d0
  f848e0:	d091           	add.l (a1),d0
  f848e2:	2080           	move.l d0,(a0)
  f848e4:	2169 0004 0004 	move.l 4(a1),4(a0)
  f848ea:	4cdf 6c0c      	movem.l (sp)+,d2-d3/a2-a3/a5-a6
  f848ee:	4e75           	rts
  f848f0:	bbc8           	cmpa.l a0,a5
  f848f2:	6616           	bne.s 0xf8490a
  f848f4:	2a41           	movea.l d1,a5
  f848f6:	4bf5 0804      	lea (4,a5,d0.l),a5
  f848fa:	228d           	move.l a5,(a1)
  f848fc:	24a8 0004      	move.l 4(a0),(a2)
  f84900:	4a8b           	tst.l a3
  f84902:	660e           	bne.s 0xf84912
  f84904:	2949 90de      	move.l a1,-28450(a4)
  f84908:	60e0           	bra.s 0xf848ea
  f8490a:	b3c8           	cmpa.l a0,a1
  f8490c:	640a           	bcc.s 0xf84918
  f8490e:	2488           	move.l a0,(a2)
  f84910:	60ee           	bra.s 0xf84900
  f84912:	2749 0004      	move.l a1,4(a3)
  f84916:	60d2           	bra.s 0xf848ea
  f84918:	2648           	movea.l a0,a3
  f8491a:	2068 0004      	movea.l 4(a0),a0
  f8491e:	6090           	bra.s 0xf848b0
  f84920:	48e7 3800      	movem.l d2-d4,-(sp)
  f84924:	262f 0010      	move.l 16(sp),d3
  f84928:	282f 0014      	move.l 20(sp),d4
  f8492c:	2f04           	move.l d4,-(sp)
  f8492e:	61ff ffff fea8 	bsr.l 0xf847d8
  f84934:	2400           	move.l d0,d2
  f84936:	2f04           	move.l d4,-(sp)
  f84938:	2f03           	move.l d3,-(sp)
  f8493a:	2f00           	move.l d0,-(sp)
  f8493c:	61ff 0000 664e 	bsr.l 0xf8af8c
  f84942:	2f03           	move.l d3,-(sp)
  f84944:	61ff ffff ff48 	bsr.l 0xf8488e
  f8494a:	4fef 0014      	lea 20(sp),sp
  f8494e:	2002           	move.l d2,d0
  f84950:	4cdf 001c      	movem.l (sp)+,d2-d4
  f84954:	4e75           	rts
  f84956:	48e7 3800      	movem.l d2-d4,-(sp)
  f8495a:	282f 0010      	move.l 16(sp),d4
  f8495e:	2f04           	move.l d4,-(sp)
  f84960:	61ff 0000 6892 	bsr.l 0xf8b1f4
  f84966:	2600           	move.l d0,d3
  f84968:	5283           	addq.l #1,d3
  f8496a:	2e83           	move.l d3,(sp)
  f8496c:	61ff ffff fe6a 	bsr.l 0xf847d8
  f84972:	2400           	move.l d0,d2
  f84974:	588f           	addq.l #4,sp
  f84976:	6710           	beq.s 0xf84988
  f84978:	2f03           	move.l d3,-(sp)
  f8497a:	2f04           	move.l d4,-(sp)
  f8497c:	2f00           	move.l d0,-(sp)
  f8497e:	61ff 0000 660c 	bsr.l 0xf8af8c
  f84984:	4fef 000c      	lea 12(sp),sp
  f84988:	2002           	move.l d2,d0
  f8498a:	4cdf 001c      	movem.l (sp)+,d2-d4
  f8498e:	4e75           	rts
  f84990:	33fc 0780 00df 	move.w #1920,0xdff09c
  f84996:	f09c 
  f84998:	33fc 0780 00df 	move.w #1920,0xdff09a
  f8499e:	f09a 
  f849a0:	33fc 0002 00df 	move.w #2,0xdff0a4
  f849a6:	f0a4 
  f849a8:	33fc 0099 00df 	move.w #153,0xdff180
  f849ae:	f180 
  f849b0:	52b8 1000      	addq.l #1,0x1000
  f849b4:	4e73           	rte
  f849b6:	48e7 c0c0      	movem.l d0-d1/a0-a1,-(sp)
  f849ba:	33fc 0008 00df 	move.w #8,0xdff09c
  f849c0:	f09c 
  f849c2:	1039 00bf ed01 	move.b 0xbfed01,d0
  f849c8:	0800 0000      	btst #0,d0
  f849cc:	6710           	beq.s 0xf849de
  f849ce:	13fc 0001 00bf 	move.b #1,0xbfed01
  f849d4:	ed01 
  f849d6:	33fc 0880 00df 	move.w #2176,0xdff180
  f849dc:	f180 
  f849de:	44c0           	move.w d0,ccr
  f849e0:	6a06           	bpl.s 0xf849e8
  f849e2:	61ff ffff c764 	bsr.l 0xf81148
  f849e8:	52b8 1008      	addq.l #1,0x1008
  f849ec:	4cdf 0303      	movem.l (sp)+,d0-d1/a0-a1
  f849f0:	4e73           	rte
  f849f2:	2020           	move.l -(a0),d0
  f849f4:	5350           	subq.w #1,(a0)
  f849f6:	2025           	move.l -(a5),d0
  f849f8:	3038 7800      	move.w 0x7800,d0
  f849fc:	2020           	move.l -(a0),d0
  f849fe:	5350           	subq.w #1,(a0)
  f84a00:	2025           	move.l -(a5),d0
  f84a02:	3038 7820      	move.w 0x7820,d0
  f84a06:	2050           	movea.l (a0),a0
  f84a08:	4320           	chk.l -(a0),d1
  f84a0a:	2530 3878      	move.l (120,a0,d3.l),-(a2)
  f84a0e:	2020           	move.l -(a0),d0
  f84a10:	5352           	subq.w #1,(a2)
  f84a12:	2025           	move.l -(a5),d0
  f84a14:	3032 780a      	move.w (10,a2,d7.l),d0
  f84a18:	0020 2044      	ori.b #68,-(a0)
  f84a1c:	3020           	move.w -(a0),d0
  f84a1e:	2530 3878      	move.l (120,a0,d3.l),-(a2)
  f84a22:	2020           	move.l -(a0),d0
  f84a24:	4431 2025      	neg.b (37,a1,d2.w)
  f84a28:	3038 7820      	move.w 0x7820,d0
  f84a2c:	2044           	movea.l d4,a0
  f84a2e:	3220           	move.w -(a0),d1
  f84a30:	2530 3878      	move.l (120,a0,d3.l),-(a2)
  f84a34:	2020           	move.l -(a0),d0
  f84a36:	4433 2025      	neg.b (37,a3,d2.w)
  f84a3a:	3038 7820      	move.w 0x7820,d0
  f84a3e:	2044           	movea.l d4,a0
  f84a40:	3420           	move.w -(a0),d2
  f84a42:	2530 3878      	move.l (120,a0,d3.l),-(a2)
  f84a46:	2020           	move.l -(a0),d0
  f84a48:	4435 2025      	neg.b (37,a5,d2.w)
  f84a4c:	3038 780a      	move.w 0x780a,d0
  f84a50:	0020 2041      	ori.b #65,-(a0)
  f84a54:	3020           	move.w -(a0),d0
  f84a56:	2530 3878      	move.l (120,a0,d3.l),-(a2)
  f84a5a:	2020           	move.l -(a0),d0
  f84a5c:	4131 2025      	chk.l (37,a1,d2.w),d0
  f84a60:	3038 7820      	move.w 0x7820,d0
  f84a64:	2041           	movea.l d1,a0
  f84a66:	3220           	move.w -(a0),d1
  f84a68:	2530 3878      	move.l (120,a0,d3.l),-(a2)
  f84a6c:	2020           	move.l -(a0),d0
  f84a6e:	4133 2025      	chk.l (37,a3,d2.w),d0
  f84a72:	3038 780a      	move.w 0x780a,d0
  f84a76:	000a           	.short 0x000a
  f84a78:	2000           	move.l d0,d0
  f84a7a:	2025           	move.l -(a5),d0
  f84a7c:	3038 7800      	move.w 0x7800,d0
  f84a80:	5175 6974 7469 	subq.w #8,([1953066599,a5],0)
  f84a86:	6e67 
  f84a88:	2e2e 2e00      	move.l 11776(a6),d7
  f84a8c:	48e7 203c      	movem.l d2/a2-a5,-(sp)
  f84a90:	246f 0018      	movea.l 24(sp),a2
  f84a94:	42ac 90e2      	clr.l -28446(a4)
  f84a98:	197c 0001 8026 	move.b #1,-32730(a4)
  f84a9e:	4a8a           	tst.l a2
  f84aa0:	6670           	bne.s 0xf84b12
  f84aa2:	264f           	movea.l sp,a3
  f84aa4:	2f0b           	move.l a3,-(sp)
  f84aa6:	487a ff4a      	pea 0xf849f2(pc)
  f84aaa:	61ff ffff d9b0 	bsr.l 0xf8245c
  f84ab0:	508f           	addq.l #8,sp
  f84ab2:	4282           	clr.l d2
  f84ab4:	4bfa ffc1      	lea 0xf84a77(pc),a5
  f84ab8:	45fa ffc0      	lea 0xf84a7a(pc),a2
  f84abc:	e8c2 0743      	bftst d2,29,3
  f84ac0:	660a           	bne.s 0xf84acc
  f84ac2:	2f0d           	move.l a5,-(sp)
  f84ac4:	61ff ffff d996 	bsr.l 0xf8245c
  f84aca:	588f           	addq.l #4,sp
  f84acc:	2f1b           	move.l (a3)+,-(sp)
  f84ace:	2f0a           	move.l a2,-(sp)
  f84ad0:	61ff ffff d98a 	bsr.l 0xf8245c
  f84ad6:	5282           	addq.l #1,d2
  f84ad8:	508f           	addq.l #8,sp
  f84ada:	7018           	moveq #24,d0
  f84adc:	b082           	cmp.l d2,d0
  f84ade:	66dc           	bne.s 0xf84abc
  f84ae0:	4878 000a      	pea 0xa
  f84ae4:	61ff ffff f2ae 	bsr.l 0xf83d94
  f84aea:	302c 90e6      	move.w -28442(a4),d0
  f84aee:	5240           	addq.w #1,d0
  f84af0:	3940 90e6      	move.w d0,-28442(a4)
  f84af4:	588f           	addq.l #4,sp
  f84af6:	0c40 0009      	cmpi.w #9,d0
  f84afa:	6300 01ea      	bls.w 0xf84ce6
  f84afe:	487a ff80      	pea 0xf84a80(pc)
  f84b02:	61ff ffff f2ce 	bsr.l 0xf83dd2
  f84b08:	588f           	addq.l #4,sp
  f84b0a:	61ff ffff b5f0 	bsr.l 0xf800fc
  f84b10:	60f8           	bra.s 0xf84b0a
  f84b12:	47ea 002e      	lea 46(a2),a3
  f84b16:	4280           	clr.l d0
  f84b18:	102a 0028      	move.b 40(a2),d0
  f84b1c:	e188           	lsl.l #8,d0
  f84b1e:	802a 0029      	or.b 41(a2),d0
  f84b22:	2f00           	move.l d0,-(sp)
  f84b24:	4280           	clr.l d0
  f84b26:	102a 002a      	move.b 42(a2),d0
  f84b2a:	7218           	moveq #24,d1
  f84b2c:	e3a8           	lsl.l d1,d0
  f84b2e:	4281           	clr.l d1
  f84b30:	122a 002b      	move.b 43(a2),d1
  f84b34:	7410           	moveq #16,d2
  f84b36:	e5a9           	lsl.l d2,d1
  f84b38:	8280           	or.l d0,d1
  f84b3a:	4280           	clr.l d0
  f84b3c:	102a 002c      	move.b 44(a2),d0
  f84b40:	e188           	lsl.l #8,d0
  f84b42:	8081           	or.l d1,d0
  f84b44:	802a 002d      	or.b 45(a2),d0
  f84b48:	2f00           	move.l d0,-(sp)
  f84b4a:	2f0a           	move.l a2,-(sp)
  f84b4c:	487a feae      	pea 0xf849fc(pc)
  f84b50:	61ff ffff d90a 	bsr.l 0xf8245c
  f84b56:	4280           	clr.l d0
  f84b58:	102a 0014      	move.b 20(a2),d0
  f84b5c:	7218           	moveq #24,d1
  f84b5e:	e3a8           	lsl.l d1,d0
  f84b60:	4281           	clr.l d1
  f84b62:	122a 0015      	move.b 21(a2),d1
  f84b66:	e5a9           	lsl.l d2,d1
  f84b68:	8280           	or.l d0,d1
  f84b6a:	4280           	clr.l d0
  f84b6c:	102a 0016      	move.b 22(a2),d0
  f84b70:	e188           	lsl.l #8,d0
  f84b72:	8081           	or.l d1,d0
  f84b74:	802a 0017      	or.b 23(a2),d0
  f84b78:	2f00           	move.l d0,-(sp)
  f84b7a:	4280           	clr.l d0
  f84b7c:	102a 0010      	move.b 16(a2),d0
  f84b80:	7418           	moveq #24,d2
  f84b82:	e5a8           	lsl.l d2,d0
  f84b84:	4281           	clr.l d1
  f84b86:	122a 0011      	move.b 17(a2),d1
  f84b8a:	7410           	moveq #16,d2
  f84b8c:	e5a9           	lsl.l d2,d1
  f84b8e:	8280           	or.l d0,d1
  f84b90:	4280           	clr.l d0
  f84b92:	102a 0012      	move.b 18(a2),d0
  f84b96:	e188           	lsl.l #8,d0
  f84b98:	8081           	or.l d1,d0
  f84b9a:	802a 0013      	or.b 19(a2),d0
  f84b9e:	2f00           	move.l d0,-(sp)
  f84ba0:	4280           	clr.l d0
  f84ba2:	102a 000c      	move.b 12(a2),d0
  f84ba6:	7218           	moveq #24,d1
  f84ba8:	e3a8           	lsl.l d1,d0
  f84baa:	4281           	clr.l d1
  f84bac:	122a 000d      	move.b 13(a2),d1
  f84bb0:	e5a9           	lsl.l d2,d1
  f84bb2:	8280           	or.l d0,d1
  f84bb4:	4280           	clr.l d0
  f84bb6:	102a 000e      	move.b 14(a2),d0
  f84bba:	e188           	lsl.l #8,d0
  f84bbc:	8081           	or.l d1,d0
  f84bbe:	802a 000f      	or.b 15(a2),d0
  f84bc2:	2f00           	move.l d0,-(sp)
  f84bc4:	4280           	clr.l d0
  f84bc6:	102a 0008      	move.b 8(a2),d0
  f84bca:	7418           	moveq #24,d2
  f84bcc:	e5a8           	lsl.l d2,d0
  f84bce:	4281           	clr.l d1
  f84bd0:	122a 0009      	move.b 9(a2),d1
  f84bd4:	7410           	moveq #16,d2
  f84bd6:	e5a9           	lsl.l d2,d1
  f84bd8:	8280           	or.l d0,d1
  f84bda:	4280           	clr.l d0
  f84bdc:	102a 000a      	move.b 10(a2),d0
  f84be0:	e188           	lsl.l #8,d0
  f84be2:	8081           	or.l d1,d0
  f84be4:	802a 000b      	or.b 11(a2),d0
  f84be8:	2f00           	move.l d0,-(sp)
  f84bea:	4280           	clr.l d0
  f84bec:	102a 0004      	move.b 4(a2),d0
  f84bf0:	7218           	moveq #24,d1
  f84bf2:	e3a8           	lsl.l d1,d0
  f84bf4:	4281           	clr.l d1
  f84bf6:	122a 0005      	move.b 5(a2),d1
  f84bfa:	e5a9           	lsl.l d2,d1
  f84bfc:	8280           	or.l d0,d1
  f84bfe:	4280           	clr.l d0
  f84c00:	102a 0006      	move.b 6(a2),d0
  f84c04:	e188           	lsl.l #8,d0
  f84c06:	8081           	or.l d1,d0
  f84c08:	802a 0007      	or.b 7(a2),d0
  f84c0c:	2f00           	move.l d0,-(sp)
  f84c0e:	4280           	clr.l d0
  f84c10:	1012           	move.b (a2),d0
  f84c12:	7418           	moveq #24,d2
  f84c14:	e5a8           	lsl.l d2,d0
  f84c16:	4281           	clr.l d1
  f84c18:	122a 0001      	move.b 1(a2),d1
  f84c1c:	7410           	moveq #16,d2
  f84c1e:	e5a9           	lsl.l d2,d1
  f84c20:	8280           	or.l d0,d1
  f84c22:	4280           	clr.l d0
  f84c24:	102a 0002      	move.b 2(a2),d0
  f84c28:	e188           	lsl.l #8,d0
  f84c2a:	8081           	or.l d1,d0
  f84c2c:	802a 0003      	or.b 3(a2),d0
  f84c30:	2f00           	move.l d0,-(sp)
  f84c32:	487a fde5      	pea 0xf84a19(pc)
  f84c36:	61ff ffff d824 	bsr.l 0xf8245c
  f84c3c:	4fef 002c      	lea 44(sp),sp
  f84c40:	4280           	clr.l d0
  f84c42:	102a 0024      	move.b 36(a2),d0
  f84c46:	7218           	moveq #24,d1
  f84c48:	e3a8           	lsl.l d1,d0
  f84c4a:	4281           	clr.l d1
  f84c4c:	122a 0025      	move.b 37(a2),d1
  f84c50:	e5a9           	lsl.l d2,d1
  f84c52:	8280           	or.l d0,d1
  f84c54:	4280           	clr.l d0
  f84c56:	102a 0026      	move.b 38(a2),d0
  f84c5a:	e188           	lsl.l #8,d0
  f84c5c:	8081           	or.l d1,d0
  f84c5e:	802a 0027      	or.b 39(a2),d0
  f84c62:	2f00           	move.l d0,-(sp)
  f84c64:	4280           	clr.l d0
  f84c66:	102a 0020      	move.b 32(a2),d0
  f84c6a:	7418           	moveq #24,d2
  f84c6c:	e5a8           	lsl.l d2,d0
  f84c6e:	4281           	clr.l d1
  f84c70:	122a 0021      	move.b 33(a2),d1
  f84c74:	7410           	moveq #16,d2
  f84c76:	e5a9           	lsl.l d2,d1
  f84c78:	8280           	or.l d0,d1
  f84c7a:	4280           	clr.l d0
  f84c7c:	102a 0022      	move.b 34(a2),d0
  f84c80:	e188           	lsl.l #8,d0
  f84c82:	8081           	or.l d1,d0
  f84c84:	802a 0023      	or.b 35(a2),d0
  f84c88:	2f00           	move.l d0,-(sp)
  f84c8a:	4280           	clr.l d0
  f84c8c:	102a 001c      	move.b 28(a2),d0
  f84c90:	7218           	moveq #24,d1
  f84c92:	e3a8           	lsl.l d1,d0
  f84c94:	4281           	clr.l d1
  f84c96:	122a 001d      	move.b 29(a2),d1
  f84c9a:	e5a9           	lsl.l d2,d1
  f84c9c:	8280           	or.l d0,d1
  f84c9e:	4280           	clr.l d0
  f84ca0:	102a 001e      	move.b 30(a2),d0
  f84ca4:	e188           	lsl.l #8,d0
  f84ca6:	8081           	or.l d1,d0
  f84ca8:	802a 001f      	or.b 31(a2),d0
  f84cac:	2f00           	move.l d0,-(sp)
  f84cae:	4280           	clr.l d0
  f84cb0:	102a 0018      	move.b 24(a2),d0
  f84cb4:	7418           	moveq #24,d2
  f84cb6:	e5a8           	lsl.l d2,d0
  f84cb8:	4281           	clr.l d1
  f84cba:	122a 0019      	move.b 25(a2),d1
  f84cbe:	7410           	moveq #16,d2
  f84cc0:	e5a9           	lsl.l d2,d1
  f84cc2:	8280           	or.l d0,d1
  f84cc4:	4280           	clr.l d0
  f84cc6:	102a 001a      	move.b 26(a2),d0
  f84cca:	e188           	lsl.l #8,d0
  f84ccc:	8081           	or.l d1,d0
  f84cce:	802a 001b      	or.b 27(a2),d0
  f84cd2:	2f00           	move.l d0,-(sp)
  f84cd4:	487a fd7b      	pea 0xf84a51(pc)
  f84cd8:	61ff ffff d782 	bsr.l 0xf8245c
  f84cde:	4fef 0014      	lea 20(sp),sp
  f84ce2:	6000 fdce      	bra.w 0xf84ab2
  f84ce6:	4cdf 3c04      	movem.l (sp)+,d2/a2-a5
  f84cea:	4e75           	rts
  f84cec:	4164           	.short 0x4164
  f84cee:	6472           	bcc.s 0xf84d62
  f84cf0:	6573           	bcs.s 0xf84d65
  f84cf2:	7320           	.short 0x7320
  f84cf4:	4572           	.short 0x4572
  f84cf6:	726f           	moveq #111,d1
  f84cf8:	720a           	moveq #10,d1
  f84cfa:	0000 48e7      	ori.b #-25,d0
  f84cfe:	c0c8           	.short 0xc0c8
  f84d00:	487a ffea      	pea 0xf84cec(pc)
  f84d04:	61ff ffff eff6 	bsr.l 0xf83cfc
  f84d0a:	42a7           	clr.l -(sp)
  f84d0c:	61ff ffff fd7e 	bsr.l 0xf84a8c
  f84d12:	61ff ffff d7a8 	bsr.l 0xf824bc
  f84d18:	4275 7320 4572 	clr.w (17778,a5,d7.w*2)
  f84d1e:	726f           	moveq #111,d1
  f84d20:	720a           	moveq #10,d1
  f84d22:	0000 48e7      	ori.b #-25,d0
  f84d26:	c0c8           	.short 0xc0c8
  f84d28:	487a ffee      	pea 0xf84d18(pc)
  f84d2c:	61ff ffff efce 	bsr.l 0xf83cfc
  f84d32:	42a7           	clr.l -(sp)
  f84d34:	61ff ffff fd56 	bsr.l 0xf84a8c
  f84d3a:	61ff ffff d780 	bsr.l 0xf824bc
  f84d40:	496c           	.short 0x496c
  f84d42:	6c65           	bge.s 0xf84da9
  f84d44:	6761           	beq.s 0xf84da7
  f84d46:	6c20           	bge.s 0xf84d68
  f84d48:	496e           	.short 0x496e
  f84d4a:	7374           	.short 0x7374
  f84d4c:	7275           	moveq #117,d1
  f84d4e:	6374           	bls.s 0xf84dc4
  f84d50:	696f           	bvs.s 0xf84dc1
  f84d52:	6e0a           	bgt.s 0xf84d5e
  f84d54:	0000 48e7      	ori.b #-25,d0
  f84d58:	c0c8           	.short 0xc0c8
  f84d5a:	487a ffe4      	pea 0xf84d40(pc)
  f84d5e:	61ff ffff ef9c 	bsr.l 0xf83cfc
  f84d64:	42a7           	clr.l -(sp)
  f84d66:	61ff ffff fd24 	bsr.l 0xf84a8c
  f84d6c:	61ff ffff d74e 	bsr.l 0xf824bc
  f84d72:	4469 7669      	neg.w 30313(a1)
  f84d76:	7369           	.short 0x7369
  f84d78:	6f6e           	ble.s 0xf84de8
  f84d7a:	2062           	movea.l -(a2),a0
  f84d7c:	7920           	.short 0x7920
  f84d7e:	5a65           	addq.w #5,-(a5)
  f84d80:	726f           	moveq #111,d1
  f84d82:	0a00 48e7      	eori.b #-25,d0
  f84d86:	c0c8           	.short 0xc0c8
  f84d88:	487a ffe8      	pea 0xf84d72(pc)
  f84d8c:	61ff ffff ef6e 	bsr.l 0xf83cfc
  f84d92:	42a7           	clr.l -(sp)
  f84d94:	61ff ffff fcf6 	bsr.l 0xf84a8c
  f84d9a:	61ff ffff d720 	bsr.l 0xf824bc
  f84da0:	5472 6170 560a 	addq.w #2,(1443495936,a2)
  f84da6:	0000 
  f84da8:	48e7 c0c8      	movem.l d0-d1/a0-a1/a4,-(sp)
  f84dac:	487a fff2      	pea 0xf84da0(pc)
  f84db0:	61ff ffff ef4a 	bsr.l 0xf83cfc
  f84db6:	42a7           	clr.l -(sp)
  f84db8:	61ff ffff fcd2 	bsr.l 0xf84a8c
  f84dbe:	61ff ffff d6fc 	bsr.l 0xf824bc
  f84dc4:	5072 6976 696c 	addq.w #8,([1768711527,a2],25888)
  f84dca:	6567 6520 
  f84dce:	5669 6f6c      	addq.w #3,28524(a1)
  f84dd2:	6174           	bsr.s 0xf84e48
  f84dd4:	696f           	bvs.s 0xf84e45
  f84dd6:	6e0a           	bgt.s 0xf84de2
  f84dd8:	0000 48e7      	ori.b #-25,d0
  f84ddc:	c0c8           	.short 0xc0c8
  f84dde:	487a ffe4      	pea 0xf84dc4(pc)
  f84de2:	61ff ffff ef18 	bsr.l 0xf83cfc
  f84de8:	42a7           	clr.l -(sp)
  f84dea:	61ff ffff fca0 	bsr.l 0xf84a8c
  f84df0:	61ff ffff d6ca 	bsr.l 0xf824bc
  f84df6:	556e 696d      	subq.w #2,26989(a6)
  f84dfa:	706c           	moveq #108,d0
  f84dfc:	656d           	bcs.s 0xf84e6b
  f84dfe:	656e           	bcs.s 0xf84e6e
  f84e00:	7465           	moveq #101,d2
  f84e02:	6420           	bcc.s 0xf84e24
  f84e04:	496e           	.short 0x496e
  f84e06:	7374           	.short 0x7374
  f84e08:	7275           	moveq #117,d1
  f84e0a:	6374           	bls.s 0xf84e80
  f84e0c:	696f           	bvs.s 0xf84e7d
  f84e0e:	6e20           	bgt.s 0xf84e30
  f84e10:	286c 696e      	movea.l 26990(a4),a4
  f84e14:	6520           	bcs.s 0xf84e36
  f84e16:	4129 0a00      	chk.l 2560(a1),d0
  f84e1a:	48e7 c0c8      	movem.l d0-d1/a0-a1/a4,-(sp)
  f84e1e:	487a ffd6      	pea 0xf84df6(pc)
  f84e22:	61ff ffff eed8 	bsr.l 0xf83cfc
  f84e28:	42a7           	clr.l -(sp)
  f84e2a:	61ff ffff fc60 	bsr.l 0xf84a8c
  f84e30:	61ff ffff d68a 	bsr.l 0xf824bc
  f84e36:	556e 696d      	subq.w #2,26989(a6)
  f84e3a:	706c           	moveq #108,d0
  f84e3c:	656d           	bcs.s 0xf84eab
  f84e3e:	656e           	bcs.s 0xf84eae
  f84e40:	7465           	moveq #101,d2
  f84e42:	6420           	bcc.s 0xf84e64
  f84e44:	496e           	.short 0x496e
  f84e46:	7374           	.short 0x7374
  f84e48:	7275           	moveq #117,d1
  f84e4a:	6374           	bls.s 0xf84ec0
  f84e4c:	696f           	bvs.s 0xf84ebd
  f84e4e:	6e20           	bgt.s 0xf84e70
  f84e50:	286c 696e      	movea.l 26990(a4),a4
  f84e54:	6520           	bcs.s 0xf84e76
  f84e56:	4629 0a00      	not.b 2560(a1)
  f84e5a:	48e7 c0c8      	movem.l d0-d1/a0-a1/a4,-(sp)
  f84e5e:	487a ffd6      	pea 0xf84e36(pc)
  f84e62:	61ff ffff ee98 	bsr.l 0xf83cfc
  f84e68:	42a7           	clr.l -(sp)
  f84e6a:	61ff ffff fc20 	bsr.l 0xf84a8c
  f84e70:	61ff ffff d64a 	bsr.l 0xf824bc
  f84e76:	5370 7572 696f 	subq.w #1,([1768912243,a0],8265)
  f84e7c:	7573 2049 
  f84e80:	5251           	addq.w #1,(a1)
  f84e82:	0a00 48e7      	eori.b #-25,d0
  f84e86:	c0c8           	.short 0xc0c8
  f84e88:	487a ffec      	pea 0xf84e76(pc)
  f84e8c:	61ff ffff ee6e 	bsr.l 0xf83cfc
  f84e92:	42a7           	clr.l -(sp)
  f84e94:	61ff ffff fbf6 	bsr.l 0xf84a8c
  f84e9a:	61ff ffff d620 	bsr.l 0xf824bc
  f84ea0:	0a55 6e6b      	eori.w #28267,(a5)
  f84ea4:	6e6f           	bgt.s 0xf84f15
  f84ea6:	776e           	.short 0x776e
  f84ea8:	2069 6e74      	movea.l 28276(a1),a0
  f84eac:	6572           	bcs.s 0xf84f20
  f84eae:	7275           	moveq #117,d1
  f84eb0:	7074           	moveq #116,d0
  f84eb2:	0000 48e7      	ori.b #-25,d0
  f84eb6:	c0c8           	.short 0xc0c8
  f84eb8:	487a ffe6      	pea 0xf84ea0(pc)
  f84ebc:	61ff ffff d59e 	bsr.l 0xf8245c
  f84ec2:	42a7           	clr.l -(sp)
  f84ec4:	61ff ffff fbc6 	bsr.l 0xf84a8c
  f84eca:	61ff ffff d5f0 	bsr.l 0xf824bc
  f84ed0:	0a53 7475      	eori.w #29813,(a3)
  f84ed4:	636b           	bls.s 0xf84f41
  f84ed6:	3f00           	move.w d0,-(sp)
  f84ed8:	48e7 fcf8      	movem.l d0-d5/a0-a4,-(sp)
  f84edc:	280f           	move.l sp,d4
  f84ede:	23fc 0002 0000 	move.l #131072,0xdff0e0
  f84ee4:	00df f0e0 
  f84ee8:	23fc 0002 5280 	move.l #152192,0xdff0e4
  f84eee:	00df f0e4 
  f84ef2:	23fc 0002 a500 	move.l #173312,0xdff0e8
  f84ef8:	00df f0e8 
  f84efc:	33fc 0020 00df 	move.w #32,0xdff09c
  f84f02:	f09c 
  f84f04:	52b8 100c      	addq.l #1,0x100c
  f84f08:	2f0c           	move.l a4,-(sp)
  f84f0a:	2878 0100      	movea.l 0x100,a4
  f84f0e:	40c5           	move.w sr,d5
  f84f10:	007c 0700      	ori.w #1792,sr
  f84f14:	61ff ffff f4e2 	bsr.l 0xf843f8
  f84f1a:	244c           	movea.l a4,a2
  f84f1c:	d5fc ffff 90c6 	adda.l #-28474,a2
  f84f22:	3212           	move.w (a2),d1
  f84f24:	264c           	movea.l a4,a3
  f84f26:	d7fc ffff 90c8 	adda.l #-28472,a3
  f84f2c:	2053           	movea.l (a3),a0
  f84f2e:	226b 0004      	movea.l 4(a3),a1
  f84f32:	9240           	sub.w d0,d1
  f84f34:	4283           	clr.l d3
  f84f36:	3601           	move.w d1,d3
  f84f38:	4282           	clr.l d2
  f84f3a:	2208           	move.l a0,d1
  f84f3c:	d689           	add.l a1,d3
  f84f3e:	d581           	addx.l d1,d2
  f84f40:	2682           	move.l d2,(a3)
  f84f42:	2743 0004      	move.l d3,4(a3)
  f84f46:	3480           	move.w d0,(a2)
  f84f48:	46c5           	move.w d5,sr
  f84f4a:	202c 801e      	move.l -32738(a4),d0
  f84f4e:	e788           	lsl.l #3,d0
  f84f50:	2040           	movea.l d0,a0
  f84f52:	246c 90be      	movea.l -28482(a4),a2
  f84f56:	4868 0034      	pea 52(a0)
  f84f5a:	4868 002c      	pea 44(a0)
  f84f5e:	7020           	moveq #32,d0
  f84f60:	d0ac 8022      	add.l -32734(a4),d0
  f84f64:	e588           	lsl.l #2,d0
  f84f66:	2f00           	move.l d0,-(sp)
  f84f68:	61ff ffff ef3a 	bsr.l 0xf83ea4
  f84f6e:	2480           	move.l d0,(a2)
  f84f70:	202c 90ba      	move.l -28486(a4),d0
  f84f74:	23c0 00df f120 	move.l d0,0xdff120
  f84f7a:	23ec 90be 00df 	move.l -28482(a4),0xdff124
  f84f80:	f124 
  f84f82:	23c0 00df f128 	move.l d0,0xdff128
  f84f88:	23c0 00df f12c 	move.l d0,0xdff12c
  f84f8e:	23c0 00df f130 	move.l d0,0xdff130
  f84f94:	23c0 00df f134 	move.l d0,0xdff134
  f84f9a:	23c0 00df f138 	move.l d0,0xdff138
  f84fa0:	23c0 00df f13c 	move.l d0,0xdff13c
  f84fa6:	202c 90e2      	move.l -28446(a4),d0
  f84faa:	2200           	move.l d0,d1
  f84fac:	5281           	addq.l #1,d1
  f84fae:	2941 90e2      	move.l d1,-28446(a4)
  f84fb2:	4fef 000c      	lea 12(sp),sp
  f84fb6:	7278           	moveq #120,d1
  f84fb8:	b280           	cmp.l d0,d1
  f84fba:	6414           	bcc.s 0xf84fd0
  f84fbc:	487a ff12      	pea 0xf84ed0(pc)
  f84fc0:	61ff ffff d49a 	bsr.l 0xf8245c
  f84fc6:	2f04           	move.l d4,-(sp)
  f84fc8:	61ff ffff fac2 	bsr.l 0xf84a8c
  f84fce:	508f           	addq.l #8,sp
  f84fd0:	285f           	movea.l (sp)+,a4
  f84fd2:	4cdf 1f3f      	movem.l (sp)+,d0-d5/a0-a4
  f84fd6:	4e73           	rte
  f84fd8:	33fc 0040 00df 	move.w #64,0xdff09c
  f84fde:	f09c 
  f84fe0:	52b8 1004      	addq.l #1,0x1004
  f84fe4:	4e73           	rte
  f84fe6:	436f           	.short 0x436f
  f84fe8:	7072           	moveq #114,d0
  f84fea:	6f63           	ble.s 0xf8504f
  f84fec:	6573           	bcs.s 0xf85061
  f84fee:	736f           	.short 0x736f
  f84ff0:	7220           	moveq #32,d1
  f84ff2:	4572           	.short 0x4572
  f84ff4:	726f           	moveq #111,d1
  f84ff6:	720a           	moveq #10,d1
  f84ff8:	0000 48e7      	ori.b #-25,d0
  f84ffc:	c0c8           	.short 0xc0c8
  f84ffe:	487a ffe6      	pea 0xf84fe6(pc)
  f85002:	61ff ffff ecf8 	bsr.l 0xf83cfc
  f85008:	42a7           	clr.l -(sp)
  f8500a:	61ff ffff fa80 	bsr.l 0xf84a8c
  f85010:	61ff ffff d4aa 	bsr.l 0xf824bc
  f85016:	466f 726d      	not.w 29293(sp)
  f8501a:	6174           	bsr.s 0xf85090
  f8501c:	2045           	movea.l d5,a0
  f8501e:	7272           	moveq #114,d1
  f85020:	6f72           	ble.s 0xf85094
  f85022:	0a00 48e7      	eori.b #-25,d0
  f85026:	c0c8           	.short 0xc0c8
  f85028:	487a ffec      	pea 0xf85016(pc)
  f8502c:	61ff ffff ecce 	bsr.l 0xf83cfc
  f85032:	42a7           	clr.l -(sp)
  f85034:	61ff ffff fa56 	bsr.l 0xf84a8c
  f8503a:	61ff ffff d480 	bsr.l 0xf824bc
  f85040:	556e 696e      	subq.w #2,26990(a6)
  f85044:	6974           	bvs.s 0xf850ba
  f85046:	6961           	bvs.s 0xf850a9
  f85048:	6c69           	bge.s 0xf850b3
  f8504a:	7a65           	moveq #101,d5
  f8504c:	6420           	bcc.s 0xf8506e
  f8504e:	496e           	.short 0x496e
  f85050:	7465           	moveq #101,d2
  f85052:	7272           	moveq #114,d1
  f85054:	7570           	.short 0x7570
  f85056:	740a           	moveq #10,d2
  f85058:	0000 48e7      	ori.b #-25,d0
  f8505c:	c0c8           	.short 0xc0c8
  f8505e:	487a ffe0      	pea 0xf85040(pc)
  f85062:	61ff ffff ec98 	bsr.l 0xf83cfc
  f85068:	42a7           	clr.l -(sp)
  f8506a:	61ff ffff fa20 	bsr.l 0xf84a8c
  f85070:	61ff ffff d44a 	bsr.l 0xf824bc
  f85076:	496e           	.short 0x496e
  f85078:	7431           	moveq #49,d2
  f8507a:	0000 48e7      	ori.b #-25,d0
  f8507e:	c0c8           	.short 0xc0c8
  f85080:	487a fff4      	pea 0xf85076(pc)
  f85084:	61ff ffff ec76 	bsr.l 0xf83cfc
  f8508a:	42a7           	clr.l -(sp)
  f8508c:	61ff ffff f9fe 	bsr.l 0xf84a8c
  f85092:	61ff ffff d428 	bsr.l 0xf824bc
  f85098:	48e7 c0c0      	movem.l d0-d1/a0-a1,-(sp)
  f8509c:	61ff ffff ec90 	bsr.l 0xf83d2e
  f850a2:	4cdf 0303      	movem.l (sp)+,d0-d1/a0-a1
  f850a6:	4e73           	rte
  f850a8:	496e           	.short 0x496e
  f850aa:	7436           	moveq #54,d2
  f850ac:	0000 48e7      	ori.b #-25,d0
  f850b0:	c0c8           	.short 0xc0c8
  f850b2:	487a fff4      	pea 0xf850a8(pc)
  f850b6:	61ff ffff ec44 	bsr.l 0xf83cfc
  f850bc:	42a7           	clr.l -(sp)
  f850be:	61ff ffff f9cc 	bsr.l 0xf84a8c
  f850c4:	61ff ffff d3f6 	bsr.l 0xf824bc
  f850ca:	496e           	.short 0x496e
  f850cc:	7437           	moveq #55,d2
  f850ce:	0000 48e7      	ori.b #-25,d0
  f850d2:	c0c8           	.short 0xc0c8
  f850d4:	487a fff4      	pea 0xf850ca(pc)
  f850d8:	61ff ffff ec22 	bsr.l 0xf83cfc
  f850de:	42a7           	clr.l -(sp)
  f850e0:	61ff ffff f9aa 	bsr.l 0xf84a8c
  f850e6:	61ff ffff d3d4 	bsr.l 0xf824bc
  f850ec:	2f0c           	move.l a4,-(sp)
  f850ee:	2f02           	move.l d2,-(sp)
  f850f0:	242f 000c      	move.l 12(sp),d2
  f850f4:	4878 0100      	pea 0x100
  f850f8:	487a 001e      	pea 0xf85118(pc)
  f850fc:	2f02           	move.l d2,-(sp)
  f850fe:	61ff 0000 5e8c 	bsr.l 0xf8af8c
  f85104:	4e7b 2801      	movec d2,vbr
  f85108:	40c0           	move.w sr,d0
  f8510a:	027c f8ff      	andi.w #-1793,sr
  f8510e:	4fef 000c      	lea 12(sp),sp
  f85112:	241f           	move.l (sp)+,d2
  f85114:	285f           	movea.l (sp)+,a4
  f85116:	4e75           	rts
  f85118:	0008           	.short 0x0008
  f8511a:	0000 00f8      	ori.b #-8,d0
  f8511e:	0010 00f8      	ori.b #-8,(a0)
  f85122:	4d24           	chk.l -(a4),d6
  f85124:	00f8           	.short 0x00f8
  f85126:	4cfc           	.short 0x4cfc
  f85128:	00f8           	.short 0x00f8
  f8512a:	4d56           	.short 0x4d56
  f8512c:	00f8           	.short 0x00f8
  f8512e:	4d84           	chk.w d4,d6
  f85130:	00f8           	.short 0x00f8
  f85132:	4eb4 00f8      	jsr (-8,a4,d0.w)
  f85136:	4da8 00f8      	chk.w 248(a0),d6
  f8513a:	4dda           	.short 0x4dda
  f8513c:	00f8           	.short 0x00f8
  f8513e:	4eb4 00f8      	jsr (-8,a4,d0.w)
  f85142:	4e1a           	.short 0x4e1a
  f85144:	00f8           	.short 0x00f8
  f85146:	4e5a           	unlk a2
  f85148:	00f8           	.short 0x00f8
  f8514a:	4eb4 00f8      	jsr (-8,a4,d0.w)
  f8514e:	4eb4 00f8      	jsr (-8,a4,d0.w)
  f85152:	4eb4 00f8      	jsr (-8,a4,d0.w)
  f85156:	4eb4 00f8      	jsr (-8,a4,d0.w)
  f8515a:	4eb4 00f8      	jsr (-8,a4,d0.w)
  f8515e:	4eb4 00f8      	jsr (-8,a4,d0.w)
  f85162:	4eb4 00f8      	jsr (-8,a4,d0.w)
  f85166:	4eb4 00f8      	jsr (-8,a4,d0.w)
  f8516a:	4eb4 00f8      	jsr (-8,a4,d0.w)
  f8516e:	4eb4 00f8      	jsr (-8,a4,d0.w)
  f85172:	4eb4 00f8      	jsr (-8,a4,d0.w)
  f85176:	4eb4 00f8      	jsr (-8,a4,d0.w)
  f8517a:	4e84           	.short 0x4e84
  f8517c:	00f8           	.short 0x00f8
  f8517e:	4eb4 00f8      	jsr (-8,a4,d0.w)
  f85182:	49b6 00f8      	chk.w (-8,a6,d0.w),d4
  f85186:	4ed8           	.short 0x4ed8
  f85188:	00f8           	.short 0x00f8
  f8518a:	4990           	chk.w (a0),d4
  f8518c:	00f8           	.short 0x00f8
  f8518e:	4eb4 00f8      	jsr (-8,a4,d0.w)
  f85192:	4eb4 00f8      	jsr (-8,a4,d0.w)
  f85196:	4eb4 00f8      	jsr (-8,a4,d0.w)
  f8519a:	4eb4 00f8      	jsr (-8,a4,d0.w)
  f8519e:	4eb4 00f8      	jsr (-8,a4,d0.w)
  f851a2:	4eb4 00f8      	jsr (-8,a4,d0.w)
  f851a6:	4eb4 00f8      	jsr (-8,a4,d0.w)
  f851aa:	4eb4 00f8      	jsr (-8,a4,d0.w)
  f851ae:	4eb4 00f8      	jsr (-8,a4,d0.w)
  f851b2:	4eb4 00f8      	jsr (-8,a4,d0.w)
  f851b6:	4eb4 00f8      	jsr (-8,a4,d0.w)
  f851ba:	4eb4 00f8      	jsr (-8,a4,d0.w)
  f851be:	4eb4 00f8      	jsr (-8,a4,d0.w)
  f851c2:	4eb4 00f8      	jsr (-8,a4,d0.w)
  f851c6:	4eb4 00f8      	jsr (-8,a4,d0.w)
  f851ca:	4eb4 00f8      	jsr (-8,a4,d0.w)
  f851ce:	4eb4 00f8      	jsr (-8,a4,d0.w)
  f851d2:	4eb4 00f8      	jsr (-8,a4,d0.w)
  f851d6:	4eb4 00f8      	jsr (-8,a4,d0.w)
  f851da:	4eb4 00f8      	jsr (-8,a4,d0.w)
  f851de:	4eb4 00f8      	jsr (-8,a4,d0.w)
  f851e2:	4eb4 00f8      	jsr (-8,a4,d0.w)
  f851e6:	4eb4 00f8      	jsr (-8,a4,d0.w)
  f851ea:	4eb4 00f8      	jsr (-8,a4,d0.w)
  f851ee:	4eb4 00f8      	jsr (-8,a4,d0.w)
  f851f2:	4eb4 00f8      	jsr (-8,a4,d0.w)
  f851f6:	4eb4 00f8      	jsr (-8,a4,d0.w)
  f851fa:	4eb4 00f8      	jsr (-8,a4,d0.w)
  f851fe:	4eb4 00f8      	jsr (-8,a4,d0.w)
  f85202:	4eb4 00f8      	jsr (-8,a4,d0.w)
  f85206:	4eb4 00f8      	jsr (-8,a4,d0.w)
  f8520a:	4eb4 00f8      	jsr (-8,a4,d0.w)
  f8520e:	4eb4 00f8      	jsr (-8,a4,d0.w)
  f85212:	4eb4 00f8      	jsr (-8,a4,d0.w)
  f85216:	4eb4 2f02 222f 	jsr ([0,a4,d2.l*8],8751)
  f8521c:	0008           	.short 0x0008
  f8521e:	206f 000c      	movea.l 12(sp),a0
  f85222:	2001           	move.l d1,d0
  f85224:	5281           	addq.l #1,d1
  f85226:	1418           	move.b (a0)+,d2
  f85228:	2240           	movea.l d0,a1
  f8522a:	b411           	cmp.b (a1),d2
  f8522c:	6604           	bne.s 0xf85232
  f8522e:	4a02           	tst.b d2
  f85230:	66f0           	bne.s 0xf85222
  f85232:	241f           	move.l (sp)+,d2
  f85234:	4e75           	rts
  f85236:	202f 0004      	move.l 4(sp),d0
  f8523a:	0c00 000d      	cmpi.b #13,d0
  f8523e:	6214           	bhi.s 0xf85254
  f85240:	0280 0000 00ff 	andi.l #255,d0
  f85246:	223c 0000 2601 	move.l #9729,d1
  f8524c:	0101           	btst d0,d1
  f8524e:	6710           	beq.s 0xf85260
  f85250:	7020           	moveq #32,d0
  f85252:	4e75           	rts
  f85254:	1200           	move.b d0,d1
  f85256:	0601 00e0      	addi.b #-32,d1
  f8525a:	0c01 005e      	cmpi.b #94,d1
  f8525e:	63f2           	bls.s 0xf85252
  f85260:	702e           	moveq #46,d0
  f85262:	60ee           	bra.s 0xf85252
  f85264:	2578 256e 0049 	move.l 0x256e,73(a2)
  f8526a:	6e76           	bgt.s 0xf852e2
  f8526c:	616c           	bsr.s 0xf852da
  f8526e:	6964           	bvs.s 0xf852d4
  f85270:	2076 616c 7565 	movea.l ([30053,a6],0),a0
  f85276:	2022           	move.l -(a2),d0
  f85278:	2573 220a 0000 	move.l (10,a3,d2.w*2),0(a2)
  f8527e:	4e55 fff8      	link.w a5,#-8
  f85282:	2f0c           	move.l a4,-(sp)
  f85284:	2f0a           	move.l a2,-(sp)
  f85286:	246d 0008      	movea.l 8(a5),a2
  f8528a:	42ad fff8      	clr.l -8(a5)
  f8528e:	486d fff8      	pea -8(a5)
  f85292:	486d fffc      	pea -4(a5)
  f85296:	487a ffcc      	pea 0xf85264(pc)
  f8529a:	2f0a           	move.l a2,-(sp)
  f8529c:	61ff ffff dbd0 	bsr.l 0xf82e6e
  f852a2:	4fef 0010      	lea 16(sp),sp
  f852a6:	5380           	subq.l #1,d0
  f852a8:	6614           	bne.s 0xf852be
  f852aa:	202d fff8      	move.l -8(a5),d0
  f852ae:	1232 0800      	move.b (0,a2,d0.l),d1
  f852b2:	0201 00df      	andi.b #-33,d1
  f852b6:	6606           	bne.s 0xf852be
  f852b8:	7208           	moveq #8,d1
  f852ba:	b280           	cmp.l d0,d1
  f852bc:	6c1c           	bge.s 0xf852da
  f852be:	2f0a           	move.l a2,-(sp)
  f852c0:	487a ffa7      	pea 0xf85269(pc)
  f852c4:	61ff ffff d196 	bsr.l 0xf8245c
  f852ca:	508f           	addq.l #8,sp
  f852cc:	7001           	moveq #1,d0
  f852ce:	246d fff0      	movea.l -16(a5),a2
  f852d2:	286d fff4      	movea.l -12(a5),a4
  f852d6:	4e5d           	unlk a5
  f852d8:	4e75           	rts
  f852da:	206d 000c      	movea.l 12(a5),a0
  f852de:	20ad fffc      	move.l -4(a5),(a0)
  f852e2:	4280           	clr.l d0
  f852e4:	60e8           	bra.s 0xf852ce
  f852e6:	496e           	.short 0x496e
  f852e8:	7465           	moveq #101,d2
  f852ea:	726e           	moveq #110,d1
  f852ec:	616c           	bsr.s 0xf8535a
  f852ee:	2065           	movea.l -(a5),a0
  f852f0:	7272           	moveq #114,d1
  f852f2:	6f72           	ble.s 0xf85366
  f852f4:	3a20           	move.w -(a0),d5
  f852f6:	556e 6b6e      	subq.w #2,27502(a6)
  f852fa:	6f77           	ble.s 0xf85373
  f852fc:	6e20           	bgt.s 0xf8531e
  f852fe:	7370           	.short 0x7370
  f85300:	6163           	bsr.s 0xf85365
  f85302:	6520           	bcs.s 0xf85324
  f85304:	2578 0a00 2f0c 	move.l 0xa00,12044(a2)
  f8530a:	2f02           	move.l d2,-(sp)
  f8530c:	202f 0010      	move.l 16(sp),d0
  f85310:	206f 0014      	movea.l 20(sp),a0
  f85314:	226f 0018      	movea.l 24(sp),a1
  f85318:	222f 001c      	move.l 28(sp),d1
  f8531c:	242f 0020      	move.l 32(sp),d2
  f85320:	0c00 0001      	cmpi.b #1,d0
  f85324:	661a           	bne.s 0xf85340
  f85326:	2f42 0018      	move.l d2,24(sp)
  f8532a:	2f41 0014      	move.l d1,20(sp)
  f8532e:	2f48 000c      	move.l a0,12(sp)
  f85332:	2f49 0010      	move.l a1,16(sp)
  f85336:	241f           	move.l (sp)+,d2
  f85338:	285f           	movea.l (sp)+,a4
  f8533a:	60ff 0000 2bde 	bra.l 0xf87f1a
  f85340:	7200           	moveq #0,d1
  f85342:	4601           	not.b d1
  f85344:	c280           	and.l d0,d1
  f85346:	2f01           	move.l d1,-(sp)
  f85348:	487a ff9c      	pea 0xf852e6(pc)
  f8534c:	61ff ffff d10e 	bsr.l 0xf8245c
  f85352:	508f           	addq.l #8,sp
  f85354:	7001           	moveq #1,d0
  f85356:	241f           	move.l (sp)+,d2
  f85358:	285f           	movea.l (sp)+,a4
  f8535a:	4e75           	rts
  f8535c:	7365           	.short 0x7365
  f8535e:	6300 6d69      	bls.w 0xf8c0c9
  f85362:	6e75           	bgt.s 0xf853d9
  f85364:	7465           	moveq #101,d2
  f85366:	7300           	.short 0x7300
  f85368:	686f           	bvc.s 0xf853d9
  f8536a:	7572           	.short 0x7572
  f8536c:	7300           	.short 0x7300
  f8536e:	6d73           	blt.s 0xf853e3
  f85370:	006d 696c 6c69 	ori.w #26988,27753(a5)
  f85376:	7365           	.short 0x7365
  f85378:	636f           	bls.s 0xf853e9
  f8537a:	6e64           	bgt.s 0xf853e0
  f8537c:	7300           	.short 0x7300
  f8537e:	7573           	.short 0x7573
  f85380:	6563           	bcs.s 0xf853e5
  f85382:	6f6e           	ble.s 0xf853f2
  f85384:	6473           	bcc.s 0xf853f9
  f85386:	006d 6963 726f 	ori.w #26979,29295(a5)
  f8538c:	7365           	.short 0x7365
  f8538e:	636f           	bls.s 0xf853ff
  f85390:	6e64           	bgt.s 0xf853f6
  f85392:	7300           	.short 0x7300
  f85394:	6e73           	bgt.s 0xf85409
  f85396:	6563           	bcs.s 0xf853fb
  f85398:	6f6e           	ble.s 0xf85408
  f8539a:	6473           	bcc.s 0xf8540f
  f8539c:	006e 616e 6f73 	ori.w #24942,28531(a6)
  f853a2:	6563           	bcs.s 0xf85407
  f853a4:	6f6e           	ble.s 0xf85414
  f853a6:	6473           	bcc.s 0xf8541b
  f853a8:	0000 48e7      	ori.b #-25,d0
  f853ac:	3028 262f      	move.w 9775(a0),d0
  f853b0:	0014 246f      	ori.b #111,(a4)
  f853b4:	0018 2f03      	ori.b #3,(a0)+
  f853b8:	61ff 0000 5e3a 	bsr.l 0xf8b1f4
  f853be:	588f           	addq.l #4,sp
  f853c0:	2400           	move.l d0,d2
  f853c2:	6700 00ea      	beq.w 0xf854ae
  f853c6:	2f00           	move.l d0,-(sp)
  f853c8:	487a ff92      	pea 0xf8535c(pc)
  f853cc:	2f03           	move.l d3,-(sp)
  f853ce:	61ff 0000 5e38 	bsr.l 0xf8b208
  f853d4:	4fef 000c      	lea 12(sp),sp
  f853d8:	4a80           	tst.l d0
  f853da:	660a           	bne.s 0xf853e6
  f853dc:	4292           	clr.l (a2)
  f853de:	4280           	clr.l d0
  f853e0:	4cdf 140c      	movem.l (sp)+,d2-d3/a2/a4
  f853e4:	4e75           	rts
  f853e6:	2f02           	move.l d2,-(sp)
  f853e8:	487a ff76      	pea 0xf85360(pc)
  f853ec:	2f03           	move.l d3,-(sp)
  f853ee:	61ff 0000 5e18 	bsr.l 0xf8b208
  f853f4:	4fef 000c      	lea 12(sp),sp
  f853f8:	4a80           	tst.l d0
  f853fa:	6606           	bne.s 0xf85402
  f853fc:	7001           	moveq #1,d0
  f853fe:	2480           	move.l d0,(a2)
  f85400:	60dc           	bra.s 0xf853de
  f85402:	2f02           	move.l d2,-(sp)
  f85404:	487a ff62      	pea 0xf85368(pc)
  f85408:	2f03           	move.l d3,-(sp)
  f8540a:	61ff 0000 5dfc 	bsr.l 0xf8b208
  f85410:	4fef 000c      	lea 12(sp),sp
  f85414:	4a80           	tst.l d0
  f85416:	6604           	bne.s 0xf8541c
  f85418:	7002           	moveq #2,d0
  f8541a:	60e2           	bra.s 0xf853fe
  f8541c:	2f02           	move.l d2,-(sp)
  f8541e:	487a ff4e      	pea 0xf8536e(pc)
  f85422:	2f03           	move.l d3,-(sp)
  f85424:	61ff 0000 5de2 	bsr.l 0xf8b208
  f8542a:	4fef 000c      	lea 12(sp),sp
  f8542e:	4a80           	tst.l d0
  f85430:	6716           	beq.s 0xf85448
  f85432:	2f02           	move.l d2,-(sp)
  f85434:	487a ff3b      	pea 0xf85371(pc)
  f85438:	2f03           	move.l d3,-(sp)
  f8543a:	61ff 0000 5dcc 	bsr.l 0xf8b208
  f85440:	4fef 000c      	lea 12(sp),sp
  f85444:	4a80           	tst.l d0
  f85446:	6604           	bne.s 0xf8544c
  f85448:	70ff           	moveq #-1,d0
  f8544a:	60b2           	bra.s 0xf853fe
  f8544c:	2f02           	move.l d2,-(sp)
  f8544e:	487a ff2e      	pea 0xf8537e(pc)
  f85452:	2f03           	move.l d3,-(sp)
  f85454:	61ff 0000 5db2 	bsr.l 0xf8b208
  f8545a:	4fef 000c      	lea 12(sp),sp
  f8545e:	4a80           	tst.l d0
  f85460:	6716           	beq.s 0xf85478
  f85462:	2f02           	move.l d2,-(sp)
  f85464:	487a ff21      	pea 0xf85387(pc)
  f85468:	2f03           	move.l d3,-(sp)
  f8546a:	61ff 0000 5d9c 	bsr.l 0xf8b208
  f85470:	4fef 000c      	lea 12(sp),sp
  f85474:	4a80           	tst.l d0
  f85476:	6604           	bne.s 0xf8547c
  f85478:	70fe           	moveq #-2,d0
  f8547a:	6082           	bra.s 0xf853fe
  f8547c:	2f02           	move.l d2,-(sp)
  f8547e:	487a ff14      	pea 0xf85394(pc)
  f85482:	2f03           	move.l d3,-(sp)
  f85484:	61ff 0000 5d82 	bsr.l 0xf8b208
  f8548a:	4fef 000c      	lea 12(sp),sp
  f8548e:	4a80           	tst.l d0
  f85490:	6716           	beq.s 0xf854a8
  f85492:	2f02           	move.l d2,-(sp)
  f85494:	487a ff07      	pea 0xf8539d(pc)
  f85498:	2f03           	move.l d3,-(sp)
  f8549a:	61ff 0000 5d6c 	bsr.l 0xf8b208
  f854a0:	4fef 000c      	lea 12(sp),sp
  f854a4:	4a80           	tst.l d0
  f854a6:	6606           	bne.s 0xf854ae
  f854a8:	70fd           	moveq #-3,d0
  f854aa:	6000 ff52      	bra.w 0xf853fe
  f854ae:	7001           	moveq #1,d0
  f854b0:	6000 ff2e      	bra.w 0xf853e0
  f854b4:	4172           	.short 0x4172
  f854b6:	6775           	beq.s 0xf8552d
  f854b8:	6d65           	blt.s 0xf8551f
  f854ba:	6e74           	bgt.s 0xf85530
  f854bc:	2022           	move.l -(a2),d0
  f854be:	2573 2220 746f 	move.l (32,a3,d2.w*2),29807(a2)
  f854c4:	6f20           	ble.s 0xf854e6
  f854c6:	6c6f           	bge.s 0xf85537
  f854c8:	6e67           	bgt.s 0xf85531
  f854ca:	0a00 496e      	eori.b #110,d0
  f854ce:	7661           	moveq #97,d3
  f854d0:	6c69           	bge.s 0xf8553b
  f854d2:	6420           	bcc.s 0xf854f4
  f854d4:	7769           	.short 0x7769
  f854d6:	6474           	bcc.s 0xf8554c
  f854d8:	6820           	bvc.s 0xf854fa
  f854da:	2575 2062 7974 	move.l (98,a5,d2.w),31092(a2)
  f854e0:	6573           	bcs.s 0xf85555
  f854e2:	2028 6d61      	move.l 28001(a0),d0
  f854e6:	7869           	moveq #105,d4
  f854e8:	6d75           	blt.s 0xf8555f
  f854ea:	6d20           	blt.s 0xf8550c
  f854ec:	2575 290a 0000 	move.l ([0,a5,d2.l],0),18663(a2)
  f854f2:	48e7 
  f854f4:	3828 262f      	move.w 9775(a0),d4
  f854f8:	0018 226f      	ori.b #111,(a0)+
  f854fc:	001c 246f      	ori.b #111,(a4)+
  f85500:	0020 4291      	ori.b #-111,-(a0)
  f85504:	4212           	clr.b (a2)
  f85506:	2043           	movea.l d3,a0
  f85508:	4281           	clr.l d1
  f8550a:	1010           	move.b (a0),d0
  f8550c:	662a           	bne.s 0xf85538
  f8550e:	4a91           	tst.l (a1)
  f85510:	6604           	bne.s 0xf85516
  f85512:	7004           	moveq #4,d0
  f85514:	2280           	move.l d0,(a1)
  f85516:	2011           	move.l (a1),d0
  f85518:	0c80 0000 0080 	cmpi.l #128,d0
  f8551e:	6300 00c6      	bls.w 0xf855e6
  f85522:	4878 0080      	pea 0x80
  f85526:	2f00           	move.l d0,-(sp)
  f85528:	487a ffa2      	pea 0xf854cc(pc)
  f8552c:	61ff ffff cf2e 	bsr.l 0xf8245c
  f85532:	4fef 000c      	lea 12(sp),sp
  f85536:	606a           	bra.s 0xf855a2
  f85538:	0c00 006f      	cmpi.b #111,d0
  f8553c:	676c           	beq.s 0xf855aa
  f8553e:	6e3a           	bgt.s 0xf8557a
  f85540:	0c00 0068      	cmpi.b #104,d0
  f85544:	676e           	beq.s 0xf855b4
  f85546:	0c00 006c      	cmpi.b #108,d0
  f8554a:	676c           	beq.s 0xf855b8
  f8554c:	0c00 0062      	cmpi.b #98,d0
  f85550:	676a           	beq.s 0xf855bc
  f85552:	1400           	move.b d0,d2
  f85554:	0602 00d0      	addi.b #-48,d2
  f85558:	0c02 0009      	cmpi.b #9,d2
  f8555c:	6228           	bhi.s 0xf85586
  f8555e:	2408           	move.l a0,d2
  f85560:	2042           	movea.l d2,a0
  f85562:	1010           	move.b (a0),d0
  f85564:	5282           	addq.l #1,d2
  f85566:	1800           	move.b d0,d4
  f85568:	0604 00d0      	addi.b #-48,d4
  f8556c:	0c04 0009      	cmpi.b #9,d4
  f85570:	6356           	bls.s 0xf855c8
  f85572:	4a00           	tst.b d0
  f85574:	6638           	bne.s 0xf855ae
  f85576:	5388           	subq.l #1,a0
  f85578:	6034           	bra.s 0xf855ae
  f8557a:	0c00 0071      	cmpi.b #113,d0
  f8557e:	6740           	beq.s 0xf855c0
  f85580:	0c00 0077      	cmpi.b #119,d0
  f85584:	673e           	beq.s 0xf855c4
  f85586:	2401           	move.l d1,d2
  f85588:	5282           	addq.l #1,d2
  f8558a:	1580 1800      	move.b d0,(0,a2,d1.l)
  f8558e:	701f           	moveq #31,d0
  f85590:	b082           	cmp.l d2,d0
  f85592:	644a           	bcc.s 0xf855de
  f85594:	2f03           	move.l d3,-(sp)
  f85596:	487a ff1c      	pea 0xf854b4(pc)
  f8559a:	61ff ffff cec0 	bsr.l 0xf8245c
  f855a0:	508f           	addq.l #8,sp
  f855a2:	7001           	moveq #1,d0
  f855a4:	4cdf 141c      	movem.l (sp)+,d2-d4/a2/a4
  f855a8:	4e75           	rts
  f855aa:	7010           	moveq #16,d0
  f855ac:	2280           	move.l d0,(a1)
  f855ae:	5288           	addq.l #1,a0
  f855b0:	6000 ff58      	bra.w 0xf8550a
  f855b4:	7020           	moveq #32,d0
  f855b6:	60f4           	bra.s 0xf855ac
  f855b8:	7004           	moveq #4,d0
  f855ba:	60f0           	bra.s 0xf855ac
  f855bc:	7001           	moveq #1,d0
  f855be:	60ec           	bra.s 0xf855ac
  f855c0:	7008           	moveq #8,d0
  f855c2:	60e8           	bra.s 0xf855ac
  f855c4:	7002           	moveq #2,d0
  f855c6:	60e4           	bra.s 0xf855ac
  f855c8:	700a           	moveq #10,d0
  f855ca:	4c11 0800      	muls.l (a1),d0
  f855ce:	2280           	move.l d0,(a1)
  f855d0:	1810           	move.b (a0),d4
  f855d2:	49c4           	extb.l d4
  f855d4:	2040           	movea.l d0,a0
  f855d6:	41f0 48d0      	lea (-48,a0,d4.l),a0
  f855da:	2288           	move.l a0,(a1)
  f855dc:	6082           	bra.s 0xf85560
  f855de:	4232 2800      	clr.b (0,a2,d2.l)
  f855e2:	2202           	move.l d2,d1
  f855e4:	60c8           	bra.s 0xf855ae
  f855e6:	4280           	clr.l d0
  f855e8:	60ba           	bra.s 0xf855a4
  f855ea:	202f 0004      	move.l 4(sp),d0
  f855ee:	4c3c 0800 0000 	muls.l #1000,d0
  f855f4:	03e8 
  f855f6:	2f00           	move.l d0,-(sp)
  f855f8:	61ff ffff efea 	bsr.l 0xf845e4
  f855fe:	588f           	addq.l #4,sp
  f85600:	4280           	clr.l d0
  f85602:	4e75           	rts
  f85604:	2f2f 0004      	move.l 4(sp),-(sp)
  f85608:	61ff ffff f004 	bsr.l 0xf8460e
  f8560e:	588f           	addq.l #4,sp
  f85610:	4280           	clr.l d0
  f85612:	4e75           	rts
  f85614:	2530 346c      	move.l (108,a0,d3.w*4),-(a2)
  f85618:	6c78           	bge.s 0xf85692
  f8561a:	0025 302a      	ori.b #42,-(a5)
  f8561e:	6c6c           	bge.s 0xf8568c
  f85620:	7800           	moveq #0,d4
  f85622:	2f0c           	move.l a4,-(sp)
  f85624:	2f02           	move.l d2,-(sp)
  f85626:	202f 0014      	move.l 20(sp),d0
  f8562a:	222f 0018      	move.l 24(sp),d1
  f8562e:	142f 0013      	move.b 19(sp),d2
  f85632:	670c           	beq.s 0xf85640
  f85634:	0c02 0001      	cmpi.b #1,d2
  f85638:	6720           	beq.s 0xf8565a
  f8563a:	241f           	move.l (sp)+,d2
  f8563c:	285f           	movea.l (sp)+,a4
  f8563e:	4e75           	rts
  f85640:	2f40 0010      	move.l d0,16(sp)
  f85644:	2f41 0014      	move.l d1,20(sp)
  f85648:	41fa ffca      	lea 0xf85614(pc),a0
  f8564c:	2f48 000c      	move.l a0,12(sp)
  f85650:	241f           	move.l (sp)+,d2
  f85652:	285f           	movea.l (sp)+,a4
  f85654:	60ff ffff ce06 	bra.l 0xf8245c
  f8565a:	2240           	movea.l d0,a1
  f8565c:	41f8 0000      	lea 0x0,a0
  f85660:	4a88           	tst.l a0
  f85662:	6604           	bne.s 0xf85668
  f85664:	4a89           	tst.l a1
  f85666:	6722           	beq.s 0xf8568a
  f85668:	307c 0010      	movea.w #16,a0
  f8566c:	2f40 0014      	move.l d0,20(sp)
  f85670:	2f41 0018      	move.l d1,24(sp)
  f85674:	2f48 0010      	move.l a0,16(sp)
  f85678:	41fa ffa1      	lea 0xf8561b(pc),a0
  f8567c:	2f48 000c      	move.l a0,12(sp)
  f85680:	241f           	move.l (sp)+,d2
  f85682:	285f           	movea.l (sp)+,a4
  f85684:	60ff ffff cdd6 	bra.l 0xf8245c
  f8568a:	307c 0008      	movea.w #8,a0
  f8568e:	60dc           	bra.s 0xf8566c
  f85690:	3c61           	movea.w -(a1),a6
  f85692:	6464           	bcc.s 0xf856f8
  f85694:	723e           	moveq #62,d1
  f85696:	2061           	movea.l -(a1),a0
  f85698:	7267           	moveq #103,d1
  f8569a:	756d           	.short 0x756d
  f8569c:	656e           	bcs.s 0xf8570c
  f8569e:	7420           	moveq #32,d2
  f856a0:	7265           	moveq #101,d1
  f856a2:	7175           	.short 0x7175
  f856a4:	6972           	bvs.s 0xf85718
  f856a6:	6564           	bcs.s 0xf8570c
  f856a8:	0025 6c6c      	ori.b #108,-(a5)
  f856ac:	7825           	moveq #37,d4
  f856ae:	6e00 496e      	bgt.w 0xf8a01e
  f856b2:	7661           	moveq #97,d3
  f856b4:	6c69           	bge.s 0xf8571f
  f856b6:	6420           	bcc.s 0xf856d8
  f856b8:	6164           	bsr.s 0xf8571e
  f856ba:	6472           	bcc.s 0xf8572e
  f856bc:	6573           	bcs.s 0xf85731
  f856be:	7320           	.short 0x7320
  f856c0:	2225           	move.l -(a5),d1
  f856c2:	7322           	.short 0x7322
  f856c4:	0a00 4e55      	eori.b #85,d0
  f856c8:	fff0           	.short 0xfff0
  f856ca:	48e7 0038      	movem.l a2-a4,-(sp)
  f856ce:	266d 0008      	movea.l 8(a5),a3
  f856d2:	246d 000c      	movea.l 12(a5),a2
  f856d6:	42ad fff4      	clr.l -12(a5)
  f856da:	2053           	movea.l (a3),a0
  f856dc:	2b50 fff0      	move.l (a0),-16(a5)
  f856e0:	4a92           	tst.l (a2)
  f856e2:	6e18           	bgt.s 0xf856fc
  f856e4:	487a ffaa      	pea 0xf85690(pc)
  f856e8:	61ff ffff e6e8 	bsr.l 0xf83dd2
  f856ee:	588f           	addq.l #4,sp
  f856f0:	7002           	moveq #2,d0
  f856f2:	4ced 1c00 ffe4 	movem.l -28(a5),a2-a4
  f856f8:	4e5d           	unlk a5
  f856fa:	4e75           	rts
  f856fc:	206d 0010      	movea.l 16(a5),a0
  f85700:	4290           	clr.l (a0)
  f85702:	217c 0000 0001 	move.l #1,4(a0)
  f85708:	0004 
  f8570a:	486d fff4      	pea -12(a5)
  f8570e:	486d fff8      	pea -8(a5)
  f85712:	487a ff95      	pea 0xf856a9(pc)
  f85716:	2f2d fff0      	move.l -16(a5),-(sp)
  f8571a:	61ff ffff d752 	bsr.l 0xf82e6e
  f85720:	4fef 0010      	lea 16(sp),sp
  f85724:	5380           	subq.l #1,d0
  f85726:	6612           	bne.s 0xf8573a
  f85728:	202d fff4      	move.l -12(a5),d0
  f8572c:	206d fff0      	movea.l -16(a5),a0
  f85730:	1030 0800      	move.b (0,a0,d0.l),d0
  f85734:	0200 00df      	andi.b #-33,d0
  f85738:	6714           	beq.s 0xf8574e
  f8573a:	2f2d fff0      	move.l -16(a5),-(sp)
  f8573e:	487a ff70      	pea 0xf856b0(pc)
  f85742:	61ff ffff cd18 	bsr.l 0xf8245c
  f85748:	508f           	addq.l #8,sp
  f8574a:	7001           	moveq #1,d0
  f8574c:	60a4           	bra.s 0xf856f2
  f8574e:	206d 0014      	movea.l 20(a5),a0
  f85752:	202d fff8      	move.l -8(a5),d0
  f85756:	222d fffc      	move.l -4(a5),d1
  f8575a:	2080           	move.l d0,(a0)
  f8575c:	2141 0004      	move.l d1,4(a0)
  f85760:	5893           	addq.l #4,(a3)
  f85762:	5392           	subq.l #1,(a2)
  f85764:	4280           	clr.l d0
  f85766:	608a           	bra.s 0xf856f2
  f85768:	496e           	.short 0x496e
  f8576a:	7661           	moveq #97,d3
  f8576c:	6c69           	bge.s 0xf857d7
  f8576e:	6420           	bcc.s 0xf85790
  f85770:	7661           	moveq #97,d3
  f85772:	6c75           	bge.s 0xf857e9
  f85774:	6520           	bcs.s 0xf85796
  f85776:	2225           	move.l -(a5),d1
  f85778:	7322           	.short 0x7322
  f8577a:	2066           	movea.l -(a6),a0
  f8577c:	6f72           	ble.s 0xf857f0
  f8577e:	2025           	move.l -(a5),d0
  f85780:	6420           	bcc.s 0xf857a2
  f85782:	6279           	bhi.s 0xf857fd
  f85784:	7465           	moveq #101,d2
  f85786:	2077 6964 7468 	movea.l ([29800,sp],0),a0
  f8578c:	0a00 496e      	eori.b #110,d0
  f85790:	7661           	moveq #97,d3
  f85792:	6c69           	bge.s 0xf857fd
  f85794:	6420           	bcc.s 0xf857b6
  f85796:	6469           	bcc.s 0xf85801
  f85798:	6769           	beq.s 0xf85803
  f8579a:	7420           	moveq #32,d2
  f8579c:	2725           	move.l -(a5),-(a3)
  f8579e:	6327           	bls.s 0xf857c7
  f857a0:	2069 6e20      	movea.l 28192(a1),a0
  f857a4:	2225           	move.l -(a5),d1
  f857a6:	7322           	.short 0x7322
  f857a8:	0a00 48e7      	eori.b #-25,d0
  f857ac:	3e3c 282f      	move.w #10287,d7
  f857b0:	0028 246f 002c 	ori.b #111,44(a0)
  f857b6:	242f 0030      	move.l 48(sp),d2
  f857ba:	2f04           	move.l d4,-(sp)
  f857bc:	61ff 0000 5a36 	bsr.l 0xf8b1f4
  f857c2:	588f           	addq.l #4,sp
  f857c4:	2a44           	movea.l d4,a5
  f857c6:	dbc0           	adda.l d0,a5
  f857c8:	4281           	clr.l d1
  f857ca:	2242           	movea.l d2,a1
  f857cc:	5389           	subq.l #1,a1
  f857ce:	7a00           	moveq #0,d5
  f857d0:	4605           	not.b d5
  f857d2:	b081           	cmp.l d1,d0
  f857d4:	662e           	bne.s 0xf85804
  f857d6:	5281           	addq.l #1,d1
  f857d8:	e289           	lsr.l #1,d1
  f857da:	b481           	cmp.l d1,d2
  f857dc:	6500 00b0      	bcs.w 0xf8588e
  f857e0:	2042           	movea.l d2,a0
  f857e2:	91c1           	suba.l d1,a0
  f857e4:	7001           	moveq #1,d0
  f857e6:	9082           	sub.l d2,d0
  f857e8:	d081           	add.l d1,d0
  f857ea:	93c1           	suba.l d1,a1
  f857ec:	d089           	add.l a1,d0
  f857ee:	2f08           	move.l a0,-(sp)
  f857f0:	42a7           	clr.l -(sp)
  f857f2:	4872 0800      	pea (0,a2,d0.l)
  f857f6:	61ff 0000 58fc 	bsr.l 0xf8b0f4
  f857fc:	4fef 000c      	lea 12(sp),sp
  f85800:	4280           	clr.l d0
  f85802:	6038           	bra.s 0xf8583c
  f85804:	1625           	move.b -(a5),d3
  f85806:	1c03           	move.b d3,d6
  f85808:	49c6           	extb.l d6
  f8580a:	2646           	movea.l d6,a3
  f8580c:	1c03           	move.b d3,d6
  f8580e:	0606 00d0      	addi.b #-48,d6
  f85812:	0c06 0009      	cmpi.b #9,d6
  f85816:	622a           	bhi.s 0xf85842
  f85818:	41eb ffd0      	lea -48(a3),a0
  f8581c:	2601           	move.l d1,d3
  f8581e:	e28b           	lsr.l #1,d3
  f85820:	2c09           	move.l a1,d6
  f85822:	9c83           	sub.l d3,d6
  f85824:	b483           	cmp.l d3,d2
  f85826:	623e           	bhi.s 0xf85866
  f85828:	2f02           	move.l d2,-(sp)
  f8582a:	2f04           	move.l d4,-(sp)
  f8582c:	487a ff3a      	pea 0xf85768(pc)
  f85830:	61ff ffff cc2a 	bsr.l 0xf8245c
  f85836:	4fef 000c      	lea 12(sp),sp
  f8583a:	7001           	moveq #1,d0
  f8583c:	4cdf 3c7c      	movem.l (sp)+,d2-d6/a2-a5
  f85840:	4e75           	rts
  f85842:	1c03           	move.b d3,d6
  f85844:	0606 009f      	addi.b #-97,d6
  f85848:	0c06 0005      	cmpi.b #5,d6
  f8584c:	6206           	bhi.s 0xf85854
  f8584e:	41eb ffa9      	lea -87(a3),a0
  f85852:	60c8           	bra.s 0xf8581c
  f85854:	0603 00bf      	addi.b #-65,d3
  f85858:	2045           	movea.l d5,a0
  f8585a:	0c03 0005      	cmpi.b #5,d3
  f8585e:	62bc           	bhi.s 0xf8581c
  f85860:	41eb ffc9      	lea -55(a3),a0
  f85864:	60b6           	bra.s 0xf8581c
  f85866:	760f           	moveq #15,d3
  f85868:	b688           	cmp.l a0,d3
  f8586a:	640a           	bcc.s 0xf85876
  f8586c:	2f04           	move.l d4,-(sp)
  f8586e:	2f0b           	move.l a3,-(sp)
  f85870:	487a ff1c      	pea 0xf8578e(pc)
  f85874:	60ba           	bra.s 0xf85830
  f85876:	47f2 6800      	lea (0,a2,d6.l),a3
  f8587a:	3608           	move.w a0,d3
  f8587c:	0801 0000      	btst #0,d1
  f85880:	6704           	beq.s 0xf85886
  f85882:	e90b           	lsl.b #4,d3
  f85884:	8613           	or.b (a3),d3
  f85886:	1683           	move.b d3,(a3)
  f85888:	5281           	addq.l #1,d1
  f8588a:	6000 ff46      	bra.w 0xf857d2
  f8588e:	41f8 0000      	lea 0x0,a0
  f85892:	7001           	moveq #1,d0
  f85894:	6000 ff54      	bra.w 0xf857ea
  f85898:	6320           	bls.s 0xf858ba
  f8589a:	7265           	moveq #101,d1
  f8589c:	7175           	.short 0x7175
  f8589e:	6972           	bvs.s 0xf85912
  f858a0:	6573           	bcs.s 0xf85915
  f858a2:	2061           	movea.l -(a1),a0
  f858a4:	7267           	moveq #103,d1
  f858a6:	756d           	.short 0x756d
  f858a8:	656e           	bcs.s 0xf85918
  f858aa:	7473           	moveq #115,d2
  f858ac:	3a20           	move.w -(a0),d5
  f858ae:	3c61           	movea.w -(a1),a6
  f858b0:	6464           	bcc.s 0xf85916
  f858b2:	7265           	moveq #101,d1
  f858b4:	7373           	.short 0x7373
  f858b6:	3e20           	move.w -(a0),d7
  f858b8:	5b3c           	.short 0x5b3c
  f858ba:	7661           	moveq #97,d3
  f858bc:	6c75           	bge.s 0xf85933
  f858be:	6573           	bcs.s 0xf85933
  f858c0:	2e2e 2e3e      	move.l 11838(a6),d7
  f858c4:	5d00           	subq.b #6,d0
  f858c6:	556e 6b6e      	subq.w #2,27502(a6)
  f858ca:	6f77           	ble.s 0xf85943
  f858cc:	6e20           	bgt.s 0xf858ee
  f858ce:	666c           	bne.s 0xf8593c
  f858d0:	6167           	bsr.s 0xf85939
  f858d2:	2022           	move.l -(a2),d0
  f858d4:	2573 220a 0045 	move.l (10,a3,d2.w*2),69(a2)
  f858da:	7272           	moveq #114,d1
  f858dc:	6f72           	ble.s 0xf85950
  f858de:	2077 7269      	movea.l (105,sp,d7.w*2),a0
  f858e2:	7469           	moveq #105,d2
  f858e4:	6e67           	bgt.s 0xf8594d
  f858e6:	2025           	move.l -(a5),d0
  f858e8:	6420           	bcc.s 0xf8590a
  f858ea:	6279           	bhi.s 0xf85965
  f858ec:	7465           	moveq #101,d2
  f858ee:	7320           	.short 0x7320
  f858f0:	6174           	bsr.s 0xf85966
  f858f2:	2000           	move.l d0,d0
  f858f4:	4e55 ff4c      	link.w a5,#-180
  f858f8:	48e7 3f38      	movem.l d2-d7/a2-a4,-(sp)
  f858fc:	7002           	moveq #2,d0
  f858fe:	b0ad 0008      	cmp.l 8(a5),d0
  f85902:	6d1a           	blt.s 0xf8591e
  f85904:	487a ff92      	pea 0xf85898(pc)
  f85908:	61ff ffff e4c8 	bsr.l 0xf83dd2
  f8590e:	588f           	addq.l #4,sp
  f85910:	7402           	moveq #2,d2
  f85912:	2002           	move.l d2,d0
  f85914:	4ced 1cfc ff28 	movem.l -216(a5),d2-d7/a2-a4
  f8591a:	4e5d           	unlk a5
  f8591c:	4e75           	rts
  f8591e:	240d           	move.l a5,d2
  f85920:	0682 ffff ff60 	addi.l #-160,d2
  f85926:	2f02           	move.l d2,-(sp)
  f85928:	486d ff4c      	pea -180(a5)
  f8592c:	206d 000c      	movea.l 12(a5),a0
  f85930:	2210           	move.l (a0),d1
  f85932:	5281           	addq.l #1,d1
  f85934:	2f01           	move.l d1,-(sp)
  f85936:	61ff ffff fbba 	bsr.l 0xf854f2
  f8593c:	4fef 000c      	lea 12(sp),sp
  f85940:	4a80           	tst.l d0
  f85942:	66cc           	bne.s 0xf85910
  f85944:	2042           	movea.l d2,a0
  f85946:	4207           	clr.b d7
  f85948:	2208           	move.l a0,d1
  f8594a:	1018           	move.b (a0)+,d0
  f8594c:	6640           	bne.s 0xf8598e
  f8594e:	53ad 0008      	subq.l #1,8(a5)
  f85952:	58ad 000c      	addq.l #4,12(a5)
  f85956:	486d ff50      	pea -176(a5)
  f8595a:	486d ff58      	pea -168(a5)
  f8595e:	486d 0008      	pea 8(a5)
  f85962:	486d 000c      	pea 12(a5)
  f85966:	61ff ffff fd5e 	bsr.l 0xf856c6
  f8596c:	4fef 0010      	lea 16(sp),sp
  f85970:	4a80           	tst.l d0
  f85972:	669c           	bne.s 0xf85910
  f85974:	4aad 0008      	tst.l 8(a5)
  f85978:	6f8a           	ble.s 0xf85904
  f8597a:	47f8 0000      	lea 0x0,a3
  f8597e:	4286           	clr.l d6
  f85980:	45ed ff80      	lea -128(a5),a2
  f85984:	bcad 0008      	cmp.l 8(a5),d6
  f85988:	6d22           	blt.s 0xf859ac
  f8598a:	4282           	clr.l d2
  f8598c:	6084           	bra.s 0xf85912
  f8598e:	7e01           	moveq #1,d7
  f85990:	0200 00df      	andi.b #-33,d0
  f85994:	0c00 0053      	cmpi.b #83,d0
  f85998:	67ae           	beq.s 0xf85948
  f8599a:	2f01           	move.l d1,-(sp)
  f8599c:	487a ff28      	pea 0xf858c6(pc)
  f859a0:	61ff ffff caba 	bsr.l 0xf8245c
  f859a6:	508f           	addq.l #8,sp
  f859a8:	6000 ff66      	bra.w 0xf85910
  f859ac:	262d ff4c      	move.l -180(a5),d3
  f859b0:	2f03           	move.l d3,-(sp)
  f859b2:	2f0a           	move.l a2,-(sp)
  f859b4:	206d 000c      	movea.l 12(a5),a0
  f859b8:	2f30 6c00      	move.l (0,a0,d6.l*4),-(sp)
  f859bc:	61ff ffff fdec 	bsr.l 0xf857aa
  f859c2:	2400           	move.l d0,d2
  f859c4:	4fef 000c      	lea 12(sp),sp
  f859c8:	6600 ff48      	bne.w 0xf85912
  f859cc:	4a07           	tst.b d7
  f859ce:	6670           	bne.s 0xf85a40
  f859d0:	2a0b           	move.l a3,d5
  f859d2:	4284           	clr.l d4
  f859d4:	206d ff50      	movea.l -176(a5),a0
  f859d8:	226d ff54      	movea.l -172(a5),a1
  f859dc:	242d ff5c      	move.l -164(a5),d2
  f859e0:	0c02 0001      	cmpi.b #1,d2
  f859e4:	6674           	bne.s 0xf85a5a
  f859e6:	2f0a           	move.l a2,-(sp)
  f859e8:	2f03           	move.l d3,-(sp)
  f859ea:	2008           	move.l a0,d0
  f859ec:	2209           	move.l a1,d1
  f859ee:	d285           	add.l d5,d1
  f859f0:	d184           	addx.l d4,d0
  f859f2:	2f01           	move.l d1,-(sp)
  f859f4:	2f00           	move.l d0,-(sp)
  f859f6:	61ff 0000 2626 	bsr.l 0xf8801e
  f859fc:	2400           	move.l d0,d2
  f859fe:	4fef 0010      	lea 16(sp),sp
  f85a02:	676e           	beq.s 0xf85a72
  f85a04:	2f03           	move.l d3,-(sp)
  f85a06:	487a fed1      	pea 0xf858d9(pc)
  f85a0a:	61ff ffff ca50 	bsr.l 0xf8245c
  f85a10:	202d ff50      	move.l -176(a5),d0
  f85a14:	222d ff54      	move.l -172(a5),d1
  f85a18:	d285           	add.l d5,d1
  f85a1a:	d184           	addx.l d4,d0
  f85a1c:	2f01           	move.l d1,-(sp)
  f85a1e:	2f00           	move.l d0,-(sp)
  f85a20:	2f2d ff5c      	move.l -164(a5),-(sp)
  f85a24:	2f2d ff58      	move.l -168(a5),-(sp)
  f85a28:	61ff ffff fbf8 	bsr.l 0xf85622
  f85a2e:	4878 000a      	pea 0xa
  f85a32:	61ff ffff e360 	bsr.l 0xf83d94
  f85a38:	4fef 001c      	lea 28(sp),sp
  f85a3c:	6000 fed4      	bra.w 0xf85912
  f85a40:	2003           	move.l d3,d0
  f85a42:	e288           	lsr.l #1,d0
  f85a44:	224a           	movea.l a2,a1
  f85a46:	41f2 38ff      	lea (-1,a2,d3.l),a0
  f85a4a:	b480           	cmp.l d0,d2
  f85a4c:	6782           	beq.s 0xf859d0
  f85a4e:	1211           	move.b (a1),d1
  f85a50:	12d0           	move.b (a0),(a1)+
  f85a52:	1081           	move.b d1,(a0)
  f85a54:	5282           	addq.l #1,d2
  f85a56:	5388           	subq.l #1,a0
  f85a58:	60f0           	bra.s 0xf85a4a
  f85a5a:	0282 0000 00ff 	andi.l #255,d2
  f85a60:	2f02           	move.l d2,-(sp)
  f85a62:	487a f882      	pea 0xf852e6(pc)
  f85a66:	61ff ffff c9f4 	bsr.l 0xf8245c
  f85a6c:	508f           	addq.l #8,sp
  f85a6e:	7401           	moveq #1,d2
  f85a70:	6092           	bra.s 0xf85a04
  f85a72:	d7c3           	adda.l d3,a3
  f85a74:	5286           	addq.l #1,d6
  f85a76:	6000 ff0c      	bra.w 0xf85984
  f85a7a:	636f           	bls.s 0xf85aeb
  f85a7c:	6d70           	blt.s 0xf85aee
  f85a7e:	6172           	bsr.s 0xf85af2
  f85a80:	6520           	bcs.s 0xf85aa2
  f85a82:	7265           	moveq #101,d1
  f85a84:	7175           	.short 0x7175
  f85a86:	6972           	bvs.s 0xf85afa
  f85a88:	6573           	bcs.s 0xf85afd
  f85a8a:	2074 6872      	movea.l (114,a4,d6.l),a0
  f85a8e:	6565           	bcs.s 0xf85af5
  f85a90:	2061           	movea.l -(a1),a0
  f85a92:	7267           	moveq #103,d1
  f85a94:	756d           	.short 0x756d
  f85a96:	656e           	bcs.s 0xf85b06
  f85a98:	7473           	moveq #115,d2
  f85a9a:	3a20           	move.w -(a0),d5
  f85a9c:	3c61           	movea.w -(a1),a6
  f85a9e:	6464           	bcc.s 0xf85b04
  f85aa0:	7231           	moveq #49,d1
  f85aa2:	3e20           	move.w -(a0),d7
  f85aa4:	3c61           	movea.w -(a1),a6
  f85aa6:	6464           	bcc.s 0xf85b0c
  f85aa8:	7232           	moveq #50,d1
  f85aaa:	3e20           	move.w -(a0),d7
  f85aac:	3c6c 656e      	movea.w 25966(a4),a6
  f85ab0:	3e00           	move.w d0,d7
  f85ab2:	636f           	bls.s 0xf85b23
  f85ab4:	6d70           	blt.s 0xf85b26
  f85ab6:	6172           	bsr.s 0xf85b2a
  f85ab8:	6500 4572      	bcs.w 0xf8a02c
  f85abc:	726f           	moveq #111,d1
  f85abe:	7220           	moveq #32,d1
  f85ac0:	7265           	moveq #101,d1
  f85ac2:	6164           	bsr.s 0xf85b28
  f85ac4:	696e           	bvs.s 0xf85b34
  f85ac6:	6720           	beq.s 0xf85ae8
  f85ac8:	2564 2062      	move.l -(a4),8290(a2)
  f85acc:	7974           	.short 0x7974
  f85ace:	6573           	bcs.s 0xf85b43
  f85ad0:	2061           	movea.l -(a1),a0
  f85ad2:	7420           	moveq #32,d2
  f85ad4:	006d 6973 6d61 	ori.w #26995,28001(a5)
  f85ada:	7463           	moveq #99,d2
  f85adc:	6820           	bvc.s 0xf85afe
  f85ade:	0025 3032      	ori.b #50,-(a5)
  f85ae2:	7800           	moveq #0,d4
  f85ae4:	2021           	move.l -(a1),d0
  f85ae6:	3d20           	move.w -(a0),-(a6)
  f85ae8:	005e 4300      	ori.w #17152,(a6)+
  f85aec:	2564 206d      	move.l -(a4),8301(a2)
  f85af0:	6973           	bvs.s 0xf85b65
  f85af2:	6d61           	blt.s 0xf85b55
  f85af4:	7463           	moveq #99,d2
  f85af6:	6865           	bvc.s 0xf85b5d
  f85af8:	730a           	.short 0x730a
  f85afa:	0000 4e55      	ori.b #85,d0
  f85afe:	feac           	.short 0xfeac
  f85b00:	48e7 3f3a      	movem.l d2-d7/a2-a4/a6,-(sp)
  f85b04:	7003           	moveq #3,d0
  f85b06:	b0ad 0008      	cmp.l 8(a5),d0
  f85b0a:	6d1a           	blt.s 0xf85b26
  f85b0c:	487a ff6c      	pea 0xf85a7a(pc)
  f85b10:	61ff ffff e2c0 	bsr.l 0xf83dd2
  f85b16:	588f           	addq.l #4,sp
  f85b18:	7402           	moveq #2,d2
  f85b1a:	2002           	move.l d2,d0
  f85b1c:	4ced 5cfc fe84 	movem.l -380(a5),d2-d7/a2-a4/a6
  f85b22:	4e5d           	unlk a5
  f85b24:	4e75           	rts
  f85b26:	487a ff8a      	pea 0xf85ab2(pc)
  f85b2a:	206d 000c      	movea.l 12(a5),a0
  f85b2e:	2f10           	move.l (a0),-(sp)
  f85b30:	61ff ffff f6e6 	bsr.l 0xf85218
  f85b36:	508f           	addq.l #8,sp
  f85b38:	240d           	move.l a5,d2
  f85b3a:	0682 ffff fee0 	addi.l #-288,d2
  f85b40:	2f02           	move.l d2,-(sp)
  f85b42:	486d feb8      	pea -328(a5)
  f85b46:	2f00           	move.l d0,-(sp)
  f85b48:	61ff ffff f9a8 	bsr.l 0xf854f2
  f85b4e:	4fef 000c      	lea 12(sp),sp
  f85b52:	4a80           	tst.l d0
  f85b54:	66c2           	bne.s 0xf85b18
  f85b56:	2042           	movea.l d2,a0
  f85b58:	422d feb3      	clr.b -333(a5)
  f85b5c:	2208           	move.l a0,d1
  f85b5e:	1018           	move.b (a0)+,d0
  f85b60:	6600 00b0      	bne.w 0xf85c12
  f85b64:	53ad 0008      	subq.l #1,8(a5)
  f85b68:	58ad 000c      	addq.l #4,12(a5)
  f85b6c:	486d fec0      	pea -320(a5)
  f85b70:	486d fec8      	pea -312(a5)
  f85b74:	240d           	move.l a5,d2
  f85b76:	5082           	addq.l #8,d2
  f85b78:	2f02           	move.l d2,-(sp)
  f85b7a:	45ed 000c      	lea 12(a5),a2
  f85b7e:	2f0a           	move.l a2,-(sp)
  f85b80:	61ff ffff fb44 	bsr.l 0xf856c6
  f85b86:	4fef 0010      	lea 16(sp),sp
  f85b8a:	4a80           	tst.l d0
  f85b8c:	668a           	bne.s 0xf85b18
  f85b8e:	7201           	moveq #1,d1
  f85b90:	b2ad 0008      	cmp.l 8(a5),d1
  f85b94:	6c00 ff76      	bge.w 0xf85b0c
  f85b98:	486d fed0      	pea -304(a5)
  f85b9c:	486d fed8      	pea -296(a5)
  f85ba0:	2f02           	move.l d2,-(sp)
  f85ba2:	2f0a           	move.l a2,-(sp)
  f85ba4:	61ff ffff fb20 	bsr.l 0xf856c6
  f85baa:	4fef 0010      	lea 16(sp),sp
  f85bae:	4a80           	tst.l d0
  f85bb0:	6600 ff66      	bne.w 0xf85b18
  f85bb4:	7001           	moveq #1,d0
  f85bb6:	b0ad 0008      	cmp.l 8(a5),d0
  f85bba:	6600 ff50      	bne.w 0xf85b0c
  f85bbe:	486d febc      	pea -324(a5)
  f85bc2:	206d 000c      	movea.l 12(a5),a0
  f85bc6:	2f10           	move.l (a0),-(sp)
  f85bc8:	61ff ffff f6b4 	bsr.l 0xf8527e
  f85bce:	2400           	move.l d0,d2
  f85bd0:	508f           	addq.l #8,sp
  f85bd2:	6600 ff44      	bne.w 0xf85b18
  f85bd6:	45f8 0000      	lea 0x0,a2
  f85bda:	47ed ff00      	lea -256(a5),a3
  f85bde:	41ed ff80      	lea -128(a5),a0
  f85be2:	2b48 feae      	move.l a0,-338(a5)
  f85be6:	41fa feed      	lea 0xf85ad5(pc),a0
  f85bea:	2b48 feb4      	move.l a0,-332(a5)
  f85bee:	4dfa feef      	lea 0xf85adf(pc),a6
  f85bf2:	b5ed febc      	cmpa.l -324(a5),a2
  f85bf6:	653e           	bcs.s 0xf85c36
  f85bf8:	4a82           	tst.l d2
  f85bfa:	6700 ff1e      	beq.w 0xf85b1a
  f85bfe:	2f02           	move.l d2,-(sp)
  f85c00:	487a feea      	pea 0xf85aec(pc)
  f85c04:	61ff ffff c856 	bsr.l 0xf8245c
  f85c0a:	508f           	addq.l #8,sp
  f85c0c:	7401           	moveq #1,d2
  f85c0e:	6000 ff0a      	bra.w 0xf85b1a
  f85c12:	1b7c 0001 feb3 	move.b #1,-333(a5)
  f85c18:	0200 00df      	andi.b #-33,d0
  f85c1c:	0c00 0041      	cmpi.b #65,d0
  f85c20:	6700 ff3a      	beq.w 0xf85b5c
  f85c24:	2f01           	move.l d1,-(sp)
  f85c26:	487a fc9e      	pea 0xf858c6(pc)
  f85c2a:	61ff ffff c830 	bsr.l 0xf8245c
  f85c30:	508f           	addq.l #8,sp
  f85c32:	6000 fee4      	bra.w 0xf85b18
  f85c36:	2c2d feb8      	move.l -328(a5),d6
  f85c3a:	2a0a           	move.l a2,d5
  f85c3c:	4284           	clr.l d4
  f85c3e:	2f0b           	move.l a3,-(sp)
  f85c40:	2f06           	move.l d6,-(sp)
  f85c42:	202d fec0      	move.l -320(a5),d0
  f85c46:	222d fec4      	move.l -316(a5),d1
  f85c4a:	d285           	add.l d5,d1
  f85c4c:	d184           	addx.l d4,d0
  f85c4e:	2f01           	move.l d1,-(sp)
  f85c50:	2f00           	move.l d0,-(sp)
  f85c52:	2f2d fecc      	move.l -308(a5),-(sp)
  f85c56:	2f2d fec8      	move.l -312(a5),-(sp)
  f85c5a:	61ff ffff f6ac 	bsr.l 0xf85308
  f85c60:	2600           	move.l d0,d3
  f85c62:	4fef 0018      	lea 24(sp),sp
  f85c66:	673e           	beq.s 0xf85ca6
  f85c68:	2f06           	move.l d6,-(sp)
  f85c6a:	487a fe4e      	pea 0xf85aba(pc)
  f85c6e:	61ff ffff c7ec 	bsr.l 0xf8245c
  f85c74:	202d fec0      	move.l -320(a5),d0
  f85c78:	222d fec4      	move.l -316(a5),d1
  f85c7c:	d285           	add.l d5,d1
  f85c7e:	d184           	addx.l d4,d0
  f85c80:	2f01           	move.l d1,-(sp)
  f85c82:	2f00           	move.l d0,-(sp)
  f85c84:	2f2d fecc      	move.l -308(a5),-(sp)
  f85c88:	2f2d fec8      	move.l -312(a5),-(sp)
  f85c8c:	61ff ffff f994 	bsr.l 0xf85622
  f85c92:	4878 000a      	pea 0xa
  f85c96:	61ff ffff e0fc 	bsr.l 0xf83d94
  f85c9c:	4fef 001c      	lea 28(sp),sp
  f85ca0:	2403           	move.l d3,d2
  f85ca2:	6000 fe76      	bra.w 0xf85b1a
  f85ca6:	486d ff80      	pea -128(a5)
  f85caa:	2f06           	move.l d6,-(sp)
  f85cac:	202d fed0      	move.l -304(a5),d0
  f85cb0:	222d fed4      	move.l -300(a5),d1
  f85cb4:	d285           	add.l d5,d1
  f85cb6:	d184           	addx.l d4,d0
  f85cb8:	2f01           	move.l d1,-(sp)
  f85cba:	2f00           	move.l d0,-(sp)
  f85cbc:	2f2d fedc      	move.l -292(a5),-(sp)
  f85cc0:	2f2d fed8      	move.l -296(a5),-(sp)
  f85cc4:	61ff ffff f642 	bsr.l 0xf85308
  f85cca:	2600           	move.l d0,d3
  f85ccc:	4fef 0018      	lea 24(sp),sp
  f85cd0:	6726           	beq.s 0xf85cf8
  f85cd2:	2f06           	move.l d6,-(sp)
  f85cd4:	487a fde4      	pea 0xf85aba(pc)
  f85cd8:	61ff ffff c782 	bsr.l 0xf8245c
  f85cde:	202d fed0      	move.l -304(a5),d0
  f85ce2:	222d fed4      	move.l -300(a5),d1
  f85ce6:	d285           	add.l d5,d1
  f85ce8:	d184           	addx.l d4,d0
  f85cea:	2f01           	move.l d1,-(sp)
  f85cec:	2f00           	move.l d0,-(sp)
  f85cee:	2f2d fedc      	move.l -292(a5),-(sp)
  f85cf2:	2f2d fed8      	move.l -296(a5),-(sp)
  f85cf6:	6094           	bra.s 0xf85c8c
  f85cf8:	2f06           	move.l d6,-(sp)
  f85cfa:	486d ff80      	pea -128(a5)
  f85cfe:	2f0b           	move.l a3,-(sp)
  f85d00:	61ff 0000 5212 	bsr.l 0xf8af14
  f85d06:	4fef 000c      	lea 12(sp),sp
  f85d0a:	4a80           	tst.l d0
  f85d0c:	6700 0094      	beq.w 0xf85da2
  f85d10:	7207           	moveq #7,d1
  f85d12:	b282           	cmp.l d2,d1
  f85d14:	6408           	bcc.s 0xf85d1e
  f85d16:	4a2d feb3      	tst.b -333(a5)
  f85d1a:	6700 0084      	beq.w 0xf85da0
  f85d1e:	2f2d feb4      	move.l -332(a5),-(sp)
  f85d22:	61ff ffff c738 	bsr.l 0xf8245c
  f85d28:	202d fec0      	move.l -320(a5),d0
  f85d2c:	222d fec4      	move.l -316(a5),d1
  f85d30:	d285           	add.l d5,d1
  f85d32:	d184           	addx.l d4,d0
  f85d34:	2f01           	move.l d1,-(sp)
  f85d36:	2f00           	move.l d0,-(sp)
  f85d38:	2f2d fecc      	move.l -308(a5),-(sp)
  f85d3c:	2f2d fec8      	move.l -312(a5),-(sp)
  f85d40:	61ff ffff f8e0 	bsr.l 0xf85622
  f85d46:	4878 0020      	pea 0x20
  f85d4a:	61ff ffff e048 	bsr.l 0xf83d94
  f85d50:	4fef 0018      	lea 24(sp),sp
  f85d54:	4287           	clr.l d7
  f85d56:	be86           	cmp.l d6,d7
  f85d58:	6664           	bne.s 0xf85dbe
  f85d5a:	487a fd88      	pea 0xf85ae4(pc)
  f85d5e:	61ff ffff c6fc 	bsr.l 0xf8245c
  f85d64:	202d fed0      	move.l -304(a5),d0
  f85d68:	222d fed4      	move.l -300(a5),d1
  f85d6c:	d285           	add.l d5,d1
  f85d6e:	d184           	addx.l d4,d0
  f85d70:	2f01           	move.l d1,-(sp)
  f85d72:	2f00           	move.l d0,-(sp)
  f85d74:	2f2d fedc      	move.l -292(a5),-(sp)
  f85d78:	2f2d fed8      	move.l -296(a5),-(sp)
  f85d7c:	61ff ffff f8a4 	bsr.l 0xf85622
  f85d82:	4878 0020      	pea 0x20
  f85d86:	61ff ffff e00c 	bsr.l 0xf83d94
  f85d8c:	4fef 0018      	lea 24(sp),sp
  f85d90:	b687           	cmp.l d7,d3
  f85d92:	6640           	bne.s 0xf85dd4
  f85d94:	4878 000a      	pea 0xa
  f85d98:	61ff ffff dffa 	bsr.l 0xf83d94
  f85d9e:	588f           	addq.l #4,sp
  f85da0:	5282           	addq.l #1,d2
  f85da2:	61ff ffff e070 	bsr.l 0xf83e14
  f85da8:	4a80           	tst.l d0
  f85daa:	673e           	beq.s 0xf85dea
  f85dac:	487a fd3b      	pea 0xf85ae9(pc)
  f85db0:	61ff ffff e020 	bsr.l 0xf83dd2
  f85db6:	588f           	addq.l #4,sp
  f85db8:	7403           	moveq #3,d2
  f85dba:	6000 fd5e      	bra.w 0xf85b1a
  f85dbe:	4280           	clr.l d0
  f85dc0:	1033 7800      	move.b (0,a3,d7.l),d0
  f85dc4:	2f00           	move.l d0,-(sp)
  f85dc6:	2f0e           	move.l a6,-(sp)
  f85dc8:	61ff ffff c692 	bsr.l 0xf8245c
  f85dce:	5287           	addq.l #1,d7
  f85dd0:	508f           	addq.l #8,sp
  f85dd2:	6082           	bra.s 0xf85d56
  f85dd4:	4280           	clr.l d0
  f85dd6:	1035 3880      	move.b (-128,a5,d3.l),d0
  f85dda:	2f00           	move.l d0,-(sp)
  f85ddc:	2f0e           	move.l a6,-(sp)
  f85dde:	61ff ffff c67c 	bsr.l 0xf8245c
  f85de4:	5283           	addq.l #1,d3
  f85de6:	508f           	addq.l #8,sp
  f85de8:	60a6           	bra.s 0xf85d90
  f85dea:	d5c6           	adda.l d6,a2
  f85dec:	6000 fe04      	bra.w 0xf85bf2
  f85df0:	636f           	bls.s 0xf85e61
  f85df2:	7079           	moveq #121,d0
  f85df4:	2072 6571 7569 	movea.l ([1969844837,a2],0),a0
  f85dfa:	7265 
  f85dfc:	7320           	.short 0x7320
  f85dfe:	7468           	moveq #104,d2
  f85e00:	7265           	moveq #101,d1
  f85e02:	6520           	bcs.s 0xf85e24
  f85e04:	6172           	bsr.s 0xf85e78
  f85e06:	6775           	beq.s 0xf85e7d
  f85e08:	6d65           	blt.s 0xf85e6f
  f85e0a:	6e74           	bgt.s 0xf85e80
  f85e0c:	733a           	.short 0x733a
  f85e0e:	203c 7361 6464 	move.l #1935762532,d0
  f85e14:	723e           	moveq #62,d1
  f85e16:	203c 6461 6464 	move.l #1684104292,d0
  f85e1c:	723e           	moveq #62,d1
  f85e1e:	203c 6c65 6e3e 	move.l #1818586686,d0
  f85e24:	0063 6f70      	ori.w #28528,-(a3)
  f85e28:	7900           	.short 0x7900
  f85e2a:	4e55 ff38      	link.w a5,#-200
  f85e2e:	48e7 3f28      	movem.l d2-d7/a2/a4,-(sp)
  f85e32:	7003           	moveq #3,d0
  f85e34:	b0ad 0008      	cmp.l 8(a5),d0
  f85e38:	6d1a           	blt.s 0xf85e54
  f85e3a:	487a ffb4      	pea 0xf85df0(pc)
  f85e3e:	61ff ffff df92 	bsr.l 0xf83dd2
  f85e44:	588f           	addq.l #4,sp
  f85e46:	7402           	moveq #2,d2
  f85e48:	2002           	move.l d2,d0
  f85e4a:	4ced 14fc ff18 	movem.l -232(a5),d2-d7/a2/a4
  f85e50:	4e5d           	unlk a5
  f85e52:	4e75           	rts
  f85e54:	487a ffcf      	pea 0xf85e25(pc)
  f85e58:	206d 000c      	movea.l 12(a5),a0
  f85e5c:	2f10           	move.l (a0),-(sp)
  f85e5e:	61ff ffff f3b8 	bsr.l 0xf85218
  f85e64:	508f           	addq.l #8,sp
  f85e66:	486d ff60      	pea -160(a5)
  f85e6a:	486d ff38      	pea -200(a5)
  f85e6e:	2f00           	move.l d0,-(sp)
  f85e70:	61ff ffff f680 	bsr.l 0xf854f2
  f85e76:	4fef 000c      	lea 12(sp),sp
  f85e7a:	4a80           	tst.l d0
  f85e7c:	66c8           	bne.s 0xf85e46
  f85e7e:	53ad 0008      	subq.l #1,8(a5)
  f85e82:	58ad 000c      	addq.l #4,12(a5)
  f85e86:	486d ff40      	pea -192(a5)
  f85e8a:	486d ff48      	pea -184(a5)
  f85e8e:	240d           	move.l a5,d2
  f85e90:	5082           	addq.l #8,d2
  f85e92:	2f02           	move.l d2,-(sp)
  f85e94:	45ed 000c      	lea 12(a5),a2
  f85e98:	2f0a           	move.l a2,-(sp)
  f85e9a:	61ff ffff f82a 	bsr.l 0xf856c6
  f85ea0:	4fef 0010      	lea 16(sp),sp
  f85ea4:	4a80           	tst.l d0
  f85ea6:	669e           	bne.s 0xf85e46
  f85ea8:	7201           	moveq #1,d1
  f85eaa:	b2ad 0008      	cmp.l 8(a5),d1
  f85eae:	6c8a           	bge.s 0xf85e3a
  f85eb0:	486d ff50      	pea -176(a5)
  f85eb4:	486d ff58      	pea -168(a5)
  f85eb8:	2f02           	move.l d2,-(sp)
  f85eba:	2f0a           	move.l a2,-(sp)
  f85ebc:	61ff ffff f808 	bsr.l 0xf856c6
  f85ec2:	4fef 0010      	lea 16(sp),sp
  f85ec6:	4a80           	tst.l d0
  f85ec8:	6600 ff7c      	bne.w 0xf85e46
  f85ecc:	7001           	moveq #1,d0
  f85ece:	b0ad 0008      	cmp.l 8(a5),d0
  f85ed2:	6600 ff66      	bne.w 0xf85e3a
  f85ed6:	486d ff3c      	pea -196(a5)
  f85eda:	206d 000c      	movea.l 12(a5),a0
  f85ede:	2f10           	move.l (a0),-(sp)
  f85ee0:	61ff ffff f39c 	bsr.l 0xf8527e
  f85ee6:	2400           	move.l d0,d2
  f85ee8:	508f           	addq.l #8,sp
  f85eea:	6600 ff5a      	bne.w 0xf85e46
  f85eee:	4287           	clr.l d7
  f85ef0:	45ed ff80      	lea -128(a5),a2
  f85ef4:	bead ff3c      	cmp.l -196(a5),d7
  f85ef8:	6400 ff4e      	bcc.w 0xf85e48
  f85efc:	262d ff38      	move.l -200(a5),d3
  f85f00:	2a07           	move.l d7,d5
  f85f02:	4284           	clr.l d4
  f85f04:	2f0a           	move.l a2,-(sp)
  f85f06:	2f03           	move.l d3,-(sp)
  f85f08:	202d ff40      	move.l -192(a5),d0
  f85f0c:	222d ff44      	move.l -188(a5),d1
  f85f10:	d285           	add.l d5,d1
  f85f12:	d184           	addx.l d4,d0
  f85f14:	2f01           	move.l d1,-(sp)
  f85f16:	2f00           	move.l d0,-(sp)
  f85f18:	2f2d ff4c      	move.l -180(a5),-(sp)
  f85f1c:	2f2d ff48      	move.l -184(a5),-(sp)
  f85f20:	61ff ffff f3e6 	bsr.l 0xf85308
  f85f26:	2c00           	move.l d0,d6
  f85f28:	4fef 0018      	lea 24(sp),sp
  f85f2c:	673e           	beq.s 0xf85f6c
  f85f2e:	2f03           	move.l d3,-(sp)
  f85f30:	487a fb88      	pea 0xf85aba(pc)
  f85f34:	61ff ffff c526 	bsr.l 0xf8245c
  f85f3a:	202d ff40      	move.l -192(a5),d0
  f85f3e:	222d ff44      	move.l -188(a5),d1
  f85f42:	d285           	add.l d5,d1
  f85f44:	d184           	addx.l d4,d0
  f85f46:	2f01           	move.l d1,-(sp)
  f85f48:	2f00           	move.l d0,-(sp)
  f85f4a:	2f2d ff4c      	move.l -180(a5),-(sp)
  f85f4e:	2f2d ff48      	move.l -184(a5),-(sp)
  f85f52:	61ff ffff f6ce 	bsr.l 0xf85622
  f85f58:	4878 000a      	pea 0xa
  f85f5c:	61ff ffff de36 	bsr.l 0xf83d94
  f85f62:	4fef 001c      	lea 28(sp),sp
  f85f66:	2406           	move.l d6,d2
  f85f68:	6000 fede      	bra.w 0xf85e48
  f85f6c:	206d ff50      	movea.l -176(a5),a0
  f85f70:	226d ff54      	movea.l -172(a5),a1
  f85f74:	202d ff5c      	move.l -164(a5),d0
  f85f78:	0c00 0001      	cmpi.b #1,d0
  f85f7c:	6644           	bne.s 0xf85fc2
  f85f7e:	2f0a           	move.l a2,-(sp)
  f85f80:	2f03           	move.l d3,-(sp)
  f85f82:	2008           	move.l a0,d0
  f85f84:	2209           	move.l a1,d1
  f85f86:	d285           	add.l d5,d1
  f85f88:	d184           	addx.l d4,d0
  f85f8a:	2f01           	move.l d1,-(sp)
  f85f8c:	2f00           	move.l d0,-(sp)
  f85f8e:	61ff 0000 208e 	bsr.l 0xf8801e
  f85f94:	2c00           	move.l d0,d6
  f85f96:	4fef 0010      	lea 16(sp),sp
  f85f9a:	673e           	beq.s 0xf85fda
  f85f9c:	2f03           	move.l d3,-(sp)
  f85f9e:	487a f939      	pea 0xf858d9(pc)
  f85fa2:	61ff ffff c4b8 	bsr.l 0xf8245c
  f85fa8:	202d ff50      	move.l -176(a5),d0
  f85fac:	222d ff54      	move.l -172(a5),d1
  f85fb0:	d285           	add.l d5,d1
  f85fb2:	d184           	addx.l d4,d0
  f85fb4:	2f01           	move.l d1,-(sp)
  f85fb6:	2f00           	move.l d0,-(sp)
  f85fb8:	2f2d ff5c      	move.l -164(a5),-(sp)
  f85fbc:	2f2d ff58      	move.l -168(a5),-(sp)
  f85fc0:	6090           	bra.s 0xf85f52
  f85fc2:	0280 0000 00ff 	andi.l #255,d0
  f85fc8:	2f00           	move.l d0,-(sp)
  f85fca:	487a f31a      	pea 0xf852e6(pc)
  f85fce:	61ff ffff c48c 	bsr.l 0xf8245c
  f85fd4:	508f           	addq.l #8,sp
  f85fd6:	7c01           	moveq #1,d6
  f85fd8:	60c2           	bra.s 0xf85f9c
  f85fda:	61ff ffff de38 	bsr.l 0xf83e14
  f85fe0:	4a80           	tst.l d0
  f85fe2:	6712           	beq.s 0xf85ff6
  f85fe4:	487a fb03      	pea 0xf85ae9(pc)
  f85fe8:	61ff ffff dde8 	bsr.l 0xf83dd2
  f85fee:	588f           	addq.l #4,sp
  f85ff0:	7403           	moveq #3,d2
  f85ff2:	6000 fe54      	bra.w 0xf85e48
  f85ff6:	de83           	add.l d3,d7
  f85ff8:	6000 fefa      	bra.w 0xf85ef4
  f85ffc:	5468 6973      	addq.w #2,26995(a0)
  f86000:	2063           	movea.l -(a3),a0
  f86002:	6f6d           	ble.s 0xf86071
  f86004:	6d61           	blt.s 0xf86067
  f86006:	6e64           	bgt.s 0xf8606c
  f86008:	2072 6571 7569 	movea.l ([1969844837,a2],0),a0
  f8600e:	7265 
  f86010:	7320           	.short 0x7320
  f86012:	616e           	bsr.s 0xf86082
  f86014:	2061           	movea.l -(a1),a0
  f86016:	7267           	moveq #103,d1
  f86018:	756d           	.short 0x756d
  f8601a:	656e           	bcs.s 0xf8608a
  f8601c:	743a           	moveq #58,d2
  f8601e:	203c 6164 6472 	move.l #1633969266,d0
  f86024:	6573           	bcs.s 0xf86099
  f86026:	733e           	.short 0x733e
  f86028:	0054 6869      	ori.w #26729,(a4)
  f8602c:	7320           	.short 0x7320
  f8602e:	636f           	bls.s 0xf8609f
  f86030:	6d6d           	blt.s 0xf8609f
  f86032:	616e           	bsr.s 0xf860a2
  f86034:	6420           	bcc.s 0xf86056
  f86036:	7375           	.short 0x7375
  f86038:	7070           	moveq #112,d0
  f8603a:	6f72           	ble.s 0xf860ae
  f8603c:	7473           	moveq #115,d2
  f8603e:	2074 776f 2061 	movea.l ([8289,a4],1919382893),a0
  f86044:	7267 756d 
  f86048:	656e           	bcs.s 0xf860b8
  f8604a:	7473           	moveq #115,d2
  f8604c:	3a20           	move.w -(a0),d5
  f8604e:	3c61           	movea.w -(a1),a6
  f86050:	6464           	bcc.s 0xf860b6
  f86052:	7265           	moveq #101,d1
  f86054:	7373           	.short 0x7373
  f86056:	3e20           	move.w -(a0),d7
  f86058:	5b3c           	.short 0x5b3c
  f8605a:	6c65           	bge.s 0xf860c1
  f8605c:	6e67           	bgt.s 0xf860c5
  f8605e:	7468           	moveq #104,d2
  f86060:	5d3e           	.short 0x5d3e
  f86062:	0020 252e      	ori.b #46,-(a0)
  f86066:	2a73 0000      	movea.l (0,a3,d0.w),a5
  f8606a:	252a 7300      	move.l 29440(a2),-(a2)
  f8606e:	4e55 feac      	link.w a5,#-340
  f86072:	48e7 3f3a      	movem.l d2-d7/a2-a4/a6,-(sp)
  f86076:	7040           	moveq #64,d0
  f86078:	2b40 fecc      	move.l d0,-308(a5)
  f8607c:	7201           	moveq #1,d1
  f8607e:	b2ad 0008      	cmp.l 8(a5),d1
  f86082:	6d10           	blt.s 0xf86094
  f86084:	487a ff76      	pea 0xf85ffc(pc)
  f86088:	61ff ffff dd48 	bsr.l 0xf83dd2
  f8608e:	588f           	addq.l #4,sp
  f86090:	6000 00a0      	bra.w 0xf86132
  f86094:	240d           	move.l a5,d2
  f86096:	0682 ffff fee0 	addi.l #-288,d2
  f8609c:	2f02           	move.l d2,-(sp)
  f8609e:	486d fec8      	pea -312(a5)
  f860a2:	206d 000c      	movea.l 12(a5),a0
  f860a6:	2610           	move.l (a0),d3
  f860a8:	5283           	addq.l #1,d3
  f860aa:	2f03           	move.l d3,-(sp)
  f860ac:	61ff ffff f444 	bsr.l 0xf854f2
  f860b2:	4fef 000c      	lea 12(sp),sp
  f860b6:	4a80           	tst.l d0
  f860b8:	6678           	bne.s 0xf86132
  f860ba:	2042           	movea.l d2,a0
  f860bc:	422d fec3      	clr.b -317(a5)
  f860c0:	422d fec2      	clr.b -318(a5)
  f860c4:	4207           	clr.b d7
  f860c6:	422d feb5      	clr.b -331(a5)
  f860ca:	4206           	clr.b d6
  f860cc:	2208           	move.l a0,d1
  f860ce:	1018           	move.b (a0)+,d0
  f860d0:	6636           	bne.s 0xf86108
  f860d2:	58ad 000c      	addq.l #4,12(a5)
  f860d6:	53ad 0008      	subq.l #1,8(a5)
  f860da:	486d fed0      	pea -304(a5)
  f860de:	486d fed8      	pea -296(a5)
  f860e2:	486d 0008      	pea 8(a5)
  f860e6:	486d 000c      	pea 12(a5)
  f860ea:	61ff ffff f5da 	bsr.l 0xf856c6
  f860f0:	4fef 0010      	lea 16(sp),sp
  f860f4:	4a80           	tst.l d0
  f860f6:	663a           	bne.s 0xf86132
  f860f8:	202d 0008      	move.l 8(a5),d0
  f860fc:	7201           	moveq #1,d1
  f860fe:	b280           	cmp.l d0,d1
  f86100:	6c7a           	bge.s 0xf8617c
  f86102:	487a ff25      	pea 0xf86029(pc)
  f86106:	6080           	bra.s 0xf86088
  f86108:	0c00 0061      	cmpi.b #97,d0
  f8610c:	6762           	beq.s 0xf86170
  f8610e:	6e44           	bgt.s 0xf86154
  f86110:	0c00 0052      	cmpi.b #82,d0
  f86114:	6760           	beq.s 0xf86176
  f86116:	6e20           	bgt.s 0xf86138
  f86118:	0c00 0041      	cmpi.b #65,d0
  f8611c:	6752           	beq.s 0xf86170
  f8611e:	0c00 004e      	cmpi.b #78,d0
  f86122:	6742           	beq.s 0xf86166
  f86124:	2f01           	move.l d1,-(sp)
  f86126:	487a f79e      	pea 0xf858c6(pc)
  f8612a:	61ff ffff c330 	bsr.l 0xf8245c
  f86130:	508f           	addq.l #8,sp
  f86132:	7402           	moveq #2,d2
  f86134:	6000 0210      	bra.w 0xf86346
  f86138:	0c00 0053      	cmpi.b #83,d0
  f8613c:	66e6           	bne.s 0xf86124
  f8613e:	4a2d fec2      	tst.b -318(a5)
  f86142:	6706           	beq.s 0xf8614a
  f86144:	1b6d fec2 fec3 	move.b -318(a5),-317(a5)
  f8614a:	0a2d 0001 fec2 	eori.b #1,-318(a5)
  f86150:	6000 ff7a      	bra.w 0xf860cc
  f86154:	0c00 0072      	cmpi.b #114,d0
  f86158:	671c           	beq.s 0xf86176
  f8615a:	0c00 0073      	cmpi.b #115,d0
  f8615e:	67de           	beq.s 0xf8613e
  f86160:	0c00 006e      	cmpi.b #110,d0
  f86164:	66be           	bne.s 0xf86124
  f86166:	1b7c 0001 feb5 	move.b #1,-331(a5)
  f8616c:	6000 ff5e      	bra.w 0xf860cc
  f86170:	7c01           	moveq #1,d6
  f86172:	6000 ff58      	bra.w 0xf860cc
  f86176:	7e01           	moveq #1,d7
  f86178:	6000 ff52      	bra.w 0xf860cc
  f8617c:	5380           	subq.l #1,d0
  f8617e:	6700 009a      	beq.w 0xf8621a
  f86182:	0cad 0000 0080 	cmpi.l #128,-312(a5)
  f86188:	fec8 
  f8618a:	6200 00aa      	bhi.w 0xf86236
  f8618e:	4a07           	tst.b d7
  f86190:	6702           	beq.s 0xf86194
  f86192:	1c07           	move.b d7,d6
  f86194:	42ad feac      	clr.l -340(a5)
  f86198:	4284           	clr.l d4
  f8619a:	4283           	clr.l d3
  f8619c:	95ca           	suba.l a2,a2
  f8619e:	4ded ff80      	lea -128(a5),a6
  f861a2:	47fa f93b      	lea 0xf85adf(pc),a3
  f861a6:	41ed ff00      	lea -256(a5),a0
  f861aa:	2b48 fec4      	move.l a0,-316(a5)
  f861ae:	b8ad fecc      	cmp.l -308(a5),d4
  f861b2:	6500 008e      	bcs.w 0xf86242
  f861b6:	4a2d feb5      	tst.b -331(a5)
  f861ba:	6600 0298      	bne.w 0xf86454
  f861be:	4a06           	tst.b d6
  f861c0:	6600 028a      	bne.w 0xf8644c
  f861c4:	4a84           	tst.l d4
  f861c6:	6700 0284      	beq.w 0xf8644c
  f861ca:	740f           	moveq #15,d2
  f861cc:	b483           	cmp.l d3,d2
  f861ce:	6526           	bcs.s 0xf861f6
  f861d0:	487a fe97      	pea 0xf86069(pc)
  f861d4:	7010           	moveq #16,d0
  f861d6:	9083           	sub.l d3,d0
  f861d8:	2200           	move.l d0,d1
  f861da:	4c6d 1001 fec8 	divul.l -312(a5),d1,d1
  f861e0:	d080           	add.l d0,d0
  f861e2:	2041           	movea.l d1,a0
  f861e4:	4870 0800      	pea (0,a0,d0.l)
  f861e8:	487a fe80      	pea 0xf8606a(pc)
  f861ec:	61ff ffff c26e 	bsr.l 0xf8245c
  f861f2:	4fef 000c      	lea 12(sp),sp
  f861f6:	486d ff00      	pea -256(a5)
  f861fa:	2f03           	move.l d3,-(sp)
  f861fc:	487a fe65      	pea 0xf86063(pc)
  f86200:	61ff ffff c25a 	bsr.l 0xf8245c
  f86206:	4fef 000c      	lea 12(sp),sp
  f8620a:	4878 000a      	pea 0xa
  f8620e:	61ff ffff db84 	bsr.l 0xf83d94
  f86214:	588f           	addq.l #4,sp
  f86216:	6000 023c      	bra.w 0xf86454
  f8621a:	486d fecc      	pea -308(a5)
  f8621e:	206d 000c      	movea.l 12(a5),a0
  f86222:	2f10           	move.l (a0),-(sp)
  f86224:	61ff ffff f058 	bsr.l 0xf8527e
  f8622a:	508f           	addq.l #8,sp
  f8622c:	4a80           	tst.l d0
  f8622e:	6700 ff52      	beq.w 0xf86182
  f86232:	6000 fefe      	bra.w 0xf86132
  f86236:	2b7c 0000 0080 	move.l #128,-312(a5)
  f8623c:	fec8 
  f8623e:	6000 ff4e      	bra.w 0xf8618e
  f86242:	2b44 feba      	move.l d4,-326(a5)
  f86246:	42ad feb6      	clr.l -330(a5)
  f8624a:	4a2d feb5      	tst.b -331(a5)
  f8624e:	6672           	bne.s 0xf862c2
  f86250:	4a07           	tst.b d7
  f86252:	666e           	bne.s 0xf862c2
  f86254:	e8c4 0704      	bftst d4,28,4
  f86258:	6668           	bne.s 0xf862c2
  f8625a:	4a06           	tst.b d6
  f8625c:	6628           	bne.s 0xf86286
  f8625e:	4a84           	tst.l d4
  f86260:	6724           	beq.s 0xf86286
  f86262:	486d ff00      	pea -256(a5)
  f86266:	2f03           	move.l d3,-(sp)
  f86268:	487a fdf9      	pea 0xf86063(pc)
  f8626c:	61ff ffff c1ee 	bsr.l 0xf8245c
  f86272:	4fef 000c      	lea 12(sp),sp
  f86276:	4283           	clr.l d3
  f86278:	4878 000a      	pea 0xa
  f8627c:	61ff ffff db16 	bsr.l 0xf83d94
  f86282:	588f           	addq.l #4,sp
  f86284:	6006           	bra.s 0xf8628c
  f86286:	300a           	move.w a2,d0
  f86288:	4a00           	tst.b d0
  f8628a:	66ec           	bne.s 0xf86278
  f8628c:	222d feb6      	move.l -330(a5),d1
  f86290:	242d feba      	move.l -326(a5),d2
  f86294:	202d fed0      	move.l -304(a5),d0
  f86298:	d4ad fed4      	add.l -300(a5),d2
  f8629c:	d380           	addx.l d0,d1
  f8629e:	2f02           	move.l d2,-(sp)
  f862a0:	2f01           	move.l d1,-(sp)
  f862a2:	2f2d fedc      	move.l -292(a5),-(sp)
  f862a6:	2f2d fed8      	move.l -296(a5),-(sp)
  f862aa:	61ff ffff f376 	bsr.l 0xf85622
  f862b0:	4878 003a      	pea 0x3a
  f862b4:	61ff ffff dade 	bsr.l 0xf83d94
  f862ba:	4fef 0014      	lea 20(sp),sp
  f862be:	347c 0001      	movea.w #1,a2
  f862c2:	2a2d fec8      	move.l -312(a5),d5
  f862c6:	2f0e           	move.l a6,-(sp)
  f862c8:	2f05           	move.l d5,-(sp)
  f862ca:	222d feb6      	move.l -330(a5),d1
  f862ce:	242d feba      	move.l -326(a5),d2
  f862d2:	202d fed0      	move.l -304(a5),d0
  f862d6:	d4ad fed4      	add.l -300(a5),d2
  f862da:	d380           	addx.l d0,d1
  f862dc:	2f02           	move.l d2,-(sp)
  f862de:	2f01           	move.l d1,-(sp)
  f862e0:	2f2d fedc      	move.l -292(a5),-(sp)
  f862e4:	2f2d fed8      	move.l -296(a5),-(sp)
  f862e8:	61ff ffff f01e 	bsr.l 0xf85308
  f862ee:	2400           	move.l d0,d2
  f862f0:	4fef 0018      	lea 24(sp),sp
  f862f4:	675c           	beq.s 0xf86352
  f862f6:	320a           	move.w a2,d1
  f862f8:	4a01           	tst.b d1
  f862fa:	670c           	beq.s 0xf86308
  f862fc:	4878 000a      	pea 0xa
  f86300:	61ff ffff da92 	bsr.l 0xf83d94
  f86306:	588f           	addq.l #4,sp
  f86308:	2f05           	move.l d5,-(sp)
  f8630a:	487a f7ae      	pea 0xf85aba(pc)
  f8630e:	61ff ffff c14c 	bsr.l 0xf8245c
  f86314:	202d feb6      	move.l -330(a5),d0
  f86318:	222d feba      	move.l -326(a5),d1
  f8631c:	262d fed0      	move.l -304(a5),d3
  f86320:	d2ad fed4      	add.l -300(a5),d1
  f86324:	d183           	addx.l d3,d0
  f86326:	2f01           	move.l d1,-(sp)
  f86328:	2f00           	move.l d0,-(sp)
  f8632a:	2f2d fedc      	move.l -292(a5),-(sp)
  f8632e:	2f2d fed8      	move.l -296(a5),-(sp)
  f86332:	61ff ffff f2ee 	bsr.l 0xf85622
  f86338:	4878 000a      	pea 0xa
  f8633c:	61ff ffff da56 	bsr.l 0xf83d94
  f86342:	4fef 001c      	lea 28(sp),sp
  f86346:	2002           	move.l d2,d0
  f86348:	4ced 5cfc fe84 	movem.l -380(a5),d2-d7/a2-a4/a6
  f8634e:	4e5d           	unlk a5
  f86350:	4e75           	rts
  f86352:	222d feac      	move.l -340(a5),d1
  f86356:	5281           	addq.l #1,d1
  f86358:	2b41 febe      	move.l d1,-322(a5)
  f8635c:	4a2d feb5      	tst.b -331(a5)
  f86360:	6728           	beq.s 0xf8638a
  f86362:	7463           	moveq #99,d2
  f86364:	b4ad feac      	cmp.l -340(a5),d2
  f86368:	6406           	bcc.s 0xf86370
  f8636a:	4a6d fec0      	tst.w -320(a5)
  f8636e:	6670           	bne.s 0xf863e0
  f86370:	61ff ffff daa2 	bsr.l 0xf83e14
  f86376:	4a80           	tst.l d0
  f86378:	6766           	beq.s 0xf863e0
  f8637a:	487a f76d      	pea 0xf85ae9(pc)
  f8637e:	61ff ffff da52 	bsr.l 0xf83dd2
  f86384:	588f           	addq.l #4,sp
  f86386:	7403           	moveq #3,d2
  f86388:	60bc           	bra.s 0xf86346
  f8638a:	4a07           	tst.b d7
  f8638c:	6704           	beq.s 0xf86392
  f8638e:	4a84           	tst.l d4
  f86390:	670c           	beq.s 0xf8639e
  f86392:	4878 0020      	pea 0x20
  f86396:	61ff ffff d9fc 	bsr.l 0xf83d94
  f8639c:	588f           	addq.l #4,sp
  f8639e:	4a2d fec2      	tst.b -318(a5)
  f863a2:	6774           	beq.s 0xf86418
  f863a4:	45f6 5800      	lea (0,a6,d5.l),a2
  f863a8:	b5ce           	cmpa.l a6,a2
  f863aa:	6640           	bne.s 0xf863ec
  f863ac:	4a06           	tst.b d6
  f863ae:	6610           	bne.s 0xf863c0
  f863b0:	45ed ff00      	lea -256(a5),a2
  f863b4:	d5c3           	adda.l d3,a2
  f863b6:	41f2 58ff      	lea (-1,a2,d5.l),a0
  f863ba:	b485           	cmp.l d5,d2
  f863bc:	6660           	bne.s 0xf8641e
  f863be:	d685           	add.l d5,d3
  f863c0:	7063           	moveq #99,d0
  f863c2:	b0ad feac      	cmp.l -340(a5),d0
  f863c6:	640a           	bcc.s 0xf863d2
  f863c8:	222d febe      	move.l -322(a5),d1
  f863cc:	e8c1 0647      	bftst d1,25,7
  f863d0:	660a           	bne.s 0xf863dc
  f863d2:	61ff ffff da40 	bsr.l 0xf83e14
  f863d8:	4a80           	tst.l d0
  f863da:	669e           	bne.s 0xf8637a
  f863dc:	347c 0001      	movea.w #1,a2
  f863e0:	d885           	add.l d5,d4
  f863e2:	2b6d febe feac 	move.l -322(a5),-340(a5)
  f863e8:	6000 fdc4      	bra.w 0xf861ae
  f863ec:	4280           	clr.l d0
  f863ee:	1022           	move.b -(a2),d0
  f863f0:	2f00           	move.l d0,-(sp)
  f863f2:	2f0b           	move.l a3,-(sp)
  f863f4:	61ff ffff c066 	bsr.l 0xf8245c
  f863fa:	508f           	addq.l #8,sp
  f863fc:	60aa           	bra.s 0xf863a8
  f863fe:	4280           	clr.l d0
  f86400:	1036 a800      	move.b (0,a6,a2.l),d0
  f86404:	2f00           	move.l d0,-(sp)
  f86406:	2f0b           	move.l a3,-(sp)
  f86408:	61ff ffff c052 	bsr.l 0xf8245c
  f8640e:	528a           	addq.l #1,a2
  f86410:	508f           	addq.l #8,sp
  f86412:	b5c5           	cmpa.l d5,a2
  f86414:	66e8           	bne.s 0xf863fe
  f86416:	6094           	bra.s 0xf863ac
  f86418:	45f8 0000      	lea 0x0,a2
  f8641c:	60f4           	bra.s 0xf86412
  f8641e:	4280           	clr.l d0
  f86420:	1036 2800      	move.b (0,a6,d2.l),d0
  f86424:	2f00           	move.l d0,-(sp)
  f86426:	2b48 feb0      	move.l a0,-336(a5)
  f8642a:	61ff ffff ee0a 	bsr.l 0xf85236
  f86430:	588f           	addq.l #4,sp
  f86432:	206d feb0      	movea.l -336(a5),a0
  f86436:	4a2d fec3      	tst.b -317(a5)
  f8643a:	670a           	beq.s 0xf86446
  f8643c:	1080           	move.b d0,(a0)
  f8643e:	5282           	addq.l #1,d2
  f86440:	5388           	subq.l #1,a0
  f86442:	6000 ff76      	bra.w 0xf863ba
  f86446:	1580 2800      	move.b d0,(0,a2,d2.l)
  f8644a:	60f2           	bra.s 0xf8643e
  f8644c:	300a           	move.w a2,d0
  f8644e:	4a00           	tst.b d0
  f86450:	6600 fdb8      	bne.w 0xf8620a
  f86454:	4282           	clr.l d2
  f86456:	6000 feee      	bra.w 0xf86346
  f8645a:	2573 0000 48e7 	move.l (0,a3,d0.w),18663(a2)
  f86460:	2038 246f      	move.l 0x246f,d0
  f86464:	0018 588a      	ori.b #-118,(a0)+
  f86468:	7401           	moveq #1,d2
  f8646a:	47fa ffee      	lea 0xf8645a(pc),a3
  f8646e:	b4af 0014      	cmp.l 20(sp),d2
  f86472:	6d14           	blt.s 0xf86488
  f86474:	4878 000a      	pea 0xa
  f86478:	61ff ffff d91a 	bsr.l 0xf83d94
  f8647e:	588f           	addq.l #4,sp
  f86480:	4280           	clr.l d0
  f86482:	4cdf 1c04      	movem.l (sp)+,d2/a2-a4
  f86486:	4e75           	rts
  f86488:	7001           	moveq #1,d0
  f8648a:	b082           	cmp.l d2,d0
  f8648c:	670c           	beq.s 0xf8649a
  f8648e:	4878 0020      	pea 0x20
  f86492:	61ff ffff d900 	bsr.l 0xf83d94
  f86498:	588f           	addq.l #4,sp
  f8649a:	2f1a           	move.l (a2)+,-(sp)
  f8649c:	2f0b           	move.l a3,-(sp)
  f8649e:	61ff ffff bfbc 	bsr.l 0xf8245c
  f864a4:	5282           	addq.l #1,d2
  f864a6:	508f           	addq.l #8,sp
  f864a8:	60c4           	bra.s 0xf8646e
  f864aa:	6572           	bcs.s 0xf8651e
  f864ac:	726f           	moveq #111,d1
  f864ae:	723a           	moveq #58,d1
  f864b0:	2069 676e      	movea.l 26478(a1),a0
  f864b4:	6f72           	ble.s 0xf86528
  f864b6:	6520           	bcs.s 0xf864d8
  f864b8:	636f           	bls.s 0xf86529
  f864ba:	6d6d           	blt.s 0xf86529
  f864bc:	616e           	bsr.s 0xf8652c
  f864be:	6420           	bcc.s 0xf864e0
  f864c0:	7265           	moveq #101,d1
  f864c2:	7175           	.short 0x7175
  f864c4:	6972           	bvs.s 0xf86538
  f864c6:	6573           	bcs.s 0xf8653b
  f864c8:	2063           	movea.l -(a3),a0
  f864ca:	6f6d           	ble.s 0xf86539
  f864cc:	6d61           	blt.s 0xf8652f
  f864ce:	6e64           	bgt.s 0xf86534
  f864d0:	2074 6f20 6578 	movea.l (25976,a4,d6.l*8),a0
  f864d6:	6563           	bcs.s 0xf8653b
  f864d8:	7574           	.short 0x7574
  f864da:	6500 2f0c      	bcs.w 0xf893e8
  f864de:	206f 0008      	movea.l 8(sp),a0
  f864e2:	7001           	moveq #1,d0
  f864e4:	b088           	cmp.l a0,d0
  f864e6:	6d12           	blt.s 0xf864fa
  f864e8:	487a ffc0      	pea 0xf864aa(pc)
  f864ec:	61ff ffff d8e4 	bsr.l 0xf83dd2
  f864f2:	588f           	addq.l #4,sp
  f864f4:	7002           	moveq #2,d0
  f864f6:	285f           	movea.l (sp)+,a4
  f864f8:	4e75           	rts
  f864fa:	202f 000c      	move.l 12(sp),d0
  f864fe:	5880           	addq.l #4,d0
  f86500:	2f00           	move.l d0,-(sp)
  f86502:	4868 ffff      	pea -1(a0)
  f86506:	61ff 0000 2896 	bsr.l 0xf88d9e
  f8650c:	508f           	addq.l #8,sp
  f8650e:	4280           	clr.l d0
  f86510:	60e4           	bra.s 0xf864f6
  f86512:	6572           	bcs.s 0xf86586
  f86514:	726f           	moveq #111,d1
  f86516:	723a           	moveq #58,d1
  f86518:	206c 6f6f      	movea.l 28527(a4),a0
  f8651c:	7020           	moveq #32,d0
  f8651e:	636f           	bls.s 0xf8658f
  f86520:	6d6d           	blt.s 0xf8658f
  f86522:	616e           	bsr.s 0xf86592
  f86524:	6420           	bcc.s 0xf86546
  f86526:	7265           	moveq #101,d1
  f86528:	7175           	.short 0x7175
  f8652a:	6972           	bvs.s 0xf8659e
  f8652c:	6573           	bcs.s 0xf865a1
  f8652e:	2063           	movea.l -(a3),a0
  f86530:	6f75           	ble.s 0xf865a7
  f86532:	6e74           	bgt.s 0xf865a8
  f86534:	2061           	movea.l -(a1),a0
  f86536:	6e64           	bgt.s 0xf8659c
  f86538:	2063           	movea.l -(a3),a0
  f8653a:	6f6d           	ble.s 0xf865a9
  f8653c:	6d61           	blt.s 0xf8659f
  f8653e:	6e64           	bgt.s 0xf865a4
  f86540:	2074 6f20 6578 	movea.l (25976,a4,d6.l*8),a0
  f86546:	6563           	bcs.s 0xf865ab
  f86548:	7574           	.short 0x7574
  f8654a:	6500 2578      	bcs.w 0xf88ac4
  f8654e:	0000 4e55      	ori.b #85,d0
  f86552:	fdd8           	.short 0xfdd8
  f86554:	48e7 3f3a      	movem.l d2-d7/a2-a4/a6,-(sp)
  f86558:	246d 0008      	movea.l 8(a5),a2
  f8655c:	266d 000c      	movea.l 12(a5),a3
  f86560:	7002           	moveq #2,d0
  f86562:	b08a           	cmp.l a2,d0
  f86564:	6d1a           	blt.s 0xf86580
  f86566:	487a ffaa      	pea 0xf86512(pc)
  f8656a:	61ff ffff d866 	bsr.l 0xf83dd2
  f86570:	588f           	addq.l #4,sp
  f86572:	7402           	moveq #2,d2
  f86574:	2002           	move.l d2,d0
  f86576:	4ced 5cfc fdb0 	movem.l -592(a5),d2-d7/a2-a4/a6
  f8657c:	4e5d           	unlk a5
  f8657e:	4e75           	rts
  f86580:	486d fdee      	pea -530(a5)
  f86584:	2f2b 0004      	move.l 4(a3),-(sp)
  f86588:	61ff 0000 2796 	bsr.l 0xf88d20
  f8658e:	2400           	move.l d0,d2
  f86590:	508f           	addq.l #8,sp
  f86592:	66e0           	bne.s 0xf86574
  f86594:	486b 0008      	pea 8(a3)
  f86598:	486a fffe      	pea -2(a2)
  f8659c:	61ff 0000 26b2 	bsr.l 0xf88c50
  f865a2:	2440           	movea.l d0,a2
  f865a4:	508f           	addq.l #8,sp
  f865a6:	4a80           	tst.l d0
  f865a8:	6700 0220      	beq.w 0xf867ca
  f865ac:	0c12 0022      	cmpi.b #34,(a2)
  f865b0:	6600 0154      	bne.w 0xf86706
  f865b4:	2f00           	move.l d0,-(sp)
  f865b6:	61ff 0000 4c3c 	bsr.l 0xf8b1f4
  f865bc:	588f           	addq.l #4,sp
  f865be:	2200           	move.l d0,d1
  f865c0:	5381           	subq.l #1,d1
  f865c2:	4a80           	tst.l d0
  f865c4:	6700 0140      	beq.w 0xf86706
  f865c8:	41f2 1800      	lea (0,a2,d1.l),a0
  f865cc:	0c10 0022      	cmpi.b #34,(a0)
  f865d0:	6600 0134      	bne.w 0xf86706
  f865d4:	4210           	clr.b (a0)
  f865d6:	260a           	move.l a2,d3
  f865d8:	5283           	addq.l #1,d3
  f865da:	2b7c 2461 0000 	move.l #610336768,-512(a5)
  f865e0:	fe00 
  f865e2:	122c 90f9      	move.b -28423(a4),d1
  f865e6:	0601 0061      	addi.b #97,d1
  f865ea:	1b41 fe01      	move.b d1,-511(a5)
  f865ee:	2043           	movea.l d3,a0
  f865f0:	4287           	clr.l d7
  f865f2:	280d           	move.l a5,d4
  f865f4:	0684 ffff fe00 	addi.l #-512,d4
  f865fa:	4a10           	tst.b (a0)
  f865fc:	6712           	beq.s 0xf86610
  f865fe:	2f04           	move.l d4,-(sp)
  f86600:	2f08           	move.l a0,-(sp)
  f86602:	61ff 0000 50ae 	bsr.l 0xf8b6b2
  f86608:	508f           	addq.l #8,sp
  f8660a:	4a80           	tst.l d0
  f8660c:	6600 00fe      	bne.w 0xf8670c
  f86610:	4a87           	tst.l d7
  f86612:	6700 0102      	beq.w 0xf86716
  f86616:	4285           	clr.l d5
  f86618:	4286           	clr.l d6
  f8661a:	4ded fdf6      	lea -522(a5),a6
  f8661e:	41ed fe00      	lea -512(a5),a0
  f86622:	2b48 fdda      	move.l a0,-550(a5)
  f86626:	41ed fdf2      	lea -526(a5),a0
  f8662a:	2b48 fdea      	move.l a0,-534(a5)
  f8662e:	bcad fdee      	cmp.l -530(a5),d6
  f86632:	6c00 00b6      	bge.w 0xf866ea
  f86636:	4a87           	tst.l d7
  f86638:	6700 008a      	beq.w 0xf866c4
  f8663c:	4a86           	tst.l d6
  f8663e:	670e           	beq.s 0xf8664e
  f86640:	486d fe00      	pea -512(a5)
  f86644:	2f05           	move.l d5,-(sp)
  f86646:	61ff 0000 25e4 	bsr.l 0xf88c2c
  f8664c:	508f           	addq.l #8,sp
  f8664e:	282c 90f6      	move.l -28426(a4),d4
  f86652:	2f06           	move.l d6,-(sp)
  f86654:	487a fef6      	pea 0xf8654c(pc)
  f86658:	2f0e           	move.l a6,-(sp)
  f8665a:	61ff ffff bdc8 	bsr.l 0xf82424
  f86660:	2b40 fde6      	move.l d0,-538(a5)
  f86664:	2f03           	move.l d3,-(sp)
  f86666:	61ff 0000 4b8c 	bsr.l 0xf8b1f4
  f8666c:	588f           	addq.l #4,sp
  f8666e:	222d fde6      	move.l -538(a5),d1
  f86672:	4c07 1800      	muls.l d7,d1
  f86676:	2041           	movea.l d1,a0
  f86678:	4870 0801      	pea (1,a0,d0.l)
  f8667c:	61ff ffff e15a 	bsr.l 0xf847d8
  f86682:	2a00           	move.l d0,d5
  f86684:	2b7c 2461 0000 	move.l #610336768,-526(a5)
  f8668a:	fdf2 
  f8668c:	0604 0061      	addi.b #97,d4
  f86690:	1b44 fdf3      	move.b d4,-525(a5)
  f86694:	4fef 0010      	lea 16(sp),sp
  f86698:	4a80           	tst.l d0
  f8669a:	6600 0100      	bne.w 0xf8679c
  f8669e:	2f03           	move.l d3,-(sp)
  f866a0:	61ff ffff e2b4 	bsr.l 0xf84956
  f866a6:	2800           	move.l d0,d4
  f866a8:	588f           	addq.l #4,sp
  f866aa:	486d fe00      	pea -512(a5)
  f866ae:	2f04           	move.l d4,-(sp)
  f866b0:	61ff 0000 23f8 	bsr.l 0xf88aaa
  f866b6:	2a00           	move.l d0,d5
  f866b8:	2f04           	move.l d4,-(sp)
  f866ba:	61ff ffff e1d2 	bsr.l 0xf8488e
  f866c0:	4fef 000c      	lea 12(sp),sp
  f866c4:	52ac 90f6      	addq.l #1,-28426(a4)
  f866c8:	486d fe00      	pea -512(a5)
  f866cc:	2f05           	move.l d5,-(sp)
  f866ce:	61ff 0000 26ce 	bsr.l 0xf88d9e
  f866d4:	53ac 90f6      	subq.l #1,-28426(a4)
  f866d8:	508f           	addq.l #8,sp
  f866da:	4a80           	tst.l d0
  f866dc:	6700 00c4      	beq.w 0xf867a2
  f866e0:	7202           	moveq #2,d1
  f866e2:	b280           	cmp.l d0,d1
  f866e4:	6700 00de      	beq.w 0xf867c4
  f866e8:	2400           	move.l d0,d2
  f866ea:	2f0a           	move.l a2,-(sp)
  f866ec:	61ff ffff e1a0 	bsr.l 0xf8488e
  f866f2:	486d fe00      	pea -512(a5)
  f866f6:	2f05           	move.l d5,-(sp)
  f866f8:	61ff 0000 2532 	bsr.l 0xf88c2c
  f866fe:	4fef 000c      	lea 12(sp),sp
  f86702:	6000 fe70      	bra.w 0xf86574
  f86706:	260a           	move.l a2,d3
  f86708:	6000 fed0      	bra.w 0xf865da
  f8670c:	5287           	addq.l #1,d7
  f8670e:	2040           	movea.l d0,a0
  f86710:	5288           	addq.l #1,a0
  f86712:	6000 fee6      	bra.w 0xf865fa
  f86716:	486d fe00      	pea -512(a5)
  f8671a:	2f03           	move.l d3,-(sp)
  f8671c:	61ff 0000 238c 	bsr.l 0xf88aaa
  f86722:	2a00           	move.l d0,d5
  f86724:	508f           	addq.l #8,sp
  f86726:	6000 fef0      	bra.w 0xf86618
  f8672a:	2240           	movea.l d0,a1
  f8672c:	93cb           	suba.l a3,a1
  f8672e:	2f09           	move.l a1,-(sp)
  f86730:	2f0b           	move.l a3,-(sp)
  f86732:	2f04           	move.l d4,-(sp)
  f86734:	2b40 fde2      	move.l d0,-542(a5)
  f86738:	2b49 fdde      	move.l a1,-546(a5)
  f8673c:	61ff 0000 484e 	bsr.l 0xf8af8c
  f86742:	222d fde2      	move.l -542(a5),d1
  f86746:	2641           	movea.l d1,a3
  f86748:	548b           	addq.l #2,a3
  f8674a:	226d fdde      	movea.l -546(a5),a1
  f8674e:	d889           	add.l a1,d4
  f86750:	2f0e           	move.l a6,-(sp)
  f86752:	2f04           	move.l d4,-(sp)
  f86754:	61ff 0000 4a8a 	bsr.l 0xf8b1e0
  f8675a:	d8ad fde6      	add.l -538(a5),d4
  f8675e:	4fef 0014      	lea 20(sp),sp
  f86762:	4a13           	tst.b (a3)
  f86764:	671e           	beq.s 0xf86784
  f86766:	486d fdf2      	pea -526(a5)
  f8676a:	2f0b           	move.l a3,-(sp)
  f8676c:	61ff 0000 4f44 	bsr.l 0xf8b6b2
  f86772:	508f           	addq.l #8,sp
  f86774:	4a80           	tst.l d0
  f86776:	66b2           	bne.s 0xf8672a
  f86778:	2f0b           	move.l a3,-(sp)
  f8677a:	2f04           	move.l d4,-(sp)
  f8677c:	61ff 0000 4a62 	bsr.l 0xf8b1e0
  f86782:	508f           	addq.l #8,sp
  f86784:	2f05           	move.l d5,-(sp)
  f86786:	61ff 0000 2722 	bsr.l 0xf88eaa
  f8678c:	2800           	move.l d0,d4
  f8678e:	2f05           	move.l d5,-(sp)
  f86790:	61ff ffff e0fc 	bsr.l 0xf8488e
  f86796:	508f           	addq.l #8,sp
  f86798:	6000 ff10      	bra.w 0xf866aa
  f8679c:	2800           	move.l d0,d4
  f8679e:	2643           	movea.l d3,a3
  f867a0:	60c0           	bra.s 0xf86762
  f867a2:	61ff ffff d670 	bsr.l 0xf83e14
  f867a8:	4a80           	tst.l d0
  f867aa:	6712           	beq.s 0xf867be
  f867ac:	487a f33b      	pea 0xf85ae9(pc)
  f867b0:	61ff ffff d620 	bsr.l 0xf83dd2
  f867b6:	588f           	addq.l #4,sp
  f867b8:	7403           	moveq #3,d2
  f867ba:	6000 fdb8      	bra.w 0xf86574
  f867be:	5286           	addq.l #1,d6
  f867c0:	6000 fe6c      	bra.w 0xf8662e
  f867c4:	7401           	moveq #1,d2
  f867c6:	6000 ff22      	bra.w 0xf866ea
  f867ca:	7401           	moveq #1,d2
  f867cc:	6000 fda6      	bra.w 0xf86574
  f867d0:	61ff 0000 31f4 	bsr.l 0xf899c6
  f867d6:	4280           	clr.l d0
  f867d8:	4e75           	rts
  f867da:	5468 6973      	addq.w #2,26995(a0)
  f867de:	2063           	movea.l -(a3),a0
  f867e0:	6f6d           	ble.s 0xf8684f
  f867e2:	6d61           	blt.s 0xf86845
  f867e4:	6e64           	bgt.s 0xf8684a
  f867e6:	2072 6571 7569 	movea.l ([1969844837,a2],0),a0
  f867ec:	7265 
  f867ee:	7320           	.short 0x7320
  f867f0:	616e           	bsr.s 0xf86860
  f867f2:	2061           	movea.l -(a1),a0
  f867f4:	7267           	moveq #103,d1
  f867f6:	756d           	.short 0x756d
  f867f8:	656e           	bcs.s 0xf86868
  f867fa:	743a           	moveq #58,d2
  f867fc:	203c 7469 6d65 	move.l #1953066341,d0
  f86802:	3e00           	move.w d0,d7
  f86804:	5468 6973      	addq.w #2,26995(a0)
  f86808:	2063           	movea.l -(a3),a0
  f8680a:	6f6d           	ble.s 0xf86879
  f8680c:	6d61           	blt.s 0xf8686f
  f8680e:	6e64           	bgt.s 0xf86874
  f86810:	2072 6571 7569 	movea.l ([1969844837,a2],0),a0
  f86816:	7265 
  f86818:	7320           	.short 0x7320
  f8681a:	6174           	bsr.s 0xf86890
  f8681c:	206d 6f73      	movea.l 28531(a5),a0
  f86820:	743a           	moveq #58,d2
  f86822:	203c 7469 6d65 	move.l #1953066341,d0
  f86828:	3e20           	move.w -(a0),d7
  f8682a:	3c68 7c6d      	movea.w 31853(a0),a6
  f8682e:	7c73           	moveq #115,d6
  f86830:	7c6d           	moveq #109,d6
  f86832:	737c           	.short 0x737c
  f86834:	7573           	.short 0x7573
  f86836:	3e00           	move.w d0,d7
  f86838:	2569 256e 0055 	move.l 9582(a1),85(a2)
  f8683e:	6e6b           	bgt.s 0xf868ab
  f86840:	6e6f           	bgt.s 0xf868b1
  f86842:	776e           	.short 0x776e
  f86844:	2075 6e69      	movea.l (105,a5,d6.l*8),a0
  f86848:	7473           	moveq #115,d2
  f8684a:	3a20           	move.w -(a0),d5
  f8684c:	2573 0a00 4e55 	move.l (0,a3,d0.l*2),20053(a2)
  f86852:	fff4           	.short 0xfff4
  f86854:	48e7 3c38      	movem.l d2-d5/a2-a4,-(sp)
  f86858:	242d 0008      	move.l 8(a5),d2
  f8685c:	266d 000c      	movea.l 12(a5),a3
  f86860:	42ad fff4      	clr.l -12(a5)
  f86864:	42ad fff8      	clr.l -8(a5)
  f86868:	42ad fffc      	clr.l -4(a5)
  f8686c:	7001           	moveq #1,d0
  f8686e:	b082           	cmp.l d2,d0
  f86870:	6d18           	blt.s 0xf8688a
  f86872:	487a ff66      	pea 0xf867da(pc)
  f86876:	61ff ffff d55a 	bsr.l 0xf83dd2
  f8687c:	588f           	addq.l #4,sp
  f8687e:	7002           	moveq #2,d0
  f86880:	4ced 1c3c ffd8 	movem.l -40(a5),d2-d5/a2-a4
  f86886:	4e5d           	unlk a5
  f86888:	4e75           	rts
  f8688a:	7203           	moveq #3,d1
  f8688c:	b282           	cmp.l d2,d1
  f8688e:	6c06           	bge.s 0xf86896
  f86890:	487a ff72      	pea 0xf86804(pc)
  f86894:	60e0           	bra.s 0xf86876
  f86896:	282b 0004      	move.l 4(a3),d4
  f8689a:	2a0d           	move.l a5,d5
  f8689c:	5185           	subq.l #8,d5
  f8689e:	2444           	movea.l d4,a2
  f868a0:	1612           	move.b (a2),d3
  f868a2:	5284           	addq.l #1,d4
  f868a4:	4a03           	tst.b d3
  f868a6:	6712           	beq.s 0xf868ba
  f868a8:	2f05           	move.l d5,-(sp)
  f868aa:	2f0a           	move.l a2,-(sp)
  f868ac:	61ff ffff eafc 	bsr.l 0xf853aa
  f868b2:	508f           	addq.l #8,sp
  f868b4:	4a80           	tst.l d0
  f868b6:	66e6           	bne.s 0xf8689e
  f868b8:	4212           	clr.b (a2)
  f868ba:	486d fffc      	pea -4(a5)
  f868be:	486d fff4      	pea -12(a5)
  f868c2:	487a ff74      	pea 0xf86838(pc)
  f868c6:	2f2b 0004      	move.l 4(a3),-(sp)
  f868ca:	61ff ffff c5a2 	bsr.l 0xf82e6e
  f868d0:	4fef 0010      	lea 16(sp),sp
  f868d4:	5380           	subq.l #1,d0
  f868d6:	660e           	bne.s 0xf868e6
  f868d8:	206b 0004      	movea.l 4(a3),a0
  f868dc:	202d fffc      	move.l -4(a5),d0
  f868e0:	4a30 0800      	tst.b (0,a0,d0.l)
  f868e4:	6714           	beq.s 0xf868fa
  f868e6:	2f2b 0004      	move.l 4(a3),-(sp)
  f868ea:	487a e97d      	pea 0xf85269(pc)
  f868ee:	61ff ffff bb6c 	bsr.l 0xf8245c
  f868f4:	508f           	addq.l #8,sp
  f868f6:	7006           	moveq #6,d0
  f868f8:	6086           	bra.s 0xf86880
  f868fa:	5782           	subq.l #3,d2
  f868fc:	6628           	bne.s 0xf86926
  f868fe:	242b 0008      	move.l 8(a3),d2
  f86902:	486d fff8      	pea -8(a5)
  f86906:	2f02           	move.l d2,-(sp)
  f86908:	61ff ffff eaa0 	bsr.l 0xf853aa
  f8690e:	508f           	addq.l #8,sp
  f86910:	4a80           	tst.l d0
  f86912:	6712           	beq.s 0xf86926
  f86914:	2f02           	move.l d2,-(sp)
  f86916:	487a ff25      	pea 0xf8683d(pc)
  f8691a:	61ff ffff bb40 	bsr.l 0xf8245c
  f86920:	508f           	addq.l #8,sp
  f86922:	6000 ff5a      	bra.w 0xf8687e
  f86926:	266d fff8      	movea.l -8(a5),a3
  f8692a:	200b           	move.l a3,d0
  f8692c:	5680           	addq.l #3,d0
  f8692e:	7205           	moveq #5,d1
  f86930:	b280           	cmp.l d0,d1
  f86932:	6550           	bcs.s 0xf86984
  f86934:	d080           	add.l d0,d0
  f86936:	303b 0806      	move.w (0xf8693e,pc,d0.l),d0
  f8693a:	4efb 0002      	jmp (0xf8693e,pc,d0.w)
  f8693e:	00e8           	.short 0x00e8
  f86940:	00d8           	.short 0x00d8
  f86942:	00c0           	.short 0x00c0
  f86944:	0098 007a 004e 	ori.l #7995470,(a0)+
  f8694a:	4878 0001      	pea 0x1
  f8694e:	61ff ffff ec9a 	bsr.l 0xf855ea
  f86954:	61ff ffff d4be 	bsr.l 0xf83e14
  f8695a:	588f           	addq.l #4,sp
  f8695c:	4a80           	tst.l d0
  f8695e:	6712           	beq.s 0xf86972
  f86960:	487a f187      	pea 0xf85ae9(pc)
  f86964:	61ff ffff d46c 	bsr.l 0xf83dd2
  f8696a:	588f           	addq.l #4,sp
  f8696c:	7003           	moveq #3,d0
  f8696e:	6000 ff10      	bra.w 0xf86880
  f86972:	528b           	addq.l #1,a3
  f86974:	202d fff4      	move.l -12(a5),d0
  f86978:	4c3c 0800 0000 	muls.l #3600,d0
  f8697e:	0e10 
  f86980:	b7c0           	cmpa.l d0,a3
  f86982:	6dc6           	blt.s 0xf8694a
  f86984:	1483           	move.b d3,(a2)
  f86986:	4280           	clr.l d0
  f86988:	6000 fef6      	bra.w 0xf86880
  f8698c:	47f8 0000      	lea 0x0,a3
  f86990:	60e2           	bra.s 0xf86974
  f86992:	4878 0001      	pea 0x1
  f86996:	61ff ffff ec52 	bsr.l 0xf855ea
  f8699c:	61ff ffff d476 	bsr.l 0xf83e14
  f869a2:	588f           	addq.l #4,sp
  f869a4:	4a80           	tst.l d0
  f869a6:	66b8           	bne.s 0xf86960
  f869a8:	528b           	addq.l #1,a3
  f869aa:	703c           	moveq #60,d0
  f869ac:	4c2d 0800 fff4 	muls.l -12(a5),d0
  f869b2:	b7c0           	cmpa.l d0,a3
  f869b4:	6ddc           	blt.s 0xf86992
  f869b6:	60cc           	bra.s 0xf86984
  f869b8:	47f8 0000      	lea 0x0,a3
  f869bc:	60ec           	bra.s 0xf869aa
  f869be:	4878 0001      	pea 0x1
  f869c2:	61ff ffff ec26 	bsr.l 0xf855ea
  f869c8:	61ff ffff d44a 	bsr.l 0xf83e14
  f869ce:	588f           	addq.l #4,sp
  f869d0:	4a80           	tst.l d0
  f869d2:	668c           	bne.s 0xf86960
  f869d4:	528b           	addq.l #1,a3
  f869d6:	b7ed fff4      	cmpa.l -12(a5),a3
  f869da:	6de2           	blt.s 0xf869be
  f869dc:	60a6           	bra.s 0xf86984
  f869de:	4878 0001      	pea 0x1
  f869e2:	61ff ffff ec06 	bsr.l 0xf855ea
  f869e8:	61ff ffff d42a 	bsr.l 0xf83e14
  f869ee:	588f           	addq.l #4,sp
  f869f0:	4a80           	tst.l d0
  f869f2:	6600 ff6c      	bne.w 0xf86960
  f869f6:	06ad ffff fc18 	addi.l #-1000,-12(a5)
  f869fc:	fff4 
  f869fe:	202d fff4      	move.l -12(a5),d0
  f86a02:	0c80 0000 03e8 	cmpi.l #1000,d0
  f86a08:	6ed4           	bgt.s 0xf869de
  f86a0a:	4c3c 0800 0000 	muls.l #1000,d0
  f86a10:	03e8 
  f86a12:	2f00           	move.l d0,-(sp)
  f86a14:	6004           	bra.s 0xf86a1a
  f86a16:	2f2d fff4      	move.l -12(a5),-(sp)
  f86a1a:	61ff ffff ebe8 	bsr.l 0xf85604
  f86a20:	588f           	addq.l #4,sp
  f86a22:	6000 ff60      	bra.w 0xf86984
  f86a26:	202d fff4      	move.l -12(a5),d0
  f86a2a:	4c7c 0800 0000 	divsl.l #1000,d0,d0
  f86a30:	03e8 
  f86a32:	60de           	bra.s 0xf86a12
  f86a34:	4e65           	move.l a5,usp
  f86a36:	6564           	bcs.s 0xf86a9c
  f86a38:	2061           	movea.l -(a1),a0
  f86a3a:	6464           	bcc.s 0xf86aa0
  f86a3c:	7265           	moveq #101,d1
  f86a3e:	7373           	.short 0x7373
  f86a40:	0070 6174 7420 	ori.w #24948,(32,a0,d7.w*4)
  f86a46:	7265           	moveq #101,d1
  f86a48:	7175           	.short 0x7175
  f86a4a:	6972           	bvs.s 0xf86abe
  f86a4c:	6573           	bcs.s 0xf86ac1
  f86a4e:	2074 6872      	movea.l (114,a4,d6.l),a0
  f86a52:	6565           	bcs.s 0xf86ab9
  f86a54:	2061           	movea.l -(a1),a0
  f86a56:	7267           	moveq #103,d1
  f86a58:	756d           	.short 0x756d
  f86a5a:	656e           	bcs.s 0xf86aca
  f86a5c:	7473           	moveq #115,d2
  f86a5e:	3a20           	move.w -(a0),d5
  f86a60:	3c61           	movea.w -(a1),a6
  f86a62:	6464           	bcc.s 0xf86ac8
  f86a64:	723e           	moveq #62,d1
  f86a66:	203c 6c65 6e3e 	move.l #1818586686,d0
  f86a6c:	203c 7061 7474 	move.l #1885434996,d0
  f86a72:	6572           	bcs.s 0xf86ae6
  f86a74:	6e3e           	bgt.s 0xf86ab4
  f86a76:	0070 6174 7465 	ori.w #24948,(101,a0,d7.w*4)
  f86a7c:	726e           	moveq #110,d1
  f86a7e:	004e           	.short 0x004e
  f86a80:	6565           	bcs.s 0xf86ae7
  f86a82:	6420           	bcc.s 0xf86aa4
  f86a84:	6c65           	bge.s 0xf86aeb
  f86a86:	6e67           	bgt.s 0xf86aef
  f86a88:	7468           	moveq #104,d2
  f86a8a:	004e           	.short 0x004e
  f86a8c:	6565           	bcs.s 0xf86af3
  f86a8e:	6420           	bcc.s 0xf86ab0
  f86a90:	7061           	moveq #97,d0
  f86a92:	7474           	moveq #116,d2
  f86a94:	6572           	bcs.s 0xf86b08
  f86a96:	6e00 3c70      	bgt.w 0xf8a708
  f86a9a:	6174           	bsr.s 0xf86b10
  f86a9c:	7465           	moveq #101,d2
  f86a9e:	726e           	moveq #110,d1
  f86aa0:	3e20           	move.w -(a0),d7
  f86aa2:	6d61           	blt.s 0xf86b05
  f86aa4:	7920           	.short 0x7920
  f86aa6:	6265           	bhi.s 0xf86b0d
  f86aa8:	206f 6e65      	movea.l 28261(sp),a0
  f86aac:	2c20           	move.l -(a0),d6
  f86aae:	7a65           	moveq #101,d5
  f86ab0:	726f           	moveq #111,d1
  f86ab2:	2c20           	move.l -(a0),d6
  f86ab4:	626c           	bhi.s 0xf86b22
  f86ab6:	6970           	bvs.s 0xf86b28
  f86ab8:	2c20           	move.l -(a0),d6
  f86aba:	7261           	moveq #97,d1
  f86abc:	6e64           	bgt.s 0xf86b22
  f86abe:	2c20           	move.l -(a0),d6
  f86ac0:	7374           	.short 0x7374
  f86ac2:	726f           	moveq #111,d1
  f86ac4:	6265           	bhi.s 0xf86b2b
  f86ac6:	2c20           	move.l -(a0),d6
  f86ac8:	7761           	.short 0x7761
  f86aca:	6c6b           	bge.s 0xf86b37
  f86acc:	302c 2077      	move.w 8311(a4),d0
  f86ad0:	616c           	bsr.s 0xf86b3e
  f86ad2:	6b31           	bmi.s 0xf86b05
  f86ad4:	2c20           	move.l -(a0),d6
  f86ad6:	6164           	bsr.s 0xf86b3c
  f86ad8:	6472           	bcc.s 0xf86b4c
  f86ada:	2c20           	move.l -(a0),d6
  f86adc:	6f72           	ble.s 0xf86b50
  f86ade:	2061           	movea.l -(a1),a0
  f86ae0:	2076 616c 7565 	movea.l ([30053,a6],0),a0
  f86ae6:	003f           	.short 0x003f
  f86ae8:	006f 6e65 007a 	ori.w #28261,122(sp)
  f86aee:	6572           	bcs.s 0xf86b62
  f86af0:	6f00 626c      	ble.w 0xf8cd5e
  f86af4:	6970           	bvs.s 0xf86b66
  f86af6:	0072 616e 646f 	ori.w #24942,(111,a2,d6.w*4)
  f86afc:	6d00 7374      	blt.w 0xf8de72
  f86b00:	726f           	moveq #111,d1
  f86b02:	6265           	bhi.s 0xf86b69
  f86b04:	0077 616c 6b30 	ori.w #24940,(7823724,sp,d6.l*2)
  f86b0a:	0077 616c 
  f86b0e:	6b31           	bmi.s 0xf86b41
  f86b10:	0061 6464      	ori.w #25700,-(a1)
  f86b14:	7265           	moveq #101,d1
  f86b16:	7373           	.short 0x7373
  f86b18:	0049           	.short 0x0049
  f86b1a:	6e76           	bgt.s 0xf86b92
  f86b1c:	616c           	bsr.s 0xf86b8a
  f86b1e:	6964           	bvs.s 0xf86b84
  f86b20:	2070 6174 7465 	movea.l ([1952805486,a0],0),a0
  f86b26:	726e 
  f86b28:	2025           	move.l -(a5),d0
  f86b2a:	730a           	.short 0x730a
  f86b2c:	0000 4e55      	ori.b #85,d0
  f86b30:	ff30           	.short 0xff30
  f86b32:	48e7 3f3a      	movem.l d2-d7/a2-a4/a6,-(sp)
  f86b36:	7003           	moveq #3,d0
  f86b38:	b0ad 0008      	cmp.l 8(a5),d0
  f86b3c:	6d18           	blt.s 0xf86b56
  f86b3e:	487a fef4      	pea 0xf86a34(pc)
  f86b42:	61ff ffff d28e 	bsr.l 0xf83dd2
  f86b48:	487a fef7      	pea 0xf86a41(pc)
  f86b4c:	61ff ffff d284 	bsr.l 0xf83dd2
  f86b52:	6000 008a      	bra.w 0xf86bde
  f86b56:	487a ff1f      	pea 0xf86a77(pc)
  f86b5a:	206d 000c      	movea.l 12(a5),a0
  f86b5e:	2f10           	move.l (a0),-(sp)
  f86b60:	61ff ffff e6b6 	bsr.l 0xf85218
  f86b66:	508f           	addq.l #8,sp
  f86b68:	240d           	move.l a5,d2
  f86b6a:	0682 ffff ff60 	addi.l #-160,d2
  f86b70:	2f02           	move.l d2,-(sp)
  f86b72:	486d ff48      	pea -184(a5)
  f86b76:	2f00           	move.l d0,-(sp)
  f86b78:	61ff ffff e978 	bsr.l 0xf854f2
  f86b7e:	4fef 000c      	lea 12(sp),sp
  f86b82:	4a80           	tst.l d0
  f86b84:	665a           	bne.s 0xf86be0
  f86b86:	2042           	movea.l d2,a0
  f86b88:	4206           	clr.b d6
  f86b8a:	2208           	move.l a0,d1
  f86b8c:	1018           	move.b (a0)+,d0
  f86b8e:	6636           	bne.s 0xf86bc6
  f86b90:	53ad 0008      	subq.l #1,8(a5)
  f86b94:	58ad 000c      	addq.l #4,12(a5)
  f86b98:	486d ff50      	pea -176(a5)
  f86b9c:	486d ff58      	pea -168(a5)
  f86ba0:	486d 0008      	pea 8(a5)
  f86ba4:	486d 000c      	pea 12(a5)
  f86ba8:	61ff ffff eb1c 	bsr.l 0xf856c6
  f86bae:	4fef 0010      	lea 16(sp),sp
  f86bb2:	4a80           	tst.l d0
  f86bb4:	662a           	bne.s 0xf86be0
  f86bb6:	7201           	moveq #1,d1
  f86bb8:	b2ad 0008      	cmp.l 8(a5),d1
  f86bbc:	6d30           	blt.s 0xf86bee
  f86bbe:	487a febf      	pea 0xf86a7f(pc)
  f86bc2:	6000 ff7e      	bra.w 0xf86b42
  f86bc6:	7c01           	moveq #1,d6
  f86bc8:	0200 00df      	andi.b #-33,d0
  f86bcc:	0c00 0053      	cmpi.b #83,d0
  f86bd0:	67b8           	beq.s 0xf86b8a
  f86bd2:	2f01           	move.l d1,-(sp)
  f86bd4:	487a ecf0      	pea 0xf858c6(pc)
  f86bd8:	61ff ffff b882 	bsr.l 0xf8245c
  f86bde:	508f           	addq.l #8,sp
  f86be0:	7802           	moveq #2,d4
  f86be2:	2004           	move.l d4,d0
  f86be4:	4ced 5cfc ff08 	movem.l -248(a5),d2-d7/a2-a4/a6
  f86bea:	4e5d           	unlk a5
  f86bec:	4e75           	rts
  f86bee:	486d ff4c      	pea -180(a5)
  f86bf2:	206d 000c      	movea.l 12(a5),a0
  f86bf6:	2f10           	move.l (a0),-(sp)
  f86bf8:	61ff ffff e684 	bsr.l 0xf8527e
  f86bfe:	2800           	move.l d0,d4
  f86c00:	508f           	addq.l #8,sp
  f86c02:	66dc           	bne.s 0xf86be0
  f86c04:	222d 0008      	move.l 8(a5),d1
  f86c08:	5381           	subq.l #1,d1
  f86c0a:	2b41 0008      	move.l d1,8(a5)
  f86c0e:	202d 000c      	move.l 12(a5),d0
  f86c12:	2400           	move.l d0,d2
  f86c14:	5882           	addq.l #4,d2
  f86c16:	2b42 000c      	move.l d2,12(a5)
  f86c1a:	5381           	subq.l #1,d1
  f86c1c:	6724           	beq.s 0xf86c42
  f86c1e:	487a fe6b      	pea 0xf86a8b(pc)
  f86c22:	61ff ffff d1ae 	bsr.l 0xf83dd2
  f86c28:	487a fe17      	pea 0xf86a41(pc)
  f86c2c:	61ff ffff d1a4 	bsr.l 0xf83dd2
  f86c32:	508f           	addq.l #8,sp
  f86c34:	487a fe62      	pea 0xf86a98(pc)
  f86c38:	61ff ffff d198 	bsr.l 0xf83dd2
  f86c3e:	588f           	addq.l #4,sp
  f86c40:	609e           	bra.s 0xf86be0
  f86c42:	2040           	movea.l d0,a0
  f86c44:	2428 0004      	move.l 4(a0),d2
  f86c48:	487a fe9d      	pea 0xf86ae7(pc)
  f86c4c:	2f02           	move.l d2,-(sp)
  f86c4e:	61ff 0000 4518 	bsr.l 0xf8b168
  f86c54:	508f           	addq.l #8,sp
  f86c56:	4a80           	tst.l d0
  f86c58:	6612           	bne.s 0xf86c6c
  f86c5a:	487a fe3c      	pea 0xf86a98(pc)
  f86c5e:	61ff ffff d172 	bsr.l 0xf83dd2
  f86c64:	588f           	addq.l #4,sp
  f86c66:	7801           	moveq #1,d4
  f86c68:	6000 ff78      	bra.w 0xf86be2
  f86c6c:	487a fe7b      	pea 0xf86ae9(pc)
  f86c70:	2f02           	move.l d2,-(sp)
  f86c72:	61ff 0000 44f4 	bsr.l 0xf8b168
  f86c78:	508f           	addq.l #8,sp
  f86c7a:	4a80           	tst.l d0
  f86c7c:	6670           	bne.s 0xf86cee
  f86c7e:	42ac 90f2      	clr.l -28430(a4)
  f86c82:	2f2d ff48      	move.l -184(a5),-(sp)
  f86c86:	4878 00ff      	pea 0xff
  f86c8a:	486d ff80      	pea -128(a5)
  f86c8e:	61ff 0000 4464 	bsr.l 0xf8b0f4
  f86c94:	4fef 000c      	lea 12(sp),sp
  f86c98:	4285           	clr.l d5
  f86c9a:	4287           	clr.l d7
  f86c9c:	4283           	clr.l d3
  f86c9e:	41fa 0042      	lea 0xf86ce2(pc),a0
  f86ca2:	2b48 ff34      	move.l a0,-204(a5)
  f86ca6:	45ed ff80      	lea -128(a5),a2
  f86caa:	367c 0001      	movea.w #1,a3
  f86cae:	baad ff4c      	cmp.l -180(a5),d5
  f86cb2:	6400 ff2e      	bcc.w 0xf86be2
  f86cb6:	2b6d ff50 ff40 	move.l -176(a5),-192(a5)
  f86cbc:	2b6d ff54 ff44 	move.l -172(a5),-188(a5)
  f86cc2:	242d ff48      	move.l -184(a5),d2
  f86cc6:	202c 90f2      	move.l -28430(a4),d0
  f86cca:	5580           	subq.l #2,d0
  f86ccc:	7205           	moveq #5,d1
  f86cce:	b280           	cmp.l d0,d1
  f86cd0:	6500 01ba      	bcs.w 0xf86e8c
  f86cd4:	d080           	add.l d0,d0
  f86cd6:	206d ff34      	movea.l -204(a5),a0
  f86cda:	3030 0800      	move.w (0,a0,d0.l),d0
  f86cde:	4efb 0002      	jmp (0xf86ce2,pc,d0.w)
  f86ce2:	032e 0146      	btst d1,326(a6)
  f86ce6:	030c 026a      	movep.w 618(a4),d1
  f86cea:	02ac 0160 487a 	andi.l #23087226,-515(a4)
  f86cf0:	fdfd 
  f86cf2:	2f02           	move.l d2,-(sp)
  f86cf4:	61ff 0000 4472 	bsr.l 0xf8b168
  f86cfa:	508f           	addq.l #8,sp
  f86cfc:	4a80           	tst.l d0
  f86cfe:	6610           	bne.s 0xf86d10
  f86d00:	7001           	moveq #1,d0
  f86d02:	2940 90f2      	move.l d0,-28430(a4)
  f86d06:	2f2d ff48      	move.l -184(a5),-(sp)
  f86d0a:	42a7           	clr.l -(sp)
  f86d0c:	6000 ff7c      	bra.w 0xf86c8a
  f86d10:	487a fde0      	pea 0xf86af2(pc)
  f86d14:	2f02           	move.l d2,-(sp)
  f86d16:	61ff 0000 4450 	bsr.l 0xf8b168
  f86d1c:	508f           	addq.l #8,sp
  f86d1e:	4a80           	tst.l d0
  f86d20:	6604           	bne.s 0xf86d26
  f86d22:	7002           	moveq #2,d0
  f86d24:	60dc           	bra.s 0xf86d02
  f86d26:	4878 0004      	pea 0x4
  f86d2a:	487a fdcb      	pea 0xf86af7(pc)
  f86d2e:	2f02           	move.l d2,-(sp)
  f86d30:	61ff 0000 44d6 	bsr.l 0xf8b208
  f86d36:	4fef 000c      	lea 12(sp),sp
  f86d3a:	4a80           	tst.l d0
  f86d3c:	6618           	bne.s 0xf86d56
  f86d3e:	7203           	moveq #3,d1
  f86d40:	2941 90f2      	move.l d1,-28430(a4)
  f86d44:	42a7           	clr.l -(sp)
  f86d46:	61ff ffff d8f0 	bsr.l 0xf84638
  f86d4c:	2940 90fa      	move.l d0,-28422(a4)
  f86d50:	588f           	addq.l #4,sp
  f86d52:	6000 ff44      	bra.w 0xf86c98
  f86d56:	487a fda6      	pea 0xf86afe(pc)
  f86d5a:	2f02           	move.l d2,-(sp)
  f86d5c:	61ff 0000 440a 	bsr.l 0xf8b168
  f86d62:	508f           	addq.l #8,sp
  f86d64:	262d ff48      	move.l -184(a5),d3
  f86d68:	45ed ff80      	lea -128(a5),a2
  f86d6c:	4a80           	tst.l d0
  f86d6e:	6608           	bne.s 0xf86d78
  f86d70:	7404           	moveq #4,d2
  f86d72:	2942 90f2      	move.l d2,-28430(a4)
  f86d76:	603c           	bra.s 0xf86db4
  f86d78:	487a fd8b      	pea 0xf86b05(pc)
  f86d7c:	2f02           	move.l d2,-(sp)
  f86d7e:	61ff 0000 43e8 	bsr.l 0xf8b168
  f86d84:	508f           	addq.l #8,sp
  f86d86:	4a80           	tst.l d0
  f86d88:	6612           	bne.s 0xf86d9c
  f86d8a:	7005           	moveq #5,d0
  f86d8c:	2940 90f2      	move.l d0,-28430(a4)
  f86d90:	2f03           	move.l d3,-(sp)
  f86d92:	4878 00ff      	pea 0xff
  f86d96:	2f0a           	move.l a2,-(sp)
  f86d98:	6000 fef4      	bra.w 0xf86c8e
  f86d9c:	487a fd6d      	pea 0xf86b0b(pc)
  f86da0:	2f02           	move.l d2,-(sp)
  f86da2:	61ff 0000 43c4 	bsr.l 0xf8b168
  f86da8:	508f           	addq.l #8,sp
  f86daa:	4a80           	tst.l d0
  f86dac:	660c           	bne.s 0xf86dba
  f86dae:	7206           	moveq #6,d1
  f86db0:	2941 90f2      	move.l d1,-28430(a4)
  f86db4:	2f03           	move.l d3,-(sp)
  f86db6:	42a7           	clr.l -(sp)
  f86db8:	60dc           	bra.s 0xf86d96
  f86dba:	4878 0004      	pea 0x4
  f86dbe:	487a fd51      	pea 0xf86b11(pc)
  f86dc2:	2f02           	move.l d2,-(sp)
  f86dc4:	61ff 0000 4442 	bsr.l 0xf8b208
  f86dca:	4fef 000c      	lea 12(sp),sp
  f86dce:	4a80           	tst.l d0
  f86dd0:	6604           	bne.s 0xf86dd6
  f86dd2:	7407           	moveq #7,d2
  f86dd4:	609c           	bra.s 0xf86d72
  f86dd6:	2f03           	move.l d3,-(sp)
  f86dd8:	2f0a           	move.l a2,-(sp)
  f86dda:	2f02           	move.l d2,-(sp)
  f86ddc:	61ff ffff e9cc 	bsr.l 0xf857aa
  f86de2:	4fef 000c      	lea 12(sp),sp
  f86de6:	4a80           	tst.l d0
  f86de8:	6714           	beq.s 0xf86dfe
  f86dea:	206d 000c      	movea.l 12(a5),a0
  f86dee:	2f10           	move.l (a0),-(sp)
  f86df0:	487a fd27      	pea 0xf86b19(pc)
  f86df4:	61ff ffff b666 	bsr.l 0xf8245c
  f86dfa:	6000 fe36      	bra.w 0xf86c32
  f86dfe:	4a06           	tst.b d6
  f86e00:	660a           	bne.s 0xf86e0c
  f86e02:	7608           	moveq #8,d3
  f86e04:	2943 90f2      	move.l d3,-28430(a4)
  f86e08:	6000 fe8e      	bra.w 0xf86c98
  f86e0c:	222d ff48      	move.l -184(a5),d1
  f86e10:	2401           	move.l d1,d2
  f86e12:	e28a           	lsr.l #1,d2
  f86e14:	41f2 18ff      	lea (-1,a2,d1.l),a0
  f86e18:	b082           	cmp.l d2,d0
  f86e1a:	67e6           	beq.s 0xf86e02
  f86e1c:	1212           	move.b (a2),d1
  f86e1e:	14d0           	move.b (a0),(a2)+
  f86e20:	1081           	move.b d1,(a0)
  f86e22:	5280           	addq.l #1,d0
  f86e24:	5388           	subq.l #1,a0
  f86e26:	60f0           	bra.s 0xf86e18
  f86e28:	202c 90fa      	move.l -28422(a4),d0
  f86e2c:	4281           	clr.l d1
  f86e2e:	91c8           	suba.l a0,a0
  f86e30:	b481           	cmp.l d1,d2
  f86e32:	6200 019e      	bhi.w 0xf86fd2
  f86e36:	3208           	move.w a0,d1
  f86e38:	4a01           	tst.b d1
  f86e3a:	6750           	beq.s 0xf86e8c
  f86e3c:	2940 90fa      	move.l d0,-28422(a4)
  f86e40:	604a           	bra.s 0xf86e8c
  f86e42:	2205           	move.l d5,d1
  f86e44:	d2ad ff44      	add.l -188(a5),d1
  f86e48:	7002           	moveq #2,d0
  f86e4a:	b082           	cmp.l d2,d0
  f86e4c:	6700 00c2      	beq.w 0xf86f10
  f86e50:	70fd           	moveq #-3,d0
  f86e52:	c082           	and.l d2,d0
  f86e54:	2040           	movea.l d0,a0
  f86e56:	7001           	moveq #1,d0
  f86e58:	b088           	cmp.l a0,d0
  f86e5a:	6600 00bc      	bne.w 0xf86f18
  f86e5e:	4280           	clr.l d0
  f86e60:	41ed ff80      	lea -128(a5),a0
  f86e64:	1181 0800      	move.b d1,(0,a0,d0.l)
  f86e68:	5280           	addq.l #1,d0
  f86e6a:	b480           	cmp.l d0,d2
  f86e6c:	62f6           	bhi.s 0xf86e64
  f86e6e:	4a06           	tst.b d6
  f86e70:	671a           	beq.s 0xf86e8c
  f86e72:	2002           	move.l d2,d0
  f86e74:	e288           	lsr.l #1,d0
  f86e76:	2b40 ff30      	move.l d0,-208(a5)
  f86e7a:	43ed ff80      	lea -128(a5),a1
  f86e7e:	41f1 28ff      	lea (-1,a1,d2.l),a0
  f86e82:	4280           	clr.l d0
  f86e84:	b0ad ff30      	cmp.l -208(a5),d0
  f86e88:	6600 00b4      	bne.w 0xf86f3e
  f86e8c:	2b45 ff3c      	move.l d5,-196(a5)
  f86e90:	42ad ff38      	clr.l -200(a5)
  f86e94:	202d ff5c      	move.l -164(a5),d0
  f86e98:	0c00 0001      	cmpi.b #1,d0
  f86e9c:	6600 01be      	bne.w 0xf8705c
  f86ea0:	2f0a           	move.l a2,-(sp)
  f86ea2:	2f02           	move.l d2,-(sp)
  f86ea4:	222d ff38      	move.l -200(a5),d1
  f86ea8:	242d ff3c      	move.l -196(a5),d2
  f86eac:	202d ff40      	move.l -192(a5),d0
  f86eb0:	d4ad ff44      	add.l -188(a5),d2
  f86eb4:	d380           	addx.l d0,d1
  f86eb6:	2f02           	move.l d2,-(sp)
  f86eb8:	2f01           	move.l d1,-(sp)
  f86eba:	61ff 0000 1162 	bsr.l 0xf8801e
  f86ec0:	2400           	move.l d0,d2
  f86ec2:	4fef 0010      	lea 16(sp),sp
  f86ec6:	6700 01ae      	beq.w 0xf87076
  f86eca:	2f2d ff48      	move.l -184(a5),-(sp)
  f86ece:	487a ea09      	pea 0xf858d9(pc)
  f86ed2:	61ff ffff b588 	bsr.l 0xf8245c
  f86ed8:	202d ff38      	move.l -200(a5),d0
  f86edc:	222d ff3c      	move.l -196(a5),d1
  f86ee0:	262d ff50      	move.l -176(a5),d3
  f86ee4:	d2ad ff54      	add.l -172(a5),d1
  f86ee8:	d183           	addx.l d3,d0
  f86eea:	2f01           	move.l d1,-(sp)
  f86eec:	2f00           	move.l d0,-(sp)
  f86eee:	2f2d ff5c      	move.l -164(a5),-(sp)
  f86ef2:	2f2d ff58      	move.l -168(a5),-(sp)
  f86ef6:	61ff ffff e72a 	bsr.l 0xf85622
  f86efc:	4878 000a      	pea 0xa
  f86f00:	61ff ffff ce92 	bsr.l 0xf83d94
  f86f06:	4fef 001c      	lea 28(sp),sp
  f86f0a:	2802           	move.l d2,d4
  f86f0c:	6000 fcd4      	bra.w 0xf86be2
  f86f10:	3b41 ff80      	move.w d1,-128(a5)
  f86f14:	6000 ff58      	bra.w 0xf86e6e
  f86f18:	2002           	move.l d2,d0
  f86f1a:	5980           	subq.l #4,d0
  f86f1c:	2b81 0880      	move.l d1,(-128,a5,d0.l)
  f86f20:	7204           	moveq #4,d1
  f86f22:	b282           	cmp.l d2,d1
  f86f24:	6400 ff48      	bcc.w 0xf86e6e
  f86f28:	2f00           	move.l d0,-(sp)
  f86f2a:	42a7           	clr.l -(sp)
  f86f2c:	486d ff80      	pea -128(a5)
  f86f30:	61ff 0000 41c2 	bsr.l 0xf8b0f4
  f86f36:	4fef 000c      	lea 12(sp),sp
  f86f3a:	6000 ff32      	bra.w 0xf86e6e
  f86f3e:	1211           	move.b (a1),d1
  f86f40:	12d0           	move.b (a0),(a1)+
  f86f42:	1081           	move.b d1,(a0)
  f86f44:	5280           	addq.l #1,d0
  f86f46:	5388           	subq.l #1,a0
  f86f48:	6000 ff3a      	bra.w 0xf86e84
  f86f4c:	2002           	move.l d2,d0
  f86f4e:	5380           	subq.l #1,d0
  f86f50:	2203           	move.l d3,d1
  f86f52:	e689           	lsr.l #3,d1
  f86f54:	c280           	and.l d0,d1
  f86f56:	2041           	movea.l d1,a0
  f86f58:	2203           	move.l d3,d1
  f86f5a:	5381           	subq.l #1,d1
  f86f5c:	e689           	lsr.l #3,d1
  f86f5e:	c280           	and.l d0,d1
  f86f60:	4a06           	tst.b d6
  f86f62:	6620           	bne.s 0xf86f84
  f86f64:	2248           	movea.l a0,a1
  f86f66:	2c41           	movea.l d1,a6
  f86f68:	7007           	moveq #7,d0
  f86f6a:	c083           	and.l d3,d0
  f86f6c:	220b           	move.l a3,d1
  f86f6e:	e1a9           	lsl.l d0,d1
  f86f70:	4601           	not.b d1
  f86f72:	1b81 9880      	move.b d1,(-128,a5,a1.l)
  f86f76:	bdc9           	cmpa.l a1,a6
  f86f78:	6700 ff12      	beq.w 0xf86e8c
  f86f7c:	50f5 e880      	st (-128,a5,a6.l)
  f86f80:	6000 ff0a      	bra.w 0xf86e8c
  f86f84:	2240           	movea.l d0,a1
  f86f86:	93c8           	suba.l a0,a1
  f86f88:	2c40           	movea.l d0,a6
  f86f8a:	9dc1           	suba.l d1,a6
  f86f8c:	60da           	bra.s 0xf86f68
  f86f8e:	2002           	move.l d2,d0
  f86f90:	5380           	subq.l #1,d0
  f86f92:	2203           	move.l d3,d1
  f86f94:	e689           	lsr.l #3,d1
  f86f96:	c280           	and.l d0,d1
  f86f98:	2041           	movea.l d1,a0
  f86f9a:	2203           	move.l d3,d1
  f86f9c:	5381           	subq.l #1,d1
  f86f9e:	e689           	lsr.l #3,d1
  f86fa0:	c280           	and.l d0,d1
  f86fa2:	4a06           	tst.b d6
  f86fa4:	6622           	bne.s 0xf86fc8
  f86fa6:	2248           	movea.l a0,a1
  f86fa8:	2c41           	movea.l d1,a6
  f86faa:	7207           	moveq #7,d1
  f86fac:	c283           	and.l d3,d1
  f86fae:	2041           	movea.l d1,a0
  f86fb0:	220b           	move.l a3,d1
  f86fb2:	2008           	move.l a0,d0
  f86fb4:	e1a9           	lsl.l d0,d1
  f86fb6:	1b81 9880      	move.b d1,(-128,a5,a1.l)
  f86fba:	bdc9           	cmpa.l a1,a6
  f86fbc:	6700 fece      	beq.w 0xf86e8c
  f86fc0:	4235 e880      	clr.b (-128,a5,a6.l)
  f86fc4:	6000 fec6      	bra.w 0xf86e8c
  f86fc8:	2240           	movea.l d0,a1
  f86fca:	93c8           	suba.l a0,a1
  f86fcc:	2c40           	movea.l d0,a6
  f86fce:	9dc1           	suba.l d1,a6
  f86fd0:	60d8           	bra.s 0xf86faa
  f86fd2:	4c3c 0800 0000 	muls.l #25173,d0
  f86fd8:	6255 
  f86fda:	0680 0000 3619 	addi.l #13849,d0
  f86fe0:	2b80 1880      	move.l d0,(-128,a5,d1.l)
  f86fe4:	5881           	addq.l #4,d1
  f86fe6:	307c 0001      	movea.w #1,a0
  f86fea:	6000 fe44      	bra.w 0xf86e30
  f86fee:	0803 0000      	btst #0,d3
  f86ff2:	6716           	beq.s 0xf8700a
  f86ff4:	2f02           	move.l d2,-(sp)
  f86ff6:	4878 00ff      	pea 0xff
  f86ffa:	2f0a           	move.l a2,-(sp)
  f86ffc:	61ff 0000 40f6 	bsr.l 0xf8b0f4
  f87002:	4fef 000c      	lea 12(sp),sp
  f87006:	6000 fe84      	bra.w 0xf86e8c
  f8700a:	2f02           	move.l d2,-(sp)
  f8700c:	42a7           	clr.l -(sp)
  f8700e:	60ea           	bra.s 0xf86ffa
  f87010:	7007           	moveq #7,d0
  f87012:	c083           	and.l d3,d0
  f87014:	7204           	moveq #4,d1
  f87016:	b280           	cmp.l d0,d1
  f87018:	6428           	bcc.s 0xf87042
  f8701a:	2203           	move.l d3,d1
  f8701c:	0a41 0008      	eori.w #8,d1
  f87020:	e9c1 1701      	bfextu d1,28,1,d1
  f87024:	41ed ff80      	lea -128(a5),a0
  f87028:	7001           	moveq #1,d0
  f8702a:	c083           	and.l d3,d0
  f8702c:	b081           	cmp.l d1,d0
  f8702e:	671e           	beq.s 0xf8704e
  f87030:	2f02           	move.l d2,-(sp)
  f87032:	4878 00ff      	pea 0xff
  f87036:	2f08           	move.l a0,-(sp)
  f87038:	61ff 0000 40ba 	bsr.l 0xf8b0f4
  f8703e:	4fef 000c      	lea 12(sp),sp
  f87042:	7017           	moveq #23,d0
  f87044:	b087           	cmp.l d7,d0
  f87046:	670c           	beq.s 0xf87054
  f87048:	5287           	addq.l #1,d7
  f8704a:	6000 fe40      	bra.w 0xf86e8c
  f8704e:	2f02           	move.l d2,-(sp)
  f87050:	42a7           	clr.l -(sp)
  f87052:	60e2           	bra.s 0xf87036
  f87054:	5283           	addq.l #1,d3
  f87056:	4287           	clr.l d7
  f87058:	6000 fe32      	bra.w 0xf86e8c
  f8705c:	0280 0000 00ff 	andi.l #255,d0
  f87062:	2f00           	move.l d0,-(sp)
  f87064:	487a e280      	pea 0xf852e6(pc)
  f87068:	61ff ffff b3f2 	bsr.l 0xf8245c
  f8706e:	508f           	addq.l #8,sp
  f87070:	7401           	moveq #1,d2
  f87072:	6000 fe56      	bra.w 0xf86eca
  f87076:	5283           	addq.l #1,d3
  f87078:	61ff ffff cd9a 	bsr.l 0xf83e14
  f8707e:	4a80           	tst.l d0
  f87080:	6712           	beq.s 0xf87094
  f87082:	487a ea65      	pea 0xf85ae9(pc)
  f87086:	61ff ffff cd4a 	bsr.l 0xf83dd2
  f8708c:	588f           	addq.l #4,sp
  f8708e:	7803           	moveq #3,d4
  f87090:	6000 fb50      	bra.w 0xf86be2
  f87094:	daad ff48      	add.l -184(a5),d5
  f87098:	6000 fc14      	bra.w 0xf86cae
  f8709c:	7465           	moveq #101,d2
  f8709e:	7374           	.short 0x7374
  f870a0:	2072 6571 7569 	movea.l ([1969844837,a2],0),a0
  f870a6:	7265 
  f870a8:	7320           	.short 0x7320
  f870aa:	7468           	moveq #104,d2
  f870ac:	7265           	moveq #101,d1
  f870ae:	6520           	bcs.s 0xf870d0
  f870b0:	6172           	bsr.s 0xf87124
  f870b2:	6775           	beq.s 0xf87129
  f870b4:	6d65           	blt.s 0xf8711b
  f870b6:	6e74           	bgt.s 0xf8712c
  f870b8:	733a           	.short 0x733a
  f870ba:	203c 6164 6472 	move.l #1633969266,d0
  f870c0:	3e20           	move.w -(a0),d7
  f870c2:	3c6c 656e      	movea.w 25966(a4),a6
  f870c6:	3e20           	move.w -(a0),d7
  f870c8:	3c6d 6f64      	movea.w 28516(a5),a6
  f870cc:	653e           	bcs.s 0xf8710c
  f870ce:	205b           	movea.l (a3)+,a0
  f870d0:	3c70 6173 7365 	movea.w ([1936028478,a0],1560310885),a6
  f870d6:	733e 5d00 7465 
  f870dc:	7374           	.short 0x7374
  f870de:	003c 6d6f      	ori.b #111,ccr
  f870e2:	6465           	bcc.s 0xf87149
  f870e4:	3e20           	move.w -(a0),d7
  f870e6:	6d61           	blt.s 0xf87149
  f870e8:	7920           	.short 0x7920
  f870ea:	6265           	bhi.s 0xf87151
  f870ec:	206f 6e65      	movea.l 28261(sp),a0
  f870f0:	2c20           	move.l -(a0),d6
  f870f2:	7a65           	moveq #101,d5
  f870f4:	726f           	moveq #111,d1
  f870f6:	2c20           	move.l -(a0),d6
  f870f8:	7261           	moveq #97,d1
  f870fa:	6e64           	bgt.s 0xf87160
  f870fc:	2c20           	move.l -(a0),d6
  f870fe:	7761           	.short 0x7761
  f87100:	6c6b           	bge.s 0xf8716d
  f87102:	302c 2077      	move.w 8311(a4),d0
  f87106:	616c           	bsr.s 0xf87174
  f87108:	6b31           	bmi.s 0xf8713b
  f8710a:	2c20           	move.l -(a0),d6
  f8710c:	7265           	moveq #101,d1
  f8710e:	6164           	bsr.s 0xf87174
  f87110:	2c20           	move.l -(a0),d6
  f87112:	6f72           	ble.s 0xf87186
  f87114:	203c 7661 6c75 	move.l #1986096245,d0
  f8711a:	653e           	bcs.s 0xf8715a
  f8711c:	0072 6561 6400 	ori.w #25953,(0,a2,d6.w*4)
  f87122:	7261           	moveq #97,d1
  f87124:	6e64           	bgt.s 0xf8718a
  f87126:	0049           	.short 0x0049
  f87128:	6e76           	bgt.s 0xf871a0
  f8712a:	616c           	bsr.s 0xf87198
  f8712c:	6964           	bvs.s 0xf87192
  f8712e:	206d 6f64      	movea.l 28516(a5),a0
  f87132:	6520           	bcs.s 0xf87154
  f87134:	2573 0a00 496e 	move.l (0,a3,d0.l*2),18798(a2)
  f8713a:	7661           	moveq #97,d3
  f8713c:	6c69           	bge.s 0xf871a7
  f8713e:	6420           	bcc.s 0xf87160
  f87140:	6e75           	bgt.s 0xf871b7
  f87142:	6d62           	blt.s 0xf871a6
  f87144:	6572           	bcs.s 0xf871b8
  f87146:	206f 6620      	movea.l 26144(sp),a0
  f8714a:	7061           	moveq #97,d0
  f8714c:	7373           	.short 0x7373
  f8714e:	6573           	bcs.s 0xf871c3
  f87150:	2025           	move.l -(a5),d0
  f87152:	730a           	.short 0x730a
  f87154:	002e 2e2e 004d 	ori.b #46,77(a6)
  f8715a:	6973           	bvs.s 0xf871cf
  f8715c:	636f           	bls.s 0xf871cd
  f8715e:	6d70           	blt.s 0xf871d0
  f87160:	6172           	bsr.s 0xf871d4
  f87162:	6520           	bcs.s 0xf87184
  f87164:	6174           	bsr.s 0xf871da
  f87166:	2000           	move.l d0,d0
  f87168:	3a20           	move.w -(a0),d5
  f8716a:	573d           	.short 0x573d
  f8716c:	0020 523d      	ori.b #61,-(a0)
  f87170:	0020 5252      	ori.b #82,-(a0)
  f87174:	3d00           	move.w d0,-(a6)
  f87176:	2575 206d 6973 	move.l (109,a5,d2.w),26995(a2)
  f8717c:	6d61           	blt.s 0xf871df
  f8717e:	7463           	moveq #99,d2
  f87180:	6865           	bvc.s 0xf871e7
  f87182:	730a           	.short 0x730a
  f87184:	0000 4e55      	ori.b #85,d0
  f87188:	fe28           	.short 0xfe28
  f8718a:	48e7 3f3a      	movem.l d2-d7/a2-a4/a6,-(sp)
  f8718e:	7001           	moveq #1,d0
  f87190:	2b40 fe4c      	move.l d0,-436(a5)
  f87194:	7203           	moveq #3,d1
  f87196:	b2ad 0008      	cmp.l 8(a5),d1
  f8719a:	6d12           	blt.s 0xf871ae
  f8719c:	487a fefe      	pea 0xf8709c(pc)
  f871a0:	61ff ffff cc30 	bsr.l 0xf83dd2
  f871a6:	588f           	addq.l #4,sp
  f871a8:	7402           	moveq #2,d2
  f871aa:	6000 0344      	bra.w 0xf874f0
  f871ae:	487a ff2a      	pea 0xf870da(pc)
  f871b2:	206d 000c      	movea.l 12(a5),a0
  f871b6:	2f10           	move.l (a0),-(sp)
  f871b8:	61ff ffff e05e 	bsr.l 0xf85218
  f871be:	508f           	addq.l #8,sp
  f871c0:	240d           	move.l a5,d2
  f871c2:	0682 ffff fe60 	addi.l #-416,d2
  f871c8:	2f02           	move.l d2,-(sp)
  f871ca:	486d fe44      	pea -444(a5)
  f871ce:	2f00           	move.l d0,-(sp)
  f871d0:	61ff ffff e320 	bsr.l 0xf854f2
  f871d6:	4fef 000c      	lea 12(sp),sp
  f871da:	4a80           	tst.l d0
  f871dc:	66ca           	bne.s 0xf871a8
  f871de:	2042           	movea.l d2,a0
  f871e0:	422d fe43      	clr.b -445(a5)
  f871e4:	2208           	move.l a0,d1
  f871e6:	1018           	move.b (a0)+,d0
  f871e8:	6678           	bne.s 0xf87262
  f871ea:	53ad 0008      	subq.l #1,8(a5)
  f871ee:	58ad 000c      	addq.l #4,12(a5)
  f871f2:	486d fe50      	pea -432(a5)
  f871f6:	486d fe58      	pea -424(a5)
  f871fa:	486d 0008      	pea 8(a5)
  f871fe:	486d 000c      	pea 12(a5)
  f87202:	61ff ffff e4c2 	bsr.l 0xf856c6
  f87208:	4fef 0010      	lea 16(sp),sp
  f8720c:	4a80           	tst.l d0
  f8720e:	6698           	bne.s 0xf871a8
  f87210:	7401           	moveq #1,d2
  f87212:	b4ad 0008      	cmp.l 8(a5),d2
  f87216:	6c84           	bge.s 0xf8719c
  f87218:	486d fe48      	pea -440(a5)
  f8721c:	206d 000c      	movea.l 12(a5),a0
  f87220:	2f10           	move.l (a0),-(sp)
  f87222:	61ff ffff e05a 	bsr.l 0xf8527e
  f87228:	508f           	addq.l #8,sp
  f8722a:	4a80           	tst.l d0
  f8722c:	6600 ff7a      	bne.w 0xf871a8
  f87230:	202d 0008      	move.l 8(a5),d0
  f87234:	2600           	move.l d0,d3
  f87236:	5383           	subq.l #1,d3
  f87238:	2b43 0008      	move.l d3,8(a5)
  f8723c:	222d 000c      	move.l 12(a5),d1
  f87240:	2c01           	move.l d1,d6
  f87242:	5886           	addq.l #4,d6
  f87244:	2b46 000c      	move.l d6,12(a5)
  f87248:	5580           	subq.l #2,d0
  f8724a:	b480           	cmp.l d0,d2
  f8724c:	6438           	bcc.s 0xf87286
  f8724e:	487a fe4c      	pea 0xf8709c(pc)
  f87252:	61ff ffff cb7e 	bsr.l 0xf83dd2
  f87258:	588f           	addq.l #4,sp
  f8725a:	487a fe83      	pea 0xf870df(pc)
  f8725e:	6000 ff40      	bra.w 0xf871a0
  f87262:	1b7c 0001 fe43 	move.b #1,-445(a5)
  f87268:	0200 00df      	andi.b #-33,d0
  f8726c:	0c00 004e      	cmpi.b #78,d0
  f87270:	6700 ff72      	beq.w 0xf871e4
  f87274:	2f01           	move.l d1,-(sp)
  f87276:	487a e64e      	pea 0xf858c6(pc)
  f8727a:	61ff ffff b1e0 	bsr.l 0xf8245c
  f87280:	508f           	addq.l #8,sp
  f87282:	6000 ff24      	bra.w 0xf871a8
  f87286:	7001           	moveq #1,d0
  f87288:	2940 90ee      	move.l d0,-28434(a4)
  f8728c:	2041           	movea.l d1,a0
  f8728e:	2428 0004      	move.l 4(a0),d2
  f87292:	487a f853      	pea 0xf86ae7(pc)
  f87296:	2f02           	move.l d2,-(sp)
  f87298:	61ff 0000 3ece 	bsr.l 0xf8b168
  f8729e:	508f           	addq.l #8,sp
  f872a0:	4a80           	tst.l d0
  f872a2:	660e           	bne.s 0xf872b2
  f872a4:	487a fe39      	pea 0xf870df(pc)
  f872a8:	61ff ffff cb28 	bsr.l 0xf83dd2
  f872ae:	588f           	addq.l #4,sp
  f872b0:	6046           	bra.s 0xf872f8
  f872b2:	487a f835      	pea 0xf86ae9(pc)
  f872b6:	2f02           	move.l d2,-(sp)
  f872b8:	61ff 0000 3eae 	bsr.l 0xf8b168
  f872be:	508f           	addq.l #8,sp
  f872c0:	4a80           	tst.l d0
  f872c2:	661e           	bne.s 0xf872e2
  f872c4:	7002           	moveq #2,d0
  f872c6:	2940 90ea      	move.l d0,-28438(a4)
  f872ca:	2f2d fe44      	move.l -444(a5),-(sp)
  f872ce:	4878 00ff      	pea 0xff
  f872d2:	486d fe80      	pea -384(a5)
  f872d6:	61ff 0000 3e1c 	bsr.l 0xf8b0f4
  f872dc:	4fef 000c      	lea 12(sp),sp
  f872e0:	6016           	bra.s 0xf872f8
  f872e2:	487a fe39      	pea 0xf8711d(pc)
  f872e6:	2f02           	move.l d2,-(sp)
  f872e8:	61ff 0000 3e7e 	bsr.l 0xf8b168
  f872ee:	508f           	addq.l #8,sp
  f872f0:	4a80           	tst.l d0
  f872f2:	663e           	bne.s 0xf87332
  f872f4:	42ac 90ee      	clr.l -28434(a4)
  f872f8:	7201           	moveq #1,d1
  f872fa:	b2ad 0008      	cmp.l 8(a5),d1
  f872fe:	6d00 00f8      	blt.w 0xf873f8
  f87302:	4287           	clr.l d7
  f87304:	4284           	clr.l d4
  f87306:	4283           	clr.l d3
  f87308:	4285           	clr.l d5
  f8730a:	41ed fe80      	lea -384(a5),a0
  f8730e:	2b48 fe2e      	move.l a0,-466(a5)
  f87312:	45ed ff00      	lea -256(a5),a2
  f87316:	bead fe4c      	cmp.l -436(a5),d7
  f8731a:	6500 047e      	bcs.w 0xf8779a
  f8731e:	4a84           	tst.l d4
  f87320:	6600 047e      	bne.w 0xf877a0
  f87324:	4a2d fe43      	tst.b -445(a5)
  f87328:	6700 0476      	beq.w 0xf877a0
  f8732c:	4282           	clr.l d2
  f8732e:	6000 01c0      	bra.w 0xf874f0
  f87332:	4878 0004      	pea 0x4
  f87336:	487a fdea      	pea 0xf87122(pc)
  f8733a:	2f02           	move.l d2,-(sp)
  f8733c:	61ff 0000 3eca 	bsr.l 0xf8b208
  f87342:	4fef 000c      	lea 12(sp),sp
  f87346:	4a80           	tst.l d0
  f87348:	6616           	bne.s 0xf87360
  f8734a:	7203           	moveq #3,d1
  f8734c:	2941 90ea      	move.l d1,-28438(a4)
  f87350:	42a7           	clr.l -(sp)
  f87352:	61ff ffff d2e4 	bsr.l 0xf84638
  f87358:	2940 90fa      	move.l d0,-28422(a4)
  f8735c:	6000 ff50      	bra.w 0xf872ae
  f87360:	487a f7a3      	pea 0xf86b05(pc)
  f87364:	2f02           	move.l d2,-(sp)
  f87366:	61ff 0000 3e00 	bsr.l 0xf8b168
  f8736c:	508f           	addq.l #8,sp
  f8736e:	282d fe44      	move.l -444(a5),d4
  f87372:	260d           	move.l a5,d3
  f87374:	0683 ffff fe80 	addi.l #-384,d3
  f8737a:	4a80           	tst.l d0
  f8737c:	6612           	bne.s 0xf87390
  f8737e:	7404           	moveq #4,d2
  f87380:	2942 90ea      	move.l d2,-28438(a4)
  f87384:	2f04           	move.l d4,-(sp)
  f87386:	4878 00ff      	pea 0xff
  f8738a:	2f03           	move.l d3,-(sp)
  f8738c:	6000 ff48      	bra.w 0xf872d6
  f87390:	487a f779      	pea 0xf86b0b(pc)
  f87394:	2f02           	move.l d2,-(sp)
  f87396:	61ff 0000 3dd0 	bsr.l 0xf8b168
  f8739c:	508f           	addq.l #8,sp
  f8739e:	4a80           	tst.l d0
  f873a0:	660c           	bne.s 0xf873ae
  f873a2:	7c05           	moveq #5,d6
  f873a4:	2946 90ea      	move.l d6,-28438(a4)
  f873a8:	2f04           	move.l d4,-(sp)
  f873aa:	42a7           	clr.l -(sp)
  f873ac:	60dc           	bra.s 0xf8738a
  f873ae:	487a f73d      	pea 0xf86aed(pc)
  f873b2:	2f02           	move.l d2,-(sp)
  f873b4:	61ff 0000 3db2 	bsr.l 0xf8b168
  f873ba:	508f           	addq.l #8,sp
  f873bc:	4a80           	tst.l d0
  f873be:	6608           	bne.s 0xf873c8
  f873c0:	7001           	moveq #1,d0
  f873c2:	2940 90ea      	move.l d0,-28438(a4)
  f873c6:	60e0           	bra.s 0xf873a8
  f873c8:	42ac 90ea      	clr.l -28438(a4)
  f873cc:	2f04           	move.l d4,-(sp)
  f873ce:	2f03           	move.l d3,-(sp)
  f873d0:	2f02           	move.l d2,-(sp)
  f873d2:	61ff ffff e3d6 	bsr.l 0xf857aa
  f873d8:	4fef 000c      	lea 12(sp),sp
  f873dc:	4a80           	tst.l d0
  f873de:	6700 ff18      	beq.w 0xf872f8
  f873e2:	206d 000c      	movea.l 12(a5),a0
  f873e6:	2f10           	move.l (a0),-(sp)
  f873e8:	487a fd3d      	pea 0xf87127(pc)
  f873ec:	61ff ffff b06e 	bsr.l 0xf8245c
  f873f2:	508f           	addq.l #8,sp
  f873f4:	6000 fe64      	bra.w 0xf8725a
  f873f8:	486d fe4c      	pea -436(a5)
  f873fc:	206d 000c      	movea.l 12(a5),a0
  f87400:	2f28 0004      	move.l 4(a0),-(sp)
  f87404:	61ff ffff de78 	bsr.l 0xf8527e
  f8740a:	508f           	addq.l #8,sp
  f8740c:	4a80           	tst.l d0
  f8740e:	6600 fd98      	bne.w 0xf871a8
  f87412:	4aad fe4c      	tst.l -436(a5)
  f87416:	6600 feea      	bne.w 0xf87302
  f8741a:	206d 000c      	movea.l 12(a5),a0
  f8741e:	2f28 0004      	move.l 4(a0),-(sp)
  f87422:	487a fd14      	pea 0xf87138(pc)
  f87426:	6000 fe52      	bra.w 0xf8727a
  f8742a:	242c 90ee      	move.l -28434(a4),d2
  f8742e:	7201           	moveq #1,d1
  f87430:	b282           	cmp.l d2,d1
  f87432:	6600 0154      	bne.w 0xf87588
  f87436:	206c 90ea      	movea.l -28438(a4),a0
  f8743a:	7c04           	moveq #4,d6
  f8743c:	bc88           	cmp.l a0,d6
  f8743e:	6700 00da      	beq.w 0xf8751a
  f87442:	7205           	moveq #5,d1
  f87444:	b288           	cmp.l a0,d1
  f87446:	6700 0100      	beq.w 0xf87548
  f8744a:	7c03           	moveq #3,d6
  f8744c:	bc88           	cmp.l a0,d6
  f8744e:	661a           	bne.s 0xf8746a
  f87450:	222c 90fa      	move.l -28422(a4),d1
  f87454:	41f8 0000      	lea 0x0,a0
  f87458:	93c9           	suba.l a1,a1
  f8745a:	b088           	cmp.l a0,d0
  f8745c:	6200 009e      	bhi.w 0xf874fc
  f87460:	3c09           	move.w a1,d6
  f87462:	4a06           	tst.b d6
  f87464:	6704           	beq.s 0xf8746a
  f87466:	2941 90fa      	move.l d1,-28422(a4)
  f8746a:	2b6d fe2a fe3e 	move.l -470(a5),-450(a5)
  f87470:	42ad fe3a      	clr.l -454(a5)
  f87474:	206d fe50      	movea.l -432(a5),a0
  f87478:	226d fe54      	movea.l -428(a5),a1
  f8747c:	222d fe5c      	move.l -420(a5),d1
  f87480:	0c01 0001      	cmpi.b #1,d1
  f87484:	6600 00ea      	bne.w 0xf87570
  f87488:	486d fe80      	pea -384(a5)
  f8748c:	2f00           	move.l d0,-(sp)
  f8748e:	222d fe3a      	move.l -454(a5),d1
  f87492:	242d fe3e      	move.l -450(a5),d2
  f87496:	2c08           	move.l a0,d6
  f87498:	d489           	add.l a1,d2
  f8749a:	d386           	addx.l d6,d1
  f8749c:	2f02           	move.l d2,-(sp)
  f8749e:	2f01           	move.l d1,-(sp)
  f874a0:	61ff 0000 0b7c 	bsr.l 0xf8801e
  f874a6:	2400           	move.l d0,d2
  f874a8:	4fef 0010      	lea 16(sp),sp
  f874ac:	6700 00da      	beq.w 0xf87588
  f874b0:	2f2d fe44      	move.l -444(a5),-(sp)
  f874b4:	487a e423      	pea 0xf858d9(pc)
  f874b8:	61ff ffff afa2 	bsr.l 0xf8245c
  f874be:	202d fe3a      	move.l -454(a5),d0
  f874c2:	222d fe3e      	move.l -450(a5),d1
  f874c6:	262d fe50      	move.l -432(a5),d3
  f874ca:	d2ad fe54      	add.l -428(a5),d1
  f874ce:	d183           	addx.l d3,d0
  f874d0:	2f01           	move.l d1,-(sp)
  f874d2:	2f00           	move.l d0,-(sp)
  f874d4:	2f2d fe5c      	move.l -420(a5),-(sp)
  f874d8:	2f2d fe58      	move.l -424(a5),-(sp)
  f874dc:	61ff ffff e144 	bsr.l 0xf85622
  f874e2:	4878 000a      	pea 0xa
  f874e6:	61ff ffff c8ac 	bsr.l 0xf83d94
  f874ec:	4fef 001c      	lea 28(sp),sp
  f874f0:	2002           	move.l d2,d0
  f874f2:	4ced 5cfc fe00 	movem.l -512(a5),d2-d7/a2-a4/a6
  f874f8:	4e5d           	unlk a5
  f874fa:	4e75           	rts
  f874fc:	4c3c 1800 0000 	muls.l #25173,d1
  f87502:	6255 
  f87504:	0681 0000 3619 	addi.l #13849,d1
  f8750a:	2b81 8920 fe80 	move.l d1,(-384,a5,a0.l)
  f87510:	5888           	addq.l #4,a0
  f87512:	327c 0001      	movea.w #1,a1
  f87516:	6000 ff42      	bra.w 0xf8745a
  f8751a:	2040           	movea.l d0,a0
  f8751c:	5388           	subq.l #1,a0
  f8751e:	2203           	move.l d3,d1
  f87520:	e689           	lsr.l #3,d1
  f87522:	2c08           	move.l a0,d6
  f87524:	cc81           	and.l d1,d6
  f87526:	2646           	movea.l d6,a3
  f87528:	7207           	moveq #7,d1
  f8752a:	c283           	and.l d3,d1
  f8752c:	2c02           	move.l d2,d6
  f8752e:	e3ae           	lsl.l d1,d6
  f87530:	4606           	not.b d6
  f87532:	1b86 b920 fe80 	move.b d6,(-384,a5,a3.l)
  f87538:	b7c5           	cmpa.l d5,a3
  f8753a:	6706           	beq.s 0xf87542
  f8753c:	50f5 5920 fe80 	st (-384,a5,d5.l)
  f87542:	2a0b           	move.l a3,d5
  f87544:	6000 ff24      	bra.w 0xf8746a
  f87548:	2040           	movea.l d0,a0
  f8754a:	5388           	subq.l #1,a0
  f8754c:	2203           	move.l d3,d1
  f8754e:	e689           	lsr.l #3,d1
  f87550:	2c08           	move.l a0,d6
  f87552:	cc81           	and.l d1,d6
  f87554:	2646           	movea.l d6,a3
  f87556:	7207           	moveq #7,d1
  f87558:	c283           	and.l d3,d1
  f8755a:	2c02           	move.l d2,d6
  f8755c:	e3ae           	lsl.l d1,d6
  f8755e:	1b86 b920 fe80 	move.b d6,(-384,a5,a3.l)
  f87564:	b7c5           	cmpa.l d5,a3
  f87566:	67da           	beq.s 0xf87542
  f87568:	4235 5920 fe80 	clr.b (-384,a5,d5.l)
  f8756e:	60d2           	bra.s 0xf87542
  f87570:	0281 0000 00ff 	andi.l #255,d1
  f87576:	2f01           	move.l d1,-(sp)
  f87578:	487a dd6c      	pea 0xf852e6(pc)
  f8757c:	61ff ffff aede 	bsr.l 0xf8245c
  f87582:	508f           	addq.l #8,sp
  f87584:	6000 ff2a      	bra.w 0xf874b0
  f87588:	2b6d fe2a fe36 	move.l -470(a5),-458(a5)
  f8758e:	42ad fe32      	clr.l -462(a5)
  f87592:	2f0a           	move.l a2,-(sp)
  f87594:	2f2d fe44      	move.l -444(a5),-(sp)
  f87598:	222d fe32      	move.l -462(a5),d1
  f8759c:	242d fe36      	move.l -458(a5),d2
  f875a0:	2c2d fe50      	move.l -432(a5),d6
  f875a4:	d4ad fe54      	add.l -428(a5),d2
  f875a8:	d386           	addx.l d6,d1
  f875aa:	2f02           	move.l d2,-(sp)
  f875ac:	2f01           	move.l d1,-(sp)
  f875ae:	2f2d fe5c      	move.l -420(a5),-(sp)
  f875b2:	2f2d fe58      	move.l -424(a5),-(sp)
  f875b6:	61ff ffff dd50 	bsr.l 0xf85308
  f875bc:	2400           	move.l d0,d2
  f875be:	4fef 0018      	lea 24(sp),sp
  f875c2:	671a           	beq.s 0xf875de
  f875c4:	2f2d fe44      	move.l -444(a5),-(sp)
  f875c8:	487a e4f0      	pea 0xf85aba(pc)
  f875cc:	61ff ffff ae8e 	bsr.l 0xf8245c
  f875d2:	202d fe32      	move.l -462(a5),d0
  f875d6:	222d fe36      	move.l -458(a5),d1
  f875da:	6000 feea      	bra.w 0xf874c6
  f875de:	2f2d fe44      	move.l -444(a5),-(sp)
  f875e2:	2f0a           	move.l a2,-(sp)
  f875e4:	486d fe80      	pea -384(a5)
  f875e8:	61ff 0000 392a 	bsr.l 0xf8af14
  f875ee:	4fef 000c      	lea 12(sp),sp
  f875f2:	4a80           	tst.l d0
  f875f4:	6714           	beq.s 0xf8760a
  f875f6:	7c05           	moveq #5,d6
  f875f8:	bc84           	cmp.l d4,d6
  f875fa:	662c           	bne.s 0xf87628
  f875fc:	487a fb57      	pea 0xf87155(pc)
  f87600:	61ff ffff c7d0 	bsr.l 0xf83dd2
  f87606:	588f           	addq.l #4,sp
  f87608:	5284           	addq.l #1,d4
  f8760a:	61ff ffff c808 	bsr.l 0xf83e14
  f87610:	4a80           	tst.l d0
  f87612:	6700 0150      	beq.w 0xf87764
  f87616:	487a e4d1      	pea 0xf85ae9(pc)
  f8761a:	61ff ffff c7b6 	bsr.l 0xf83dd2
  f87620:	588f           	addq.l #4,sp
  f87622:	7403           	moveq #3,d2
  f87624:	6000 feca      	bra.w 0xf874f0
  f87628:	7004           	moveq #4,d0
  f8762a:	b084           	cmp.l d4,d0
  f8762c:	65da           	bcs.s 0xf87608
  f8762e:	487a fb29      	pea 0xf87159(pc)
  f87632:	61ff ffff ae28 	bsr.l 0xf8245c
  f87638:	202d fe32      	move.l -462(a5),d0
  f8763c:	222d fe36      	move.l -458(a5),d1
  f87640:	2c2d fe50      	move.l -432(a5),d6
  f87644:	d2ad fe54      	add.l -428(a5),d1
  f87648:	d186           	addx.l d6,d0
  f8764a:	2f01           	move.l d1,-(sp)
  f8764c:	2f00           	move.l d0,-(sp)
  f8764e:	2f2d fe5c      	move.l -420(a5),-(sp)
  f87652:	2f2d fe58      	move.l -424(a5),-(sp)
  f87656:	61ff ffff dfca 	bsr.l 0xf85622
  f8765c:	487a fb0a      	pea 0xf87168(pc)
  f87660:	61ff ffff adfa 	bsr.l 0xf8245c
  f87666:	4fef 0018      	lea 24(sp),sp
  f8766a:	47f8 0000      	lea 0x0,a3
  f8766e:	4dfa e46f      	lea 0xf85adf(pc),a6
  f87672:	202d fe44      	move.l -444(a5),d0
  f87676:	b7c0           	cmpa.l d0,a3
  f87678:	655a           	bcs.s 0xf876d4
  f8767a:	487a faf1      	pea 0xf8716d(pc)
  f8767e:	61ff ffff addc 	bsr.l 0xf8245c
  f87684:	588f           	addq.l #4,sp
  f87686:	4dfa e457      	lea 0xf85adf(pc),a6
  f8768a:	202d fe44      	move.l -444(a5),d0
  f8768e:	b480           	cmp.l d0,d2
  f87690:	6564           	bcs.s 0xf876f6
  f87692:	4ded ff80      	lea -128(a5),a6
  f87696:	2f0e           	move.l a6,-(sp)
  f87698:	2f00           	move.l d0,-(sp)
  f8769a:	222d fe32      	move.l -462(a5),d1
  f8769e:	242d fe36      	move.l -458(a5),d2
  f876a2:	2c2d fe50      	move.l -432(a5),d6
  f876a6:	d4ad fe54      	add.l -428(a5),d2
  f876aa:	d386           	addx.l d6,d1
  f876ac:	2f02           	move.l d2,-(sp)
  f876ae:	2f01           	move.l d1,-(sp)
  f876b0:	2f2d fe5c      	move.l -420(a5),-(sp)
  f876b4:	2f2d fe58      	move.l -424(a5),-(sp)
  f876b8:	61ff ffff dc4e 	bsr.l 0xf85308
  f876be:	2400           	move.l d0,d2
  f876c0:	4fef 0018      	lea 24(sp),sp
  f876c4:	6752           	beq.s 0xf87718
  f876c6:	4878 000a      	pea 0xa
  f876ca:	61ff ffff c6c8 	bsr.l 0xf83d94
  f876d0:	6000 ff34      	bra.w 0xf87606
  f876d4:	5380           	subq.l #1,d0
  f876d6:	908b           	sub.l a3,d0
  f876d8:	1035 0920 fe80 	move.b (-384,a5,d0.l),d0
  f876de:	0280 0000 00ff 	andi.l #255,d0
  f876e4:	2f00           	move.l d0,-(sp)
  f876e6:	2f0e           	move.l a6,-(sp)
  f876e8:	61ff ffff ad72 	bsr.l 0xf8245c
  f876ee:	528b           	addq.l #1,a3
  f876f0:	508f           	addq.l #8,sp
  f876f2:	6000 ff7e      	bra.w 0xf87672
  f876f6:	5380           	subq.l #1,d0
  f876f8:	9082           	sub.l d2,d0
  f876fa:	1035 0920 ff00 	move.b (-256,a5,d0.l),d0
  f87700:	0280 0000 00ff 	andi.l #255,d0
  f87706:	2f00           	move.l d0,-(sp)
  f87708:	2f0e           	move.l a6,-(sp)
  f8770a:	61ff ffff ad50 	bsr.l 0xf8245c
  f87710:	5282           	addq.l #1,d2
  f87712:	508f           	addq.l #8,sp
  f87714:	6000 ff74      	bra.w 0xf8768a
  f87718:	2f2d fe44      	move.l -444(a5),-(sp)
  f8771c:	2f0e           	move.l a6,-(sp)
  f8771e:	2f0a           	move.l a2,-(sp)
  f87720:	61ff 0000 37f2 	bsr.l 0xf8af14
  f87726:	4fef 000c      	lea 12(sp),sp
  f8772a:	4a80           	tst.l d0
  f8772c:	6798           	beq.s 0xf876c6
  f8772e:	487a fa41      	pea 0xf87171(pc)
  f87732:	61ff ffff ad28 	bsr.l 0xf8245c
  f87738:	588f           	addq.l #4,sp
  f8773a:	4dfa e3a3      	lea 0xf85adf(pc),a6
  f8773e:	202d fe44      	move.l -444(a5),d0
  f87742:	b480           	cmp.l d0,d2
  f87744:	6480           	bcc.s 0xf876c6
  f87746:	5380           	subq.l #1,d0
  f87748:	9082           	sub.l d2,d0
  f8774a:	1035 0880      	move.b (-128,a5,d0.l),d0
  f8774e:	0280 0000 00ff 	andi.l #255,d0
  f87754:	2f00           	move.l d0,-(sp)
  f87756:	2f0e           	move.l a6,-(sp)
  f87758:	61ff ffff ad02 	bsr.l 0xf8245c
  f8775e:	5282           	addq.l #1,d2
  f87760:	508f           	addq.l #8,sp
  f87762:	60da           	bra.s 0xf8773e
  f87764:	5283           	addq.l #1,d3
  f87766:	202d fe44      	move.l -444(a5),d0
  f8776a:	d1ad fe2a      	add.l d0,-470(a5)
  f8776e:	222d fe48      	move.l -440(a5),d1
  f87772:	202d fe44      	move.l -444(a5),d0
  f87776:	b2ad fe2a      	cmp.l -470(a5),d1
  f8777a:	6200 fcae      	bhi.w 0xf8742a
  f8777e:	5287           	addq.l #1,d7
  f87780:	4c07 1800      	muls.l d7,d1
  f87784:	4c40 1001      	divul.l d0,d1,d1
  f87788:	e788           	lsl.l #3,d0
  f8778a:	4c40 1000      	divul.l d0,d0,d1
  f8778e:	4a80           	tst.l d0
  f87790:	6600 fb84      	bne.w 0xf87316
  f87794:	5283           	addq.l #1,d3
  f87796:	6000 fb7e      	bra.w 0xf87316
  f8779a:	42ad fe2a      	clr.l -470(a5)
  f8779e:	60ce           	bra.s 0xf8776e
  f877a0:	2f04           	move.l d4,-(sp)
  f877a2:	487a f9d2      	pea 0xf87176(pc)
  f877a6:	61ff ffff acb4 	bsr.l 0xf8245c
  f877ac:	508f           	addq.l #8,sp
  f877ae:	6000 fb7c      	bra.w 0xf8732c
  f877b2:	2f0c           	move.l a4,-(sp)
  f877b4:	4879 00f8 0206 	pea 0xf80206
  f877ba:	61ff ffff c616 	bsr.l 0xf83dd2
  f877c0:	588f           	addq.l #4,sp
  f877c2:	4280           	clr.l d0
  f877c4:	285f           	movea.l (sp)+,a4
  f877c6:	4e75           	rts
  f877c8:	61ff ffff c696 	bsr.l 0xf83e60
  f877ce:	4280           	clr.l d0
  f877d0:	4e75           	rts
  f877d2:	7469           	moveq #105,d2
  f877d4:	6d65           	blt.s 0xf8783b
  f877d6:	2063           	movea.l -(a3),a0
  f877d8:	6d64           	blt.s 0xf8783e
  f877da:	203c 636d 643e 	move.l #1668113470,d0
  f877e0:	202d 206d      	move.l 8301(a5),d0
  f877e4:	6561           	bcs.s 0xf87847
  f877e6:	7375           	.short 0x7375
  f877e8:	7265           	moveq #101,d1
  f877ea:	2063           	movea.l -(a3),a0
  f877ec:	6f6d           	ble.s 0xf8785b
  f877ee:	6d61           	blt.s 0xf87851
  f877f0:	6e64           	bgt.s 0xf87856
  f877f2:	2065           	movea.l -(a5),a0
  f877f4:	7865           	moveq #101,d4
  f877f6:	6375           	bls.s 0xf8786d
  f877f8:	7469           	moveq #105,d2
  f877fa:	6f6e           	ble.s 0xf8786a
  f877fc:	2074 696d 650a 	movea.l ([25866,a4],0),a0
  f87802:	7469           	moveq #105,d2
  f87804:	6d65           	blt.s 0xf8786b
  f87806:	206e 6f77      	movea.l 28535(a6),a0
  f8780a:	2020           	move.l -(a0),d0
  f8780c:	2020           	move.l -(a0),d0
  f8780e:	2020           	move.l -(a0),d0
  f87810:	202d 2064      	move.l 8292(a5),d0
  f87814:	6973           	bvs.s 0xf87889
  f87816:	706c           	moveq #108,d0
  f87818:	6179           	bsr.s 0xf87893
  f8781a:	2074 6865      	movea.l (101,a4,d6.l),a0
  f8781e:	2063           	movea.l -(a3),a0
  f87820:	7572           	.short 0x7572
  f87822:	7265           	moveq #101,d1
  f87824:	6e74           	bgt.s 0xf8789a
  f87826:	2074 696d 650a 	movea.l ([25866,a4],0),a0
  f8782c:	7469           	moveq #105,d2
  f8782e:	6d65           	blt.s 0xf87895
  f87830:	2074 6573 7420 	movea.l ([1948262432,a4],538976301),a0
  f87836:	2020 2020 202d 
  f8783c:	2074 6573 7420 	movea.l ([1948284009,a4],1835364979),a0
  f87842:	7469 6d65 7273 
  f87848:	0a74 696d 6520 	eori.w #26989,(30561,a4,d6.w*4)
  f8784e:	7761 
  f87850:	7463           	moveq #99,d2
  f87852:	6820           	bvc.s 0xf87874
  f87854:	2020           	move.l -(a0),d0
  f87856:	2020           	move.l -(a0),d0
  f87858:	2d20           	move.l -(a0),-(a6)
  f8785a:	7761           	.short 0x7761
  f8785c:	7463           	moveq #99,d2
  f8785e:	6820           	bvc.s 0xf87880
  f87860:	7468           	moveq #104,d2
  f87862:	6520           	bcs.s 0xf87884
  f87864:	7469           	moveq #105,d2
  f87866:	6d65           	blt.s 0xf878cd
  f87868:	7220           	moveq #32,d1
  f8786a:	746f           	moveq #111,d2
  f8786c:	2076 6572 6966 	movea.l ([1768323360,a6],29801),a0
  f87872:	7920 7469 
  f87876:	636b           	bls.s 0xf878e3
  f87878:	2069 7320      	movea.l 29472(a1),a0
  f8787c:	776f           	.short 0x776f
  f8787e:	726b           	moveq #107,d1
  f87880:	696e           	bvs.s 0xf878f0
  f87882:	6720           	beq.s 0xf878a4
  f87884:	636f           	bls.s 0xf878f5
  f87886:	7272           	moveq #114,d1
  f87888:	6563           	bcs.s 0xf878ed
  f8788a:	746c           	moveq #108,d2
  f8788c:	790a           	.short 0x790a
  f8788e:	003c 6d6f      	ori.b #111,ccr
  f87892:	6465           	bcc.s 0xf878f9
  f87894:	3e20           	move.w -(a0),d7
  f87896:	6d61           	blt.s 0xf878f9
  f87898:	7920           	.short 0x7920
  f8789a:	6265           	bhi.s 0xf87901
  f8789c:	206f 6e65      	movea.l 28261(sp),a0
  f878a0:	2c20           	move.l -(a0),d6
  f878a2:	7a65           	moveq #101,d5
  f878a4:	726f           	moveq #111,d1
  f878a6:	2c20           	move.l -(a0),d6
  f878a8:	7261           	moveq #97,d1
  f878aa:	6e64           	bgt.s 0xf87910
  f878ac:	2c20           	move.l -(a0),d6
  f878ae:	7761           	.short 0x7761
  f878b0:	6c6b           	bge.s 0xf8791d
  f878b2:	302c 2077      	move.w 8311(a4),d0
  f878b6:	616c           	bsr.s 0xf87924
  f878b8:	6b31           	bmi.s 0xf878eb
  f878ba:	2c20           	move.l -(a0),d6
  f878bc:	7265           	moveq #101,d1
  f878be:	6164           	bsr.s 0xf87924
  f878c0:	2c20           	move.l -(a0),d6
  f878c2:	6f72           	ble.s 0xf87936
  f878c4:	203c 7661 6c75 	move.l #1986096245,d0
  f878ca:	653e           	bcs.s 0xf8790a
  f878cc:	0a00 7465      	eori.b #101,d0
  f878d0:	7374           	.short 0x7374
  f878d2:	5b62           	subq.w #5,-(a2)
  f878d4:	776c           	.short 0x776c
  f878d6:	716f           	.short 0x716f
  f878d8:	685d           	bvc.s 0xf87937
  f878da:	203c 6164 6472 	move.l #1633969266,d0
  f878e0:	3e20           	move.w -(a0),d7
  f878e2:	3c6c 656e      	movea.w 25966(a4),a6
  f878e6:	3e20           	move.w -(a0),d7
  f878e8:	3c6d 6f64      	movea.w 28516(a5),a6
  f878ec:	653e           	bcs.s 0xf8792c
  f878ee:	205b           	movea.l (a3)+,a0
  f878f0:	3c70 3e5d      	movea.w (93,a0,d3.l*8),a6
  f878f4:	0a20 2020      	eori.b #32,-(a0)
  f878f8:	6220           	bhi.s 0xf8791a
  f878fa:	3d20           	move.w -(a0),-(a6)
  f878fc:	3120           	move.w -(a0),-(a0)
  f878fe:	6279           	bhi.s 0xf87979
  f87900:	7465           	moveq #101,d2
  f87902:	0a20 2020      	eori.b #32,-(a0)
  f87906:	7720           	.short 0x7720
  f87908:	3d20           	move.w -(a0),-(a6)
  f8790a:	776f           	.short 0x776f
  f8790c:	7264           	moveq #100,d1
  f8790e:	2028 3220      	move.l 12832(a0),d0
  f87912:	6279           	bhi.s 0xf8798d
  f87914:	7465           	moveq #101,d2
  f87916:	7329           	.short 0x7329
  f87918:	0a20 2020      	eori.b #32,-(a0)
  f8791c:	6c20           	bge.s 0xf8793e
  f8791e:	3d20           	move.w -(a0),-(a6)
  f87920:	6c6f           	bge.s 0xf87991
  f87922:	6e67           	bgt.s 0xf8798b
  f87924:	2028 3420      	move.l 13344(a0),d0
  f87928:	6279           	bhi.s 0xf879a3
  f8792a:	7465           	moveq #101,d2
  f8792c:	7329           	.short 0x7329
  f8792e:	0a20 2020      	eori.b #32,-(a0)
  f87932:	7120           	.short 0x7120
  f87934:	3d20           	move.w -(a0),-(a6)
  f87936:	7175           	.short 0x7175
  f87938:	6164           	bsr.s 0xf8799e
  f8793a:	2028 3820      	move.l 14368(a0),d0
  f8793e:	6279           	bhi.s 0xf879b9
  f87940:	7465           	moveq #101,d2
  f87942:	7329           	.short 0x7329
  f87944:	0a20 2020      	eori.b #32,-(a0)
  f87948:	6f20           	ble.s 0xf8796a
  f8794a:	3d20           	move.w -(a0),-(a6)
  f8794c:	6f63           	ble.s 0xf879b1
  f8794e:	7420           	moveq #32,d2
  f87950:	2831 3620      	move.l (32,a1,d3.w*8),d4
  f87954:	6279           	bhi.s 0xf879cf
  f87956:	7465           	moveq #101,d2
  f87958:	7329           	.short 0x7329
  f8795a:	0a20 2020      	eori.b #32,-(a0)
  f8795e:	6820           	bvc.s 0xf87980
  f87960:	3d20           	move.w -(a0),-(a6)
  f87962:	6865           	bvc.s 0xf879c9
  f87964:	7820           	moveq #32,d4
  f87966:	2833 3220      	move.l (32,a3,d3.w*2),d4
  f8796a:	6279           	bhi.s 0xf879e5
  f8796c:	7465           	moveq #101,d2
  f8796e:	7329           	.short 0x7329
  f87970:	0a20 2020      	eori.b #32,-(a0)
  f87974:	3c6c 656e      	movea.w 25966(a4),a6
  f87978:	3e20           	move.w -(a0),d7
  f8797a:	6973           	bvs.s 0xf879ef
  f8797c:	2074 6865      	movea.l (101,a4,d6.l),a0
  f87980:	206c 656e      	movea.l 25966(a4),a0
  f87984:	6774           	beq.s 0xf879fa
  f87986:	6820           	bvc.s 0xf879a8
  f87988:	746f           	moveq #111,d2
  f8798a:	2074 6573 7420 	movea.l ([1948281198,a4],543324532),a0
  f87990:	696e 2062 7974 
  f87996:	6573           	bcs.s 0xf87a0b
  f87998:	0a20 2020      	eori.b #32,-(a0)
  f8799c:	3c6d 6f64      	movea.w 28516(a5),a6
  f879a0:	653e           	bcs.s 0xf879e0
  f879a2:	206d 6179      	movea.l 24953(a5),a0
  f879a6:	2062           	movea.l -(a2),a0
  f879a8:	6520           	bcs.s 0xf879ca
  f879aa:	6f6e           	ble.s 0xf87a1a
  f879ac:	652c           	bcs.s 0xf879da
  f879ae:	207a 6572      	movea.l 0xf8df22(pc),a0
  f879b2:	6f2c           	ble.s 0xf879e0
  f879b4:	2072 616e 642c 	movea.l ([25644,a2],8311),a0
  f879ba:	2077 
  f879bc:	616c           	bsr.s 0xf87a2a
  f879be:	6b30           	bmi.s 0xf879f0
  f879c0:	2c20           	move.l -(a0),d6
  f879c2:	7761           	.short 0x7761
  f879c4:	6c6b           	bge.s 0xf87a31
  f879c6:	312c 2072      	move.w 8306(a4),-(a0)
  f879ca:	6561           	bcs.s 0xf87a2d
  f879cc:	642c           	bcc.s 0xf879fa
  f879ce:	206f 7220      	movea.l 29216(sp),a0
  f879d2:	3c76 616c 7565 	movea.w ([30053,a6],0),a6
  f879d8:	3e0a           	move.w a2,d7
  f879da:	2020           	move.l -(a0),d0
  f879dc:	203c 703e 2069 	move.l #1883119721,d0
  f879e2:	7320           	.short 0x7320
  f879e4:	7468           	moveq #104,d2
  f879e6:	6520           	bcs.s 0xf87a08
  f879e8:	6e75           	bgt.s 0xf87a5f
  f879ea:	6d62           	blt.s 0xf87a4e
  f879ec:	6572           	bcs.s 0xf87a60
  f879ee:	206f 6620      	movea.l 26144(sp),a0
  f879f2:	7465           	moveq #101,d2
  f879f4:	7374           	.short 0x7374
  f879f6:	2070 6173 7365 	movea.l ([1936028448,a0],677668198),a0
  f879fc:	7320 2864 6566 
  f87a02:	6175           	bsr.s 0xf87a79
  f87a04:	6c74           	bge.s 0xf87a7a
  f87a06:	3a20           	move.w -(a0),d5
  f87a08:	3129 003c      	move.w 60(a1),-(a0)
  f87a0c:	7061           	moveq #97,d0
  f87a0e:	7474           	moveq #116,d2
  f87a10:	6572           	bcs.s 0xf87a84
  f87a12:	6e3e           	bgt.s 0xf87a52
  f87a14:	206d 6179      	movea.l 24953(a5),a0
  f87a18:	2062           	movea.l -(a2),a0
  f87a1a:	6520           	bcs.s 0xf87a3c
  f87a1c:	6f6e           	ble.s 0xf87a8c
  f87a1e:	652c           	bcs.s 0xf87a4c
  f87a20:	207a 6572      	movea.l 0xf8df94(pc),a0
  f87a24:	6f2c           	ble.s 0xf87a52
  f87a26:	2062           	movea.l -(a2),a0
  f87a28:	6c69           	bge.s 0xf87a93
  f87a2a:	702c           	moveq #44,d0
  f87a2c:	2072 616e 642c 	movea.l ([25644,a2],8307),a0
  f87a32:	2073 
  f87a34:	7472           	moveq #114,d2
  f87a36:	6f62           	ble.s 0xf87a9a
  f87a38:	652c           	bcs.s 0xf87a66
  f87a3a:	2077 616c 6b30 	movea.l ([27440,sp],0),a0
  f87a40:	2c20           	move.l -(a0),d6
  f87a42:	7761           	.short 0x7761
  f87a44:	6c6b           	bge.s 0xf87ab1
  f87a46:	312c 2061      	move.w 8289(a4),-(a0)
  f87a4a:	6464           	bcc.s 0xf87ab0
  f87a4c:	722c           	moveq #44,d1
  f87a4e:	206f 7220      	movea.l 29216(sp),a0
  f87a52:	6120           	bsr.s 0xf87a74
  f87a54:	7661           	moveq #97,d3
  f87a56:	6c75           	bge.s 0xf87acd
  f87a58:	650a           	bcs.s 0xf87a64
  f87a5a:	0070 6174 745b 	ori.w #24948,(91,a0,d7.w*4)
  f87a60:	6277           	bhi.s 0xf87ad9
  f87a62:	6c71           	bge.s 0xf87ad5
  f87a64:	6f68           	ble.s 0xf87ace
  f87a66:	5d20           	subq.b #6,-(a0)
  f87a68:	3c61           	movea.w -(a1),a6
  f87a6a:	6464           	bcc.s 0xf87ad0
  f87a6c:	723e           	moveq #62,d1
  f87a6e:	203c 6c65 6e3e 	move.l #1818586686,d0
  f87a74:	203c 7061 7474 	move.l #1885434996,d0
  f87a7a:	6572           	bcs.s 0xf87aee
  f87a7c:	6e3e           	bgt.s 0xf87abc
  f87a7e:	0a20 2020      	eori.b #32,-(a0)
  f87a82:	6220           	bhi.s 0xf87aa4
  f87a84:	3d20           	move.w -(a0),-(a6)
  f87a86:	3120           	move.w -(a0),-(a0)
  f87a88:	6279           	bhi.s 0xf87b03
  f87a8a:	7465           	moveq #101,d2
  f87a8c:	0a20 2020      	eori.b #32,-(a0)
  f87a90:	7720           	.short 0x7720
  f87a92:	3d20           	move.w -(a0),-(a6)
  f87a94:	776f           	.short 0x776f
  f87a96:	7264           	moveq #100,d1
  f87a98:	2028 3220      	move.l 12832(a0),d0
  f87a9c:	6279           	bhi.s 0xf87b17
  f87a9e:	7465           	moveq #101,d2
  f87aa0:	7329           	.short 0x7329
  f87aa2:	0a20 2020      	eori.b #32,-(a0)
  f87aa6:	6c20           	bge.s 0xf87ac8
  f87aa8:	3d20           	move.w -(a0),-(a6)
  f87aaa:	6c6f           	bge.s 0xf87b1b
  f87aac:	6e67           	bgt.s 0xf87b15
  f87aae:	2028 3420      	move.l 13344(a0),d0
  f87ab2:	6279           	bhi.s 0xf87b2d
  f87ab4:	7465           	moveq #101,d2
  f87ab6:	7329           	.short 0x7329
  f87ab8:	0a20 2020      	eori.b #32,-(a0)
  f87abc:	7120           	.short 0x7120
  f87abe:	3d20           	move.w -(a0),-(a6)
  f87ac0:	7175           	.short 0x7175
  f87ac2:	6164           	bsr.s 0xf87b28
  f87ac4:	2028 3820      	move.l 14368(a0),d0
  f87ac8:	6279           	bhi.s 0xf87b43
  f87aca:	7465           	moveq #101,d2
  f87acc:	7329           	.short 0x7329
  f87ace:	0a20 2020      	eori.b #32,-(a0)
  f87ad2:	6f20           	ble.s 0xf87af4
  f87ad4:	3d20           	move.w -(a0),-(a6)
  f87ad6:	6f63           	ble.s 0xf87b3b
  f87ad8:	7420           	moveq #32,d2
  f87ada:	2831 3620      	move.l (32,a1,d3.w*8),d4
  f87ade:	6279           	bhi.s 0xf87b59
  f87ae0:	7465           	moveq #101,d2
  f87ae2:	7329           	.short 0x7329
  f87ae4:	0a20 2020      	eori.b #32,-(a0)
  f87ae8:	6820           	bvc.s 0xf87b0a
  f87aea:	3d20           	move.w -(a0),-(a6)
  f87aec:	6865           	bvc.s 0xf87b53
  f87aee:	7820           	moveq #32,d4
  f87af0:	2833 3220      	move.l (32,a3,d3.w*2),d4
  f87af4:	6279           	bhi.s 0xf87b6f
  f87af6:	7465           	moveq #101,d2
  f87af8:	7329           	.short 0x7329
  f87afa:	0a20 2020      	eori.b #32,-(a0)
  f87afe:	5320           	subq.b #1,-(a0)
  f87b00:	3d20           	move.w -(a0),-(a6)
  f87b02:	7377           	.short 0x7377
  f87b04:	6170           	bsr.s 0xf87b76
  f87b06:	2062           	movea.l -(a2),a0
  f87b08:	7974           	.short 0x7974
  f87b0a:	6573           	bcs.s 0xf87b7f
  f87b0c:	2028 656e      	move.l 25966(a0),d0
  f87b10:	6469           	bcc.s 0xf87b7b
  f87b12:	616e           	bsr.s 0xf87b82
  f87b14:	290a           	move.l a2,-(a4)
  f87b16:	2020           	move.l -(a0),d0
  f87b18:	203c 6c65 6e3e 	move.l #1818586686,d0
  f87b1e:	2069 7320      	movea.l 29472(a1),a0
  f87b22:	7468           	moveq #104,d2
  f87b24:	6520           	bcs.s 0xf87b46
  f87b26:	6c65           	bge.s 0xf87b8d
  f87b28:	6e67           	bgt.s 0xf87b91
  f87b2a:	7468           	moveq #104,d2
  f87b2c:	206f 6620      	movea.l 26144(sp),a0
  f87b30:	7468           	moveq #104,d2
  f87b32:	6520           	bcs.s 0xf87b54
  f87b34:	6172           	bsr.s 0xf87ba8
  f87b36:	6561           	bcs.s 0xf87b99
  f87b38:	2069 6e20      	movea.l 28192(a1),a0
  f87b3c:	6279           	bhi.s 0xf87bb7
  f87b3e:	7465           	moveq #101,d2
  f87b40:	730a           	.short 0x730a
  f87b42:	2020           	move.l -(a0),d0
  f87b44:	203c 7061 7474 	move.l #1885434996,d0
  f87b4a:	6572           	bcs.s 0xf87bbe
  f87b4c:	6e3e           	bgt.s 0xf87b8c
  f87b4e:	206d 6179      	movea.l 24953(a5),a0
  f87b52:	2062           	movea.l -(a2),a0
  f87b54:	6520           	bcs.s 0xf87b76
  f87b56:	6f6e           	ble.s 0xf87bc6
  f87b58:	652c           	bcs.s 0xf87b86
  f87b5a:	207a 6572      	movea.l 0xf8e0ce(pc),a0
  f87b5e:	6f2c           	ble.s 0xf87b8c
  f87b60:	2062           	movea.l -(a2),a0
  f87b62:	6c69           	bge.s 0xf87bcd
  f87b64:	702c           	moveq #44,d0
  f87b66:	2072 616e 642c 	movea.l ([25644,a2],8307),a0
  f87b6c:	2073 
  f87b6e:	7472           	moveq #114,d2
  f87b70:	6f62           	ble.s 0xf87bd4
  f87b72:	652c           	bcs.s 0xf87ba0
  f87b74:	2077 616c 6b30 	movea.l ([27440,sp],0),a0
  f87b7a:	2c20           	move.l -(a0),d6
  f87b7c:	7761           	.short 0x7761
  f87b7e:	6c6b           	bge.s 0xf87beb
  f87b80:	312c 2061      	move.w 8289(a4),-(a0)
  f87b84:	6464           	bcc.s 0xf87bea
  f87b86:	722c           	moveq #44,d1
  f87b88:	206f 7220      	movea.l 29216(sp),a0
  f87b8c:	6120           	bsr.s 0xf87bae
  f87b8e:	2020           	move.l -(a0),d0
  f87b90:	2020           	move.l -(a0),d0
  f87b92:	2020           	move.l -(a0),d0
  f87b94:	2020           	move.l -(a0),d0
  f87b96:	2020           	move.l -(a0),d0
  f87b98:	2020           	move.l -(a0),d0
  f87b9a:	2073 7065      	movea.l (101,a3,d7.w),a0
  f87b9e:	6369           	bls.s 0xf87c09
  f87ba0:	6669           	bne.s 0xf87c0b
  f87ba2:	6320           	bls.s 0xf87bc4
  f87ba4:	7661           	moveq #97,d3
  f87ba6:	6c75           	bge.s 0xf87c1d
  f87ba8:	650a           	bcs.s 0xf87bb4
  f87baa:	0064 5b62      	ori.w #23394,-(a4)
  f87bae:	776c           	.short 0x776c
  f87bb0:	716f           	.short 0x716f
  f87bb2:	685d           	bvc.s 0xf87c11
  f87bb4:	203c 6164 6472 	move.l #1633969266,d0
  f87bba:	3e20           	move.w -(a0),d7
  f87bbc:	5b3c           	.short 0x5b3c
  f87bbe:	6c65           	bge.s 0xf87c25
  f87bc0:	6e3e           	bgt.s 0xf87c00
  f87bc2:	5d0a           	sub.b #6,a2
  f87bc4:	2020           	move.l -(a0),d0
  f87bc6:	2062           	movea.l -(a2),a0
  f87bc8:	203d           	.short 0x203d
  f87bca:	2031 2062      	move.l (98,a1,d2.w),d0
  f87bce:	7974           	.short 0x7974
  f87bd0:	650a           	bcs.s 0xf87bdc
  f87bd2:	2020           	move.l -(a0),d0
  f87bd4:	2077 203d      	movea.l (61,sp,d2.w),a0
  f87bd8:	2077 6f72 6420 	movea.l ([1679829042,sp],8290),a0
  f87bde:	2832 2062 
  f87be2:	7974           	.short 0x7974
  f87be4:	6573           	bcs.s 0xf87c59
  f87be6:	290a           	move.l a2,-(a4)
  f87be8:	2020           	move.l -(a0),d0
  f87bea:	206c 203d      	movea.l 8253(a4),a0
  f87bee:	206c 6f6e      	movea.l 28526(a4),a0
  f87bf2:	6720           	beq.s 0xf87c14
  f87bf4:	2834 2062      	move.l (98,a4,d2.w),d4
  f87bf8:	7974           	.short 0x7974
  f87bfa:	6573           	bcs.s 0xf87c6f
  f87bfc:	290a           	move.l a2,-(a4)
  f87bfe:	2020           	move.l -(a0),d0
  f87c00:	2071 203d      	movea.l (61,a1,d2.w),a0
  f87c04:	2071 7561 6420 	movea.l ([25632,a1],0),a0
  f87c0a:	2838 2062      	move.l 0x2062,d4
  f87c0e:	7974           	.short 0x7974
  f87c10:	6573           	bcs.s 0xf87c85
  f87c12:	290a           	move.l a2,-(a4)
  f87c14:	2020           	move.l -(a0),d0
  f87c16:	206f 203d      	movea.l 8253(sp),a0
  f87c1a:	206f 6374      	movea.l 25460(sp),a0
  f87c1e:	2028 3136      	move.l 12598(a0),d0
  f87c22:	2062           	movea.l -(a2),a0
  f87c24:	7974           	.short 0x7974
  f87c26:	6573           	bcs.s 0xf87c9b
  f87c28:	290a           	move.l a2,-(a4)
  f87c2a:	2020           	move.l -(a0),d0
  f87c2c:	2068 203d      	movea.l 8253(a0),a0
  f87c30:	2068 6578      	movea.l 25976(a0),a0
  f87c34:	2028 3332      	move.l 13106(a0),d0
  f87c38:	2062           	movea.l -(a2),a0
  f87c3a:	7974           	.short 0x7974
  f87c3c:	6573           	bcs.s 0xf87cb1
  f87c3e:	290a           	move.l a2,-(a4)
  f87c40:	2020           	move.l -(a0),d0
  f87c42:	2041           	movea.l d1,a0
  f87c44:	203d           	.short 0x203d
  f87c46:	206e 6f20      	movea.l 28448(a6),a0
  f87c4a:	4153           	.short 0x4153
  f87c4c:	4349           	.short 0x4349
  f87c4e:	490a           	.short 0x490a
  f87c50:	2020           	move.l -(a0),d0
  f87c52:	204e           	movea.l a6,a0
  f87c54:	203d           	.short 0x203d
  f87c56:	206e 6f20      	movea.l 28448(a6),a0
  f87c5a:	6f75           	ble.s 0xf87cd1
  f87c5c:	7470           	moveq #112,d2
  f87c5e:	7574           	.short 0x7574
  f87c60:	2028 6f6e      	move.l 28526(a0),d0
  f87c64:	6c79           	bge.s 0xf87cdf
  f87c66:	2070 6572 666f 	movea.l ([1718579821,a0],8306),a0
  f87c6c:	726d 2072 
  f87c70:	6561           	bcs.s 0xf87cd3
  f87c72:	6429           	bcc.s 0xf87c9d
  f87c74:	0a20 2020      	eori.b #32,-(a0)
  f87c78:	5220           	addq.b #1,-(a0)
  f87c7a:	3d20           	move.w -(a0),-(a6)
  f87c7c:	7261           	moveq #97,d1
  f87c7e:	7720           	.short 0x7720
  f87c80:	6f75           	ble.s 0xf87cf7
  f87c82:	7470           	moveq #112,d2
  f87c84:	7574           	.short 0x7574
  f87c86:	2028 6e6f      	move.l 28271(a0),d0
  f87c8a:	2061           	movea.l -(a1),a0
  f87c8c:	6464           	bcc.s 0xf87cf2
  f87c8e:	7265           	moveq #101,d1
  f87c90:	7373           	.short 0x7373
  f87c92:	206f 7220      	movea.l 29216(sp),a0
  f87c96:	4153           	.short 0x4153
  f87c98:	4349           	.short 0x4349
  f87c9a:	4920           	chk.l -(a0),d4
  f87c9c:	6f75           	ble.s 0xf87d13
  f87c9e:	7470           	moveq #112,d2
  f87ca0:	7574           	.short 0x7574
  f87ca2:	290a           	move.l a2,-(a4)
  f87ca4:	2020           	move.l -(a0),d0
  f87ca6:	2053           	movea.l (a3),a0
  f87ca8:	203d           	.short 0x203d
  f87caa:	2073 7761 7020 	movea.l ([28704,a3],0),a0
  f87cb0:	6279           	bhi.s 0xf87d2b
  f87cb2:	7465           	moveq #101,d2
  f87cb4:	7320           	.short 0x7320
  f87cb6:	2865           	movea.l -(a5),a4
  f87cb8:	6e64           	bgt.s 0xf87d1e
  f87cba:	6961           	bvs.s 0xf87d1d
  f87cbc:	6e29           	bgt.s 0xf87ce7
  f87cbe:	0a20 2053      	eori.b #83,-(a0)
  f87cc2:	5320           	subq.b #1,-(a0)
  f87cc4:	3d20           	move.w -(a0),-(a6)
  f87cc6:	7377           	.short 0x7377
  f87cc8:	6170           	bsr.s 0xf87d3a
  f87cca:	2041           	movea.l d1,a0
  f87ccc:	5343           	subq.w #1,d3
  f87cce:	4949           	.short 0x4949
  f87cd0:	2064           	movea.l -(a4),a0
  f87cd2:	6973           	bvs.s 0xf87d47
  f87cd4:	706c           	moveq #108,d0
  f87cd6:	6179           	bsr.s 0xf87d51
  f87cd8:	2028 656e      	move.l 25966(a0),d0
  f87cdc:	6469           	bcc.s 0xf87d47
  f87cde:	616e           	bsr.s 0xf87d4e
  f87ce0:	2900           	move.l d0,-(a4)
  f87ce2:	636f           	bls.s 0xf87d53
  f87ce4:	7079           	moveq #121,d0
  f87ce6:	5b62           	subq.w #5,-(a2)
  f87ce8:	776c           	.short 0x776c
  f87cea:	716f           	.short 0x716f
  f87cec:	685d           	bvc.s 0xf87d4b
  f87cee:	203c 7361 6464 	move.l #1935762532,d0
  f87cf4:	723e           	moveq #62,d1
  f87cf6:	203c 6461 6464 	move.l #1684104292,d0
  f87cfc:	723e           	moveq #62,d1
  f87cfe:	203c 6c65 6e3e 	move.l #1818586686,d0
  f87d04:	0a20 2020      	eori.b #32,-(a0)
  f87d08:	6220           	bhi.s 0xf87d2a
  f87d0a:	3d20           	move.w -(a0),-(a6)
  f87d0c:	3120           	move.w -(a0),-(a0)
  f87d0e:	6279           	bhi.s 0xf87d89
  f87d10:	7465           	moveq #101,d2
  f87d12:	0a20 2020      	eori.b #32,-(a0)
  f87d16:	7720           	.short 0x7720
  f87d18:	3d20           	move.w -(a0),-(a6)
  f87d1a:	776f           	.short 0x776f
  f87d1c:	7264           	moveq #100,d1
  f87d1e:	2028 3220      	move.l 12832(a0),d0
  f87d22:	6279           	bhi.s 0xf87d9d
  f87d24:	7465           	moveq #101,d2
  f87d26:	7329           	.short 0x7329
  f87d28:	0a20 2020      	eori.b #32,-(a0)
  f87d2c:	6c20           	bge.s 0xf87d4e
  f87d2e:	3d20           	move.w -(a0),-(a6)
  f87d30:	6c6f           	bge.s 0xf87da1
  f87d32:	6e67           	bgt.s 0xf87d9b
  f87d34:	2028 3420      	move.l 13344(a0),d0
  f87d38:	6279           	bhi.s 0xf87db3
  f87d3a:	7465           	moveq #101,d2
  f87d3c:	7329           	.short 0x7329
  f87d3e:	0a20 2020      	eori.b #32,-(a0)
  f87d42:	7120           	.short 0x7120
  f87d44:	3d20           	move.w -(a0),-(a6)
  f87d46:	7175           	.short 0x7175
  f87d48:	6164           	bsr.s 0xf87dae
  f87d4a:	2028 3820      	move.l 14368(a0),d0
  f87d4e:	6279           	bhi.s 0xf87dc9
  f87d50:	7465           	moveq #101,d2
  f87d52:	7329           	.short 0x7329
  f87d54:	0a20 2020      	eori.b #32,-(a0)
  f87d58:	6f20           	ble.s 0xf87d7a
  f87d5a:	3d20           	move.w -(a0),-(a6)
  f87d5c:	6f63           	ble.s 0xf87dc1
  f87d5e:	7420           	moveq #32,d2
  f87d60:	2831 3620      	move.l (32,a1,d3.w*8),d4
  f87d64:	6279           	bhi.s 0xf87ddf
  f87d66:	7465           	moveq #101,d2
  f87d68:	7329           	.short 0x7329
  f87d6a:	0a20 2020      	eori.b #32,-(a0)
  f87d6e:	6820           	bvc.s 0xf87d90
  f87d70:	3d20           	move.w -(a0),-(a6)
  f87d72:	6865           	bvc.s 0xf87dd9
  f87d74:	7820           	moveq #32,d4
  f87d76:	2833 3220      	move.l (32,a3,d3.w*2),d4
  f87d7a:	6279           	bhi.s 0xf87df5
  f87d7c:	7465           	moveq #101,d2
  f87d7e:	7329           	.short 0x7329
  f87d80:	0a00 636f      	eori.b #111,d0
  f87d84:	6d70           	blt.s 0xf87df6
  f87d86:	5b62           	subq.w #5,-(a2)
  f87d88:	776c           	.short 0x776c
  f87d8a:	716f           	.short 0x716f
  f87d8c:	685d           	bvc.s 0xf87deb
  f87d8e:	203c 6164 6472 	move.l #1633969266,d0
  f87d94:	3e20           	move.w -(a0),d7
  f87d96:	3c61           	movea.w -(a1),a6
  f87d98:	6464           	bcc.s 0xf87dfe
  f87d9a:	723e           	moveq #62,d1
  f87d9c:	203c 6c65 6e3e 	move.l #1818586686,d0
  f87da2:	0a20 2020      	eori.b #32,-(a0)
  f87da6:	6220           	bhi.s 0xf87dc8
  f87da8:	3d20           	move.w -(a0),-(a6)
  f87daa:	3120           	move.w -(a0),-(a0)
  f87dac:	6279           	bhi.s 0xf87e27
  f87dae:	7465           	moveq #101,d2
  f87db0:	0a20 2020      	eori.b #32,-(a0)
  f87db4:	7720           	.short 0x7720
  f87db6:	3d20           	move.w -(a0),-(a6)
  f87db8:	776f           	.short 0x776f
  f87dba:	7264           	moveq #100,d1
  f87dbc:	2028 3220      	move.l 12832(a0),d0
  f87dc0:	6279           	bhi.s 0xf87e3b
  f87dc2:	7465           	moveq #101,d2
  f87dc4:	7329           	.short 0x7329
  f87dc6:	0a20 2020      	eori.b #32,-(a0)
  f87dca:	6c20           	bge.s 0xf87dec
  f87dcc:	3d20           	move.w -(a0),-(a6)
  f87dce:	6c6f           	bge.s 0xf87e3f
  f87dd0:	6e67           	bgt.s 0xf87e39
  f87dd2:	2028 3420      	move.l 13344(a0),d0
  f87dd6:	6279           	bhi.s 0xf87e51
  f87dd8:	7465           	moveq #101,d2
  f87dda:	7329           	.short 0x7329
  f87ddc:	0a20 2020      	eori.b #32,-(a0)
  f87de0:	7120           	.short 0x7120
  f87de2:	3d20           	move.w -(a0),-(a6)
  f87de4:	7175           	.short 0x7175
  f87de6:	6164           	bsr.s 0xf87e4c
  f87de8:	2028 3820      	move.l 14368(a0),d0
  f87dec:	6279           	bhi.s 0xf87e67
  f87dee:	7465           	moveq #101,d2
  f87df0:	7329           	.short 0x7329
  f87df2:	0a20 2020      	eori.b #32,-(a0)
  f87df6:	6f20           	ble.s 0xf87e18
  f87df8:	3d20           	move.w -(a0),-(a6)
  f87dfa:	6f63           	ble.s 0xf87e5f
  f87dfc:	7420           	moveq #32,d2
  f87dfe:	2831 3620      	move.l (32,a1,d3.w*8),d4
  f87e02:	6279           	bhi.s 0xf87e7d
  f87e04:	7465           	moveq #101,d2
  f87e06:	7329           	.short 0x7329
  f87e08:	0a20 2020      	eori.b #32,-(a0)
  f87e0c:	6820           	bvc.s 0xf87e2e
  f87e0e:	3d20           	move.w -(a0),-(a6)
  f87e10:	6865           	bvc.s 0xf87e77
  f87e12:	7820           	moveq #32,d4
  f87e14:	2833 3220      	move.l (32,a3,d3.w*2),d4
  f87e18:	6279           	bhi.s 0xf87e93
  f87e1a:	7465           	moveq #101,d2
  f87e1c:	7329           	.short 0x7329
  f87e1e:	0a00 635b      	eori.b #91,d0
  f87e22:	6277           	bhi.s 0xf87e9b
  f87e24:	6c71           	bge.s 0xf87e97
  f87e26:	6f68           	ble.s 0xf87e90
  f87e28:	5d20           	subq.b #6,-(a0)
  f87e2a:	3c61           	movea.w -(a1),a6
  f87e2c:	6464           	bcc.s 0xf87e92
  f87e2e:	723e           	moveq #62,d1
  f87e30:	203c 7661 6c75 	move.l #1986096245,d0
  f87e36:	652e           	bcs.s 0xf87e66
  f87e38:	2e2e 3e0a      	move.l 15882(a6),d7
  f87e3c:	2020           	move.l -(a0),d0
  f87e3e:	2062           	movea.l -(a2),a0
  f87e40:	203d           	.short 0x203d
  f87e42:	2031 2062      	move.l (98,a1,d2.w),d0
  f87e46:	7974           	.short 0x7974
  f87e48:	650a           	bcs.s 0xf87e54
  f87e4a:	2020           	move.l -(a0),d0
  f87e4c:	2077 203d      	movea.l (61,sp,d2.w),a0
  f87e50:	2077 6f72 6420 	movea.l ([1679829042,sp],8290),a0
  f87e56:	2832 2062 
  f87e5a:	7974           	.short 0x7974
  f87e5c:	6573           	bcs.s 0xf87ed1
  f87e5e:	290a           	move.l a2,-(a4)
  f87e60:	2020           	move.l -(a0),d0
  f87e62:	206c 203d      	movea.l 8253(a4),a0
  f87e66:	206c 6f6e      	movea.l 28526(a4),a0
  f87e6a:	6720           	beq.s 0xf87e8c
  f87e6c:	2834 2062      	move.l (98,a4,d2.w),d4
  f87e70:	7974           	.short 0x7974
  f87e72:	6573           	bcs.s 0xf87ee7
  f87e74:	290a           	move.l a2,-(a4)
  f87e76:	2020           	move.l -(a0),d0
  f87e78:	2071 203d      	movea.l (61,a1,d2.w),a0
  f87e7c:	2071 7561 6420 	movea.l ([25632,a1],0),a0
  f87e82:	2838 2062      	move.l 0x2062,d4
  f87e86:	7974           	.short 0x7974
  f87e88:	6573           	bcs.s 0xf87efd
  f87e8a:	290a           	move.l a2,-(a4)
  f87e8c:	2020           	move.l -(a0),d0
  f87e8e:	206f 203d      	movea.l 8253(sp),a0
  f87e92:	206f 6374      	movea.l 25460(sp),a0
  f87e96:	2028 3136      	move.l 12598(a0),d0
  f87e9a:	2062           	movea.l -(a2),a0
  f87e9c:	7974           	.short 0x7974
  f87e9e:	6573           	bcs.s 0xf87f13
  f87ea0:	290a           	move.l a2,-(a4)
  f87ea2:	2020           	move.l -(a0),d0
  f87ea4:	2068 203d      	movea.l 8253(a0),a0
  f87ea8:	2068 6578      	movea.l 25976(a0),a0
  f87eac:	2028 3332      	move.l 13106(a0),d0
  f87eb0:	2062           	movea.l -(a2),a0
  f87eb2:	7974           	.short 0x7974
  f87eb4:	6573           	bcs.s 0xf87f29
  f87eb6:	290a           	move.l a2,-(a4)
  f87eb8:	2020           	move.l -(a0),d0
  f87eba:	2053           	movea.l (a3),a0
  f87ebc:	203d           	.short 0x203d
  f87ebe:	2073 7761 7020 	movea.l ([28704,a3],0),a0
  f87ec4:	6279           	bhi.s 0xf87f3f
  f87ec6:	7465           	moveq #101,d2
  f87ec8:	7320           	.short 0x7320
  f87eca:	2865           	movea.l -(a5),a4
  f87ecc:	6e64           	bgt.s 0xf87f32
  f87ece:	6961           	bvs.s 0xf87f31
  f87ed0:	6e29           	bgt.s 0xf87efb
  f87ed2:	0000 206f      	ori.b #111,d0
  f87ed6:	0008           	.short 0x0008
  f87ed8:	226f 0004      	movea.l 4(sp),a1
  f87edc:	4cd0 0003      	movem.l (a0),d0-d1
  f87ee0:	48d1 0003      	movem.l d0-d1,(a1)
  f87ee4:	4e75           	rts
  f87ee6:	206f 0008      	movea.l 8(sp),a0
  f87eea:	226f 0004      	movea.l 4(sp),a1
  f87eee:	48e7 3000      	movem.l d2-d3,-(sp)
  f87ef2:	4cd0 000f      	movem.l (a0),d0-d3
  f87ef6:	48d1 000f      	movem.l d0-d3,(a1)
  f87efa:	4cdf 000c      	movem.l (sp)+,d2-d3
  f87efe:	4e75           	rts
  f87f00:	206f 0008      	movea.l 8(sp),a0
  f87f04:	226f 0004      	movea.l 4(sp),a1
  f87f08:	48e7 3f00      	movem.l d2-d7,-(sp)
  f87f0c:	4cd0 00ff      	movem.l (a0),d0-d7
  f87f10:	48d1 00ff      	movem.l d0-d7,(a1)
  f87f14:	4cdf 00fc      	movem.l (sp)+,d2-d7
  f87f18:	4e75           	rts
  f87f1a:	4fef fff0      	lea -16(sp),sp
  f87f1e:	48e7 3f26      	movem.l d2-d7/a2/a5-a6,-(sp)
  f87f22:	242f 0038      	move.l 56(sp),d2
  f87f26:	262f 003c      	move.l 60(sp),d3
  f87f2a:	2a6f 0040      	movea.l 64(sp),a5
  f87f2e:	246f 0044      	movea.l 68(sp),a2
  f87f32:	197c 0001 9102 	move.b #1,-28414(a4)
  f87f38:	2c4c           	movea.l a4,a6
  f87f3a:	ddfc ffff 90fe 	adda.l #-28418,a6
  f87f40:	4296           	clr.l (a6)
  f87f42:	4a8d           	tst.l a5
  f87f44:	6616           	bne.s 0xf87f5c
  f87f46:	422c 9102      	clr.b -28414(a4)
  f87f4a:	2016           	move.l (a6),d0
  f87f4c:	56c0           	sne d0
  f87f4e:	49c0           	extb.l d0
  f87f50:	4480           	neg.l d0
  f87f52:	4cdf 64fc      	movem.l (sp)+,d2-d7/a2/a5-a6
  f87f56:	4fef 0010      	lea 16(sp),sp
  f87f5a:	4e75           	rts
  f87f5c:	42af 0024      	clr.l 36(sp)
  f87f60:	7001           	moveq #1,d0
  f87f62:	c083           	and.l d3,d0
  f87f64:	2f40 0028      	move.l d0,40(sp)
  f87f68:	222f 0024      	move.l 36(sp),d1
  f87f6c:	82af 0028      	or.l 40(sp),d1
  f87f70:	666e           	bne.s 0xf87fe0
  f87f72:	7002           	moveq #2,d0
  f87f74:	b08d           	cmp.l a5,d0
  f87f76:	6516           	bcs.s 0xf87f8e
  f87f78:	7201           	moveq #1,d1
  f87f7a:	b28d           	cmp.l a5,d1
  f87f7c:	6762           	beq.s 0xf87fe0
  f87f7e:	200d           	move.l a5,d0
  f87f80:	5580           	subq.l #2,d0
  f87f82:	e288           	lsr.l #1,d0
  f87f84:	6770           	beq.s 0xf87ff6
  f87f86:	2043           	movea.l d3,a0
  f87f88:	2490           	move.l (a0),(a2)
  f87f8a:	7004           	moveq #4,d0
  f87f8c:	6058           	bra.s 0xf87fe6
  f87f8e:	42af 002c      	clr.l 44(sp)
  f87f92:	7002           	moveq #2,d0
  f87f94:	c083           	and.l d3,d0
  f87f96:	2f40 0030      	move.l d0,48(sp)
  f87f9a:	222f 002c      	move.l 44(sp),d1
  f87f9e:	82af 0030      	or.l 48(sp),d1
  f87fa2:	6652           	bne.s 0xf87ff6
  f87fa4:	7004           	moveq #4,d0
  f87fa6:	b08d           	cmp.l a5,d0
  f87fa8:	64d4           	bcc.s 0xf87f7e
  f87faa:	4284           	clr.l d4
  f87fac:	7a04           	moveq #4,d5
  f87fae:	ca83           	and.l d3,d5
  f87fb0:	2204           	move.l d4,d1
  f87fb2:	8285           	or.l d5,d1
  f87fb4:	66d0           	bne.s 0xf87f86
  f87fb6:	2003           	move.l d3,d0
  f87fb8:	7208           	moveq #8,d1
  f87fba:	b28d           	cmp.l a5,d1
  f87fbc:	6740           	beq.s 0xf87ffe
  f87fbe:	7208           	moveq #8,d1
  f87fc0:	b28d           	cmp.l a5,d1
  f87fc2:	64ba           	bcc.s 0xf87f7e
  f87fc4:	7210           	moveq #16,d1
  f87fc6:	b28d           	cmp.l a5,d1
  f87fc8:	6744           	beq.s 0xf8800e
  f87fca:	7220           	moveq #32,d1
  f87fcc:	b28d           	cmp.l a5,d1
  f87fce:	66b6           	bne.s 0xf87f86
  f87fd0:	2f00           	move.l d0,-(sp)
  f87fd2:	2f0a           	move.l a2,-(sp)
  f87fd4:	61ff ffff ff2a 	bsr.l 0xf87f00
  f87fda:	508f           	addq.l #8,sp
  f87fdc:	7020           	moveq #32,d0
  f87fde:	6006           	bra.s 0xf87fe6
  f87fe0:	2043           	movea.l d3,a0
  f87fe2:	1490           	move.b (a0),(a2)
  f87fe4:	7001           	moveq #1,d0
  f87fe6:	d5c0           	adda.l d0,a2
  f87fe8:	2e00           	move.l d0,d7
  f87fea:	4286           	clr.l d6
  f87fec:	d687           	add.l d7,d3
  f87fee:	d586           	addx.l d6,d2
  f87ff0:	9bc0           	suba.l d0,a5
  f87ff2:	6000 ff4e      	bra.w 0xf87f42
  f87ff6:	2043           	movea.l d3,a0
  f87ff8:	3490           	move.w (a0),(a2)
  f87ffa:	7002           	moveq #2,d0
  f87ffc:	60e8           	bra.s 0xf87fe6
  f87ffe:	2f03           	move.l d3,-(sp)
  f88000:	2f0a           	move.l a2,-(sp)
  f88002:	61ff ffff fed0 	bsr.l 0xf87ed4
  f88008:	508f           	addq.l #8,sp
  f8800a:	7008           	moveq #8,d0
  f8800c:	60d8           	bra.s 0xf87fe6
  f8800e:	2f03           	move.l d3,-(sp)
  f88010:	2f0a           	move.l a2,-(sp)
  f88012:	61ff ffff fed2 	bsr.l 0xf87ee6
  f88018:	508f           	addq.l #8,sp
  f8801a:	7010           	moveq #16,d0
  f8801c:	60c8           	bra.s 0xf87fe6
  f8801e:	4fef fff0      	lea -16(sp),sp
  f88022:	48e7 3f26      	movem.l d2-d7/a2/a5-a6,-(sp)
  f88026:	242f 0038      	move.l 56(sp),d2
  f8802a:	262f 003c      	move.l 60(sp),d3
  f8802e:	2a6f 0040      	movea.l 64(sp),a5
  f88032:	246f 0044      	movea.l 68(sp),a2
  f88036:	197c 0001 9102 	move.b #1,-28414(a4)
  f8803c:	2c4c           	movea.l a4,a6
  f8803e:	ddfc ffff 90fe 	adda.l #-28418,a6
  f88044:	4296           	clr.l (a6)
  f88046:	4a8d           	tst.l a5
  f88048:	6616           	bne.s 0xf88060
  f8804a:	422c 9102      	clr.b -28414(a4)
  f8804e:	2016           	move.l (a6),d0
  f88050:	56c0           	sne d0
  f88052:	49c0           	extb.l d0
  f88054:	4480           	neg.l d0
  f88056:	4cdf 64fc      	movem.l (sp)+,d2-d7/a2/a5-a6
  f8805a:	4fef 0010      	lea 16(sp),sp
  f8805e:	4e75           	rts
  f88060:	42af 0024      	clr.l 36(sp)
  f88064:	7001           	moveq #1,d0
  f88066:	c083           	and.l d3,d0
  f88068:	2f40 0028      	move.l d0,40(sp)
  f8806c:	222f 0024      	move.l 36(sp),d1
  f88070:	82af 0028      	or.l 40(sp),d1
  f88074:	666e           	bne.s 0xf880e4
  f88076:	7002           	moveq #2,d0
  f88078:	b08d           	cmp.l a5,d0
  f8807a:	6516           	bcs.s 0xf88092
  f8807c:	7201           	moveq #1,d1
  f8807e:	b28d           	cmp.l a5,d1
  f88080:	6762           	beq.s 0xf880e4
  f88082:	200d           	move.l a5,d0
  f88084:	5580           	subq.l #2,d0
  f88086:	e288           	lsr.l #1,d0
  f88088:	6770           	beq.s 0xf880fa
  f8808a:	2043           	movea.l d3,a0
  f8808c:	2092           	move.l (a2),(a0)
  f8808e:	7004           	moveq #4,d0
  f88090:	6058           	bra.s 0xf880ea
  f88092:	42af 002c      	clr.l 44(sp)
  f88096:	7002           	moveq #2,d0
  f88098:	c083           	and.l d3,d0
  f8809a:	2f40 0030      	move.l d0,48(sp)
  f8809e:	222f 002c      	move.l 44(sp),d1
  f880a2:	82af 0030      	or.l 48(sp),d1
  f880a6:	6652           	bne.s 0xf880fa
  f880a8:	7004           	moveq #4,d0
  f880aa:	b08d           	cmp.l a5,d0
  f880ac:	64d4           	bcc.s 0xf88082
  f880ae:	4284           	clr.l d4
  f880b0:	7a04           	moveq #4,d5
  f880b2:	ca83           	and.l d3,d5
  f880b4:	2204           	move.l d4,d1
  f880b6:	8285           	or.l d5,d1
  f880b8:	66d0           	bne.s 0xf8808a
  f880ba:	2003           	move.l d3,d0
  f880bc:	7208           	moveq #8,d1
  f880be:	b28d           	cmp.l a5,d1
  f880c0:	6740           	beq.s 0xf88102
  f880c2:	7208           	moveq #8,d1
  f880c4:	b28d           	cmp.l a5,d1
  f880c6:	64ba           	bcc.s 0xf88082
  f880c8:	7210           	moveq #16,d1
  f880ca:	b28d           	cmp.l a5,d1
  f880cc:	6744           	beq.s 0xf88112
  f880ce:	7220           	moveq #32,d1
  f880d0:	b28d           	cmp.l a5,d1
  f880d2:	66b6           	bne.s 0xf8808a
  f880d4:	2f0a           	move.l a2,-(sp)
  f880d6:	2f00           	move.l d0,-(sp)
  f880d8:	61ff ffff fe26 	bsr.l 0xf87f00
  f880de:	508f           	addq.l #8,sp
  f880e0:	7020           	moveq #32,d0
  f880e2:	6006           	bra.s 0xf880ea
  f880e4:	2043           	movea.l d3,a0
  f880e6:	1092           	move.b (a2),(a0)
  f880e8:	7001           	moveq #1,d0
  f880ea:	d5c0           	adda.l d0,a2
  f880ec:	2e00           	move.l d0,d7
  f880ee:	4286           	clr.l d6
  f880f0:	d687           	add.l d7,d3
  f880f2:	d586           	addx.l d6,d2
  f880f4:	9bc0           	suba.l d0,a5
  f880f6:	6000 ff4e      	bra.w 0xf88046
  f880fa:	2043           	movea.l d3,a0
  f880fc:	3092           	move.w (a2),(a0)
  f880fe:	7002           	moveq #2,d0
  f88100:	60e8           	bra.s 0xf880ea
  f88102:	2f0a           	move.l a2,-(sp)
  f88104:	2f03           	move.l d3,-(sp)
  f88106:	61ff ffff fdcc 	bsr.l 0xf87ed4
  f8810c:	508f           	addq.l #8,sp
  f8810e:	7008           	moveq #8,d0
  f88110:	60d8           	bra.s 0xf880ea
  f88112:	2f0a           	move.l a2,-(sp)
  f88114:	2f03           	move.l d3,-(sp)
  f88116:	61ff ffff fdce 	bsr.l 0xf87ee6
  f8811c:	508f           	addq.l #8,sp
  f8811e:	7010           	moveq #16,d0
  f88120:	60c8           	bra.s 0xf880ea
  f88122:	0000 2f02      	ori.b #2,d0
  f88126:	202f 0008      	move.l 8(sp),d0
  f8812a:	222f 000c      	move.l 12(sp),d1
  f8812e:	242f 0010      	move.l 16(sp),d2
  f88132:	d2af 0014      	add.l 20(sp),d1
  f88136:	d182           	addx.l d2,d0
  f88138:	241f           	move.l (sp)+,d2
  f8813a:	4e75           	rts
  f8813c:	2f02           	move.l d2,-(sp)
  f8813e:	202f 0008      	move.l 8(sp),d0
  f88142:	222f 000c      	move.l 12(sp),d1
  f88146:	242f 0010      	move.l 16(sp),d2
  f8814a:	92af 0014      	sub.l 20(sp),d1
  f8814e:	9182           	subx.l d2,d0
  f88150:	241f           	move.l (sp)+,d2
  f88152:	4e75           	rts
  f88154:	2f2f 0010      	move.l 16(sp),-(sp)
  f88158:	2f2f 0010      	move.l 16(sp),-(sp)
  f8815c:	2f2f 0010      	move.l 16(sp),-(sp)
  f88160:	2f2f 0010      	move.l 16(sp),-(sp)
  f88164:	61ff 0000 20de 	bsr.l 0xf8a244
  f8816a:	4fef 0010      	lea 16(sp),sp
  f8816e:	4e75           	rts
  f88170:	202f 000c      	move.l 12(sp),d0
  f88174:	80af 0010      	or.l 16(sp),d0
  f88178:	671c           	beq.s 0xf88196
  f8817a:	2f2f 0010      	move.l 16(sp),-(sp)
  f8817e:	2f2f 0010      	move.l 16(sp),-(sp)
  f88182:	2f2f 0010      	move.l 16(sp),-(sp)
  f88186:	2f2f 0010      	move.l 16(sp),-(sp)
  f8818a:	61ff 0000 21a8 	bsr.l 0xf8a334
  f88190:	4fef 0010      	lea 16(sp),sp
  f88194:	4e75           	rts
  f88196:	70ff           	moveq #-1,d0
  f88198:	72ff           	moveq #-1,d1
  f8819a:	60f8           	bra.s 0xf88194
  f8819c:	2f02           	move.l d2,-(sp)
  f8819e:	202f 0008      	move.l 8(sp),d0
  f881a2:	222f 000c      	move.l 12(sp),d1
  f881a6:	242f 0010      	move.l 16(sp),d2
  f881aa:	84af 0014      	or.l 20(sp),d2
  f881ae:	671a           	beq.s 0xf881ca
  f881b0:	2f2f 0014      	move.l 20(sp),-(sp)
  f881b4:	2f2f 0014      	move.l 20(sp),-(sp)
  f881b8:	2f01           	move.l d1,-(sp)
  f881ba:	2f00           	move.l d0,-(sp)
  f881bc:	61ff 0000 26f6 	bsr.l 0xf8a8b4
  f881c2:	4fef 0010      	lea 16(sp),sp
  f881c6:	2240           	movea.l d0,a1
  f881c8:	2009           	move.l a1,d0
  f881ca:	241f           	move.l (sp)+,d2
  f881cc:	4e75           	rts
  f881ce:	202f 0004      	move.l 4(sp),d0
  f881d2:	c0af 000c      	and.l 12(sp),d0
  f881d6:	222f 0008      	move.l 8(sp),d1
  f881da:	c2af 0010      	and.l 16(sp),d1
  f881de:	4e75           	rts
  f881e0:	2f02           	move.l d2,-(sp)
  f881e2:	202f 0008      	move.l 8(sp),d0
  f881e6:	222f 0010      	move.l 16(sp),d1
  f881ea:	b380           	eor.l d1,d0
  f881ec:	222f 000c      	move.l 12(sp),d1
  f881f0:	242f 0014      	move.l 20(sp),d2
  f881f4:	b581           	eor.l d2,d1
  f881f6:	241f           	move.l (sp)+,d2
  f881f8:	4e75           	rts
  f881fa:	202f 0004      	move.l 4(sp),d0
  f881fe:	80af 000c      	or.l 12(sp),d0
  f88202:	222f 0008      	move.l 8(sp),d1
  f88206:	82af 0010      	or.l 16(sp),d1
  f8820a:	4e75           	rts
  f8820c:	4aaf 000c      	tst.l 12(sp)
  f88210:	6604           	bne.s 0xf88216
  f88212:	4aaf 0010      	tst.l 16(sp)
  f88216:	57c0           	seq d0
  f88218:	1200           	move.b d0,d1
  f8821a:	49c1           	extb.l d1
  f8821c:	5bc0           	smi d0
  f8821e:	49c0           	extb.l d0
  f88220:	4481           	neg.l d1
  f88222:	4080           	negx.l d0
  f88224:	4e75           	rts
  f88226:	202f 000c      	move.l 12(sp),d0
  f8822a:	4680           	not.l d0
  f8822c:	222f 0010      	move.l 16(sp),d1
  f88230:	4681           	not.l d1
  f88232:	4e75           	rts
  f88234:	2f2f 0010      	move.l 16(sp),-(sp)
  f88238:	2f2f 000c      	move.l 12(sp),-(sp)
  f8823c:	2f2f 000c      	move.l 12(sp),-(sp)
  f88240:	61ff 0000 206a 	bsr.l 0xf8a2ac
  f88246:	4fef 000c      	lea 12(sp),sp
  f8824a:	4e75           	rts
  f8824c:	2f2f 0010      	move.l 16(sp),-(sp)
  f88250:	2f2f 000c      	move.l 12(sp),-(sp)
  f88254:	2f2f 000c      	move.l 12(sp),-(sp)
  f88258:	61ff 0000 2096 	bsr.l 0xf8a2f0
  f8825e:	4fef 000c      	lea 12(sp),sp
  f88262:	4e75           	rts
  f88264:	2f02           	move.l d2,-(sp)
  f88266:	222f 0010      	move.l 16(sp),d1
  f8826a:	242f 0014      	move.l 20(sp),d2
  f8826e:	b2af 0008      	cmp.l 8(sp),d1
  f88272:	6604           	bne.s 0xf88278
  f88274:	b4af 000c      	cmp.l 12(sp),d2
  f88278:	53c0           	sl.s d0
  f8827a:	1200           	move.b d0,d1
  f8827c:	49c1           	extb.l d1
  f8827e:	5bc0           	smi d0
  f88280:	49c0           	extb.l d0
  f88282:	4481           	neg.l d1
  f88284:	4080           	negx.l d0
  f88286:	241f           	move.l (sp)+,d2
  f88288:	4e75           	rts
  f8828a:	2f02           	move.l d2,-(sp)
  f8828c:	222f 0010      	move.l 16(sp),d1
  f88290:	242f 0014      	move.l 20(sp),d2
  f88294:	b2af 0008      	cmp.l 8(sp),d1
  f88298:	6604           	bne.s 0xf8829e
  f8829a:	b4af 000c      	cmp.l 12(sp),d2
  f8829e:	55c0           	sc.s d0
  f882a0:	1200           	move.b d0,d1
  f882a2:	49c1           	extb.l d1
  f882a4:	5bc0           	smi d0
  f882a6:	49c0           	extb.l d0
  f882a8:	4481           	neg.l d1
  f882aa:	4080           	negx.l d0
  f882ac:	241f           	move.l (sp)+,d2
  f882ae:	4e75           	rts
  f882b0:	2f02           	move.l d2,-(sp)
  f882b2:	222f 0010      	move.l 16(sp),d1
  f882b6:	242f 0014      	move.l 20(sp),d2
  f882ba:	b2af 0008      	cmp.l 8(sp),d1
  f882be:	6604           	bne.s 0xf882c4
  f882c0:	b4af 000c      	cmp.l 12(sp),d2
  f882c4:	52c0           	shi d0
  f882c6:	1200           	move.b d0,d1
  f882c8:	49c1           	extb.l d1
  f882ca:	5bc0           	smi d0
  f882cc:	49c0           	extb.l d0
  f882ce:	4481           	neg.l d1
  f882d0:	4080           	negx.l d0
  f882d2:	241f           	move.l (sp)+,d2
  f882d4:	4e75           	rts
  f882d6:	2f02           	move.l d2,-(sp)
  f882d8:	222f 0010      	move.l 16(sp),d1
  f882dc:	242f 0014      	move.l 20(sp),d2
  f882e0:	b2af 0008      	cmp.l 8(sp),d1
  f882e4:	6604           	bne.s 0xf882ea
  f882e6:	b4af 000c      	cmp.l 12(sp),d2
  f882ea:	54c0           	scc d0
  f882ec:	1200           	move.b d0,d1
  f882ee:	49c1           	extb.l d1
  f882f0:	5bc0           	smi d0
  f882f2:	49c0           	extb.l d0
  f882f4:	4481           	neg.l d1
  f882f6:	4080           	negx.l d0
  f882f8:	241f           	move.l (sp)+,d2
  f882fa:	4e75           	rts
  f882fc:	2f02           	move.l d2,-(sp)
  f882fe:	222f 0010      	move.l 16(sp),d1
  f88302:	242f 0014      	move.l 20(sp),d2
  f88306:	b2af 0008      	cmp.l 8(sp),d1
  f8830a:	6604           	bne.s 0xf88310
  f8830c:	b4af 000c      	cmp.l 12(sp),d2
  f88310:	57c0           	seq d0
  f88312:	1200           	move.b d0,d1
  f88314:	49c1           	extb.l d1
  f88316:	5bc0           	smi d0
  f88318:	49c0           	extb.l d0
  f8831a:	4481           	neg.l d1
  f8831c:	4080           	negx.l d0
  f8831e:	241f           	move.l (sp)+,d2
  f88320:	4e75           	rts
  f88322:	2f02           	move.l d2,-(sp)
  f88324:	222f 0010      	move.l 16(sp),d1
  f88328:	242f 0014      	move.l 20(sp),d2
  f8832c:	b2af 0008      	cmp.l 8(sp),d1
  f88330:	6604           	bne.s 0xf88336
  f88332:	b4af 000c      	cmp.l 12(sp),d2
  f88336:	56c0           	sne d0
  f88338:	1200           	move.b d0,d1
  f8833a:	49c1           	extb.l d1
  f8833c:	5bc0           	smi d0
  f8833e:	49c0           	extb.l d0
  f88340:	4481           	neg.l d1
  f88342:	4080           	negx.l d0
  f88344:	241f           	move.l (sp)+,d2
  f88346:	4e75           	rts
  f88348:	202f 0004      	move.l 4(sp),d0
  f8834c:	80af 0008      	or.l 8(sp),d0
  f88350:	6718           	beq.s 0xf8836a
  f88352:	4aaf 000c      	tst.l 12(sp)
  f88356:	6604           	bne.s 0xf8835c
  f88358:	4aaf 0010      	tst.l 16(sp)
  f8835c:	56c0           	sne d0
  f8835e:	49c0           	extb.l d0
  f88360:	4480           	neg.l d0
  f88362:	2200           	move.l d0,d1
  f88364:	5bc0           	smi d0
  f88366:	49c0           	extb.l d0
  f88368:	4e75           	rts
  f8836a:	4280           	clr.l d0
  f8836c:	60f4           	bra.s 0xf88362
  f8836e:	202f 0004      	move.l 4(sp),d0
  f88372:	80af 000c      	or.l 12(sp),d0
  f88376:	222f 0008      	move.l 8(sp),d1
  f8837a:	82af 0010      	or.l 16(sp),d1
  f8837e:	4a80           	tst.l d0
  f88380:	6602           	bne.s 0xf88384
  f88382:	4a81           	tst.l d1
  f88384:	56c0           	sne d0
  f88386:	1200           	move.b d0,d1
  f88388:	49c1           	extb.l d1
  f8838a:	5bc0           	smi d0
  f8838c:	49c0           	extb.l d0
  f8838e:	4481           	neg.l d1
  f88390:	4080           	negx.l d0
  f88392:	4e75           	rts
  f88394:	2573 2573 0000 	move.l ([9514,a3],1929391392),9587(a2)
  f8839a:	252a 7300 2d20 
  f883a0:	2573 
  f883a2:	0a00 2573      	eori.b #115,d0
  f883a6:	2573 202d 2025 	move.l (45,a3,d2.w),8229(a2)
  f883ac:	730a           	.short 0x730a
  f883ae:	0055 6e6b      	ori.w #28267,(a5)
  f883b2:	6e6f           	bgt.s 0xf88423
  f883b4:	776e           	.short 0x776e
  f883b6:	2063           	movea.l -(a3),a0
  f883b8:	6f6d           	ble.s 0xf88427
  f883ba:	6d61           	blt.s 0xf8841d
  f883bc:	6e64           	bgt.s 0xf88422
  f883be:	2022           	move.l -(a2),d0
  f883c0:	2573 220a 0000 	move.l (10,a3,d2.w*2),0(a2)
  f883c6:	48e7 3f3e      	movem.l d2-d7/a2-a6,-(sp)
  f883ca:	7001           	moveq #1,d0
  f883cc:	b0af 0030      	cmp.l 48(sp),d0
  f883d0:	6c00 0090      	bge.w 0xf88462
  f883d4:	266f 0034      	movea.l 52(sp),a3
  f883d8:	588b           	addq.l #4,a3
  f883da:	7801           	moveq #1,d4
  f883dc:	4283           	clr.l d3
  f883de:	4bfa 1184      	lea 0xf89564(pc),a5
  f883e2:	4dfa ffc0      	lea 0xf883a4(pc),a6
  f883e6:	2e1b           	move.l (a3)+,d7
  f883e8:	45fa 117e      	lea 0xf89568(pc),a2
  f883ec:	4282           	clr.l d2
  f883ee:	2c2a 0004      	move.l 4(a2),d6
  f883f2:	2a12           	move.l (a2),d5
  f883f4:	2f05           	move.l d5,-(sp)
  f883f6:	2f07           	move.l d7,-(sp)
  f883f8:	61ff 0000 2d6e 	bsr.l 0xf8b168
  f883fe:	508f           	addq.l #8,sp
  f88400:	4a80           	tst.l d0
  f88402:	671c           	beq.s 0xf88420
  f88404:	4a86           	tst.l d6
  f88406:	6700 00e6      	beq.w 0xf884ee
  f8840a:	2f06           	move.l d6,-(sp)
  f8840c:	2f05           	move.l d5,-(sp)
  f8840e:	2f07           	move.l d7,-(sp)
  f88410:	61ff 0000 2df6 	bsr.l 0xf8b208
  f88416:	4fef 000c      	lea 12(sp),sp
  f8841a:	4a80           	tst.l d0
  f8841c:	6600 00d0      	bne.w 0xf884ee
  f88420:	202a 0010      	move.l 16(a2),d0
  f88424:	6700 00c8      	beq.w 0xf884ee
  f88428:	2f00           	move.l d0,-(sp)
  f8842a:	7018           	moveq #24,d0
  f8842c:	4c00 2800      	muls.l d0,d2
  f88430:	45f5 2800      	lea (0,a5,d2.l),a2
  f88434:	2f2a 0010      	move.l 16(a2),-(sp)
  f88438:	2f05           	move.l d5,-(sp)
  f8843a:	2f0e           	move.l a6,-(sp)
  f8843c:	61ff ffff a01e 	bsr.l 0xf8245c
  f88442:	202a 000c      	move.l 12(a2),d0
  f88446:	4fef 0010      	lea 16(sp),sp
  f8844a:	670a           	beq.s 0xf88456
  f8844c:	2f00           	move.l d0,-(sp)
  f8844e:	61ff ffff b982 	bsr.l 0xf83dd2
  f88454:	588f           	addq.l #4,sp
  f88456:	5284           	addq.l #1,d4
  f88458:	b8af 0030      	cmp.l 48(sp),d4
  f8845c:	6688           	bne.s 0xf883e6
  f8845e:	6000 0086      	bra.w 0xf884e6
  f88462:	45f8 0000      	lea 0x0,a2
  f88466:	47fa 1110      	lea 0xf89578(pc),a3
  f8846a:	4bfa 10fc      	lea 0xf89568(pc),a5
  f8846e:	4dfa 1104      	lea 0xf89574(pc),a6
  f88472:	41fa ff20      	lea 0xf88394(pc),a0
  f88476:	2a08           	move.l a0,d5
  f88478:	41fa ff24      	lea 0xf8839e(pc),a0
  f8847c:	2c08           	move.l a0,d6
  f8847e:	2633 a800      	move.l (0,a3,a2.l),d3
  f88482:	6756           	beq.s 0xf884da
  f88484:	2835 a800      	move.l (0,a5,a2.l),d4
  f88488:	2f04           	move.l d4,-(sp)
  f8848a:	61ff 0000 2d68 	bsr.l 0xf8b1f4
  f88490:	2400           	move.l d0,d2
  f88492:	2e36 a800      	move.l (0,a6,a2.l),d7
  f88496:	2e87           	move.l d7,(sp)
  f88498:	61ff 0000 2d5a 	bsr.l 0xf8b1f4
  f8849e:	d480           	add.l d0,d2
  f884a0:	2e87           	move.l d7,(sp)
  f884a2:	2f04           	move.l d4,-(sp)
  f884a4:	2f05           	move.l d5,-(sp)
  f884a6:	61ff ffff 9fb4 	bsr.l 0xf8245c
  f884ac:	4fef 000c      	lea 12(sp),sp
  f884b0:	7025           	moveq #37,d0
  f884b2:	b082           	cmp.l d2,d0
  f884b4:	6d18           	blt.s 0xf884ce
  f884b6:	487a fee1      	pea 0xf88399(pc)
  f884ba:	7026           	moveq #38,d0
  f884bc:	9082           	sub.l d2,d0
  f884be:	2f00           	move.l d0,-(sp)
  f884c0:	487a fed8      	pea 0xf8839a(pc)
  f884c4:	61ff ffff 9f96 	bsr.l 0xf8245c
  f884ca:	4fef 000c      	lea 12(sp),sp
  f884ce:	2f03           	move.l d3,-(sp)
  f884d0:	2f06           	move.l d6,-(sp)
  f884d2:	61ff ffff 9f88 	bsr.l 0xf8245c
  f884d8:	508f           	addq.l #8,sp
  f884da:	45ea 0018      	lea 24(a2),a2
  f884de:	b4fc 01c8      	cmpa.w #456,a2
  f884e2:	669a           	bne.s 0xf8847e
  f884e4:	4283           	clr.l d3
  f884e6:	2003           	move.l d3,d0
  f884e8:	4cdf 7cfc      	movem.l (sp)+,d2-d7/a2-a6
  f884ec:	4e75           	rts
  f884ee:	5282           	addq.l #1,d2
  f884f0:	45ea 0018      	lea 24(a2),a2
  f884f4:	7013           	moveq #19,d0
  f884f6:	b082           	cmp.l d2,d0
  f884f8:	6600 fef4      	bne.w 0xf883ee
  f884fc:	2f07           	move.l d7,-(sp)
  f884fe:	487a feaf      	pea 0xf883af(pc)
  f88502:	61ff ffff 9f58 	bsr.l 0xf8245c
  f88508:	508f           	addq.l #8,sp
  f8850a:	7601           	moveq #1,d3
  f8850c:	6000 ff48      	bra.w 0xf88456
  f88510:	556e 6b6e      	subq.w #2,27502(a6)
  f88514:	6f77           	ble.s 0xf8858d
  f88516:	6e20           	bgt.s 0xf88538
  f88518:	636f           	bls.s 0xf88589
  f8851a:	6d6d           	blt.s 0xf88589
  f8851c:	616e           	bsr.s 0xf8858c
  f8851e:	643a           	bcc.s 0xf8855a
  f88520:	0020 2573      	ori.b #115,-(a0)
  f88524:	0000 48e7      	ori.b #-25,d0
  f88528:	3e38 282f      	move.w 0x282f,d7
  f8852c:	0024 246f      	ori.b #111,-(a4)
  f88530:	0028 2a12 47fa 	ori.b #18,18426(a0)
  f88536:	1032 4282      	move.b (-126,a2,d4.w*2),d0
  f8853a:	2c2b 0004      	move.l 4(a3),d6
  f8853e:	2613           	move.l (a3),d3
  f88540:	2f03           	move.l d3,-(sp)
  f88542:	2f05           	move.l d5,-(sp)
  f88544:	61ff 0000 2c22 	bsr.l 0xf8b168
  f8854a:	508f           	addq.l #8,sp
  f8854c:	4a80           	tst.l d0
  f8854e:	6718           	beq.s 0xf88568
  f88550:	4a86           	tst.l d6
  f88552:	676a           	beq.s 0xf885be
  f88554:	2f06           	move.l d6,-(sp)
  f88556:	2f03           	move.l d3,-(sp)
  f88558:	2f05           	move.l d5,-(sp)
  f8855a:	61ff 0000 2cac 	bsr.l 0xf8b208
  f88560:	4fef 000c      	lea 12(sp),sp
  f88564:	4a80           	tst.l d0
  f88566:	6656           	bne.s 0xf885be
  f88568:	47fa 0ffa      	lea 0xf89564(pc),a3
  f8856c:	7018           	moveq #24,d0
  f8856e:	4c00 2800      	muls.l d0,d2
  f88572:	2f0a           	move.l a2,-(sp)
  f88574:	2f04           	move.l d4,-(sp)
  f88576:	2073 2800      	movea.l (0,a3,d2.l),a0
  f8857a:	4e90           	jsr (a0)
  f8857c:	2440           	movea.l d0,a2
  f8857e:	508f           	addq.l #8,sp
  f88580:	7002           	moveq #2,d0
  f88582:	b08a           	cmp.l a2,d0
  f88584:	6612           	bne.s 0xf88598
  f88586:	d7c2           	adda.l d2,a3
  f88588:	202b 000c      	move.l 12(a3),d0
  f8858c:	6712           	beq.s 0xf885a0
  f8858e:	2f00           	move.l d0,-(sp)
  f88590:	61ff ffff b840 	bsr.l 0xf83dd2
  f88596:	588f           	addq.l #4,sp
  f88598:	200a           	move.l a2,d0
  f8859a:	4cdf 1c7c      	movem.l (sp)+,d2-d6/a2-a4
  f8859e:	4e75           	rts
  f885a0:	202b 0014      	move.l 20(a3),d0
  f885a4:	67f2           	beq.s 0xf88598
  f885a6:	2f00           	move.l d0,-(sp)
  f885a8:	2f2b 0010      	move.l 16(a3),-(sp)
  f885ac:	2f03           	move.l d3,-(sp)
  f885ae:	487a fdf4      	pea 0xf883a4(pc)
  f885b2:	61ff ffff 9ea8 	bsr.l 0xf8245c
  f885b8:	4fef 0010      	lea 16(sp),sp
  f885bc:	60da           	bra.s 0xf88598
  f885be:	5282           	addq.l #1,d2
  f885c0:	47eb 0018      	lea 24(a3),a3
  f885c4:	7013           	moveq #19,d0
  f885c6:	b082           	cmp.l d2,d0
  f885c8:	6600 ff70      	bne.w 0xf8853a
  f885cc:	487a ff42      	pea 0xf88510(pc)
  f885d0:	61ff ffff 9e8a 	bsr.l 0xf8245c
  f885d6:	588f           	addq.l #4,sp
  f885d8:	4282           	clr.l d2
  f885da:	47fa ff45      	lea 0xf88521(pc),a3
  f885de:	b882           	cmp.l d2,d4
  f885e0:	6e12           	bgt.s 0xf885f4
  f885e2:	4878 000a      	pea 0xa
  f885e6:	61ff ffff b7ac 	bsr.l 0xf83d94
  f885ec:	588f           	addq.l #4,sp
  f885ee:	347c 0002      	movea.w #2,a2
  f885f2:	60a4           	bra.s 0xf88598
  f885f4:	2f1a           	move.l (a2)+,-(sp)
  f885f6:	2f0b           	move.l a3,-(sp)
  f885f8:	61ff ffff 9e62 	bsr.l 0xf8245c
  f885fe:	5282           	addq.l #1,d2
  f88600:	508f           	addq.l #8,sp
  f88602:	60da           	bra.s 0xf885de
  f88604:	256c 6c78 256e 	move.l 27768(a4),9582(a2)
  f8860a:	0025 6c6c      	ori.b #108,-(a5)
  f8860e:	7800           	moveq #0,d4
  f88610:	4e55 ffc4      	link.w a5,#-60
  f88614:	48e7 3f3a      	movem.l d2-d7/a2-a4/a6,-(sp)
  f88618:	266d 0008      	movea.l 8(a5),a3
  f8861c:	222d 000c      	move.l 12(a5),d1
  f88620:	42ad fff0      	clr.l -16(a5)
  f88624:	42ad fff4      	clr.l -12(a5)
  f88628:	0c13 0028      	cmpi.b #40,(a3)
  f8862c:	660a           	bne.s 0xf88638
  f8862e:	16bc 0020      	move.b #32,(a3)
  f88632:	17bc 0020 18ff 	move.b #32,(-1,a3,d1.l)
  f88638:	4207           	clr.b d7
  f8863a:	4200           	clr.b d0
  f8863c:	4282           	clr.l d2
  f8863e:	d28b           	add.l a3,d1
  f88640:	2b41 ffdc      	move.l d1,-36(a5)
  f88644:	41fa 0afe      	lea 0xf89144(pc),a0
  f88648:	2b48 ffd8      	move.l a0,-40(a5)
  f8864c:	43ed ffec      	lea -20(a5),a1
  f88650:	2b49 ffe0      	move.l a1,-32(a5)
  f88654:	41ed fff8      	lea -8(a5),a0
  f88658:	2b48 ffe4      	move.l a0,-28(a5)
  f8865c:	204b           	movea.l a3,a0
  f8865e:	6012           	bra.s 0xf88672
  f88660:	0c01 0027      	cmpi.b #39,d1
  f88664:	6652           	bne.s 0xf886b8
  f88666:	4a07           	tst.b d7
  f88668:	6600 0406      	bne.w 0xf88a70
  f8866c:	0a00 0001      	eori.b #1,d0
  f88670:	5288           	addq.l #1,a0
  f88672:	b1ed ffdc      	cmpa.l -36(a5),a0
  f88676:	6410           	bcc.s 0xf88688
  f88678:	1210           	move.b (a0),d1
  f8867a:	0c01 005c      	cmpi.b #92,d1
  f8867e:	66e0           	bne.s 0xf88660
  f88680:	5288           	addq.l #1,a0
  f88682:	b1ed ffdc      	cmpa.l -36(a5),a0
  f88686:	65e8           	bcs.s 0xf88670
  f88688:	7214           	moveq #20,d1
  f8868a:	4c02 1800      	muls.l d2,d1
  f8868e:	2041           	movea.l d1,a0
  f88690:	43fa 0abe      	lea 0xf89150(pc),a1
  f88694:	2631 8800      	move.l (0,a1,a0.l),d3
  f88698:	2202           	move.l d2,d1
  f8869a:	5282           	addq.l #1,d2
  f8869c:	41e8 0014      	lea 20(a0),a0
  f886a0:	b6b0 0170 00f8 	cmp.l (16290128,a0),d3
  f886a6:	9150 
  f886a8:	6600 00a6      	bne.w 0xf88750
  f886ac:	7c14           	moveq #20,d6
  f886ae:	bc82           	cmp.l d2,d6
  f886b0:	66e2           	bne.s 0xf88694
  f886b2:	4280           	clr.l d0
  f886b4:	6000 03b0      	bra.w 0xf88a66
  f886b8:	0c01 0022      	cmpi.b #34,d1
  f886bc:	660a           	bne.s 0xf886c8
  f886be:	4a00           	tst.b d0
  f886c0:	66ae           	bne.s 0xf88670
  f886c2:	0a07 0001      	eori.b #1,d7
  f886c6:	60a8           	bra.s 0xf88670
  f886c8:	4a00           	tst.b d0
  f886ca:	6600 03aa      	bne.w 0xf88a76
  f886ce:	4a07           	tst.b d7
  f886d0:	669e           	bne.s 0xf88670
  f886d2:	7014           	moveq #20,d0
  f886d4:	4c02 0800      	muls.l d2,d0
  f886d8:	226d ffd8      	movea.l -40(a5),a1
  f886dc:	43f1 0804      	lea (4,a1,d0.l),a1
  f886e0:	2b49 ffc8      	move.l a1,-56(a5)
  f886e4:	2802           	move.l d2,d4
  f886e6:	2a08           	move.l a0,d5
  f886e8:	9a8b           	sub.l a3,d5
  f886ea:	226d ffd8      	movea.l -40(a5),a1
  f886ee:	43f1 080c      	lea (12,a1,d0.l),a1
  f886f2:	2b49 ffd4      	move.l a1,-44(a5)
  f886f6:	226d ffc8      	movea.l -56(a5),a1
  f886fa:	2629 0004      	move.l 4(a1),d3
  f886fe:	2f03           	move.l d3,-(sp)
  f88700:	2f11           	move.l (a1),-(sp)
  f88702:	2f08           	move.l a0,-(sp)
  f88704:	2b48 ffcc      	move.l a0,-52(a5)
  f88708:	61ff 0000 2afe 	bsr.l 0xf8b208
  f8870e:	4fef 000c      	lea 12(sp),sp
  f88712:	2b40 ffc4      	move.l d0,-60(a5)
  f88716:	206d ffcc      	movea.l -52(a5),a0
  f8871a:	6600 0180      	bne.w 0xf8889c
  f8871e:	42ad ffe8      	clr.l -24(a5)
  f88722:	42ad ffec      	clr.l -20(a5)
  f88726:	42ad fff0      	clr.l -16(a5)
  f8872a:	42ad fff4      	clr.l -12(a5)
  f8872e:	226d ffc8      	movea.l -56(a5),a1
  f88732:	2229 000c      	move.l 12(a1),d1
  f88736:	7001           	moveq #1,d0
  f88738:	b081           	cmp.l d1,d0
  f8873a:	6600 0144      	bne.w 0xf88880
  f8873e:	0c10 0021      	cmpi.b #33,(a0)
  f88742:	661c           	bne.s 0xf88760
  f88744:	0c28 003d 0001 	cmpi.b #61,1(a0)
  f8874a:	6614           	bne.s 0xf88760
  f8874c:	4200           	clr.b d0
  f8874e:	2202           	move.l d2,d1
  f88750:	2401           	move.l d1,d2
  f88752:	5282           	addq.l #1,d2
  f88754:	7213           	moveq #19,d1
  f88756:	b282           	cmp.l d2,d1
  f88758:	6c00 ff02      	bge.w 0xf8865c
  f8875c:	6000 ff54      	bra.w 0xf886b2
  f88760:	2445           	movea.l d5,a2
  f88762:	538a           	subq.l #1,a2
  f88764:	4a8a           	tst.l a2
  f88766:	6f18           	ble.s 0xf88780
  f88768:	0c33 0020 a800 	cmpi.b #32,(0,a3,a2.l)
  f8876e:	67f2           	beq.s 0xf88762
  f88770:	200a           	move.l a2,d0
  f88772:	5280           	addq.l #1,d0
  f88774:	0c33 0020 0800 	cmpi.b #32,(0,a3,d0.l)
  f8877a:	6700 00fe      	beq.w 0xf8887a
  f8877e:	2440           	movea.l d0,a2
  f88780:	486d ffec      	pea -20(a5)
  f88784:	486d fff8      	pea -8(a5)
  f88788:	487a fe7a      	pea 0xf88604(pc)
  f8878c:	4870 3800      	pea (0,a0,d3.l)
  f88790:	2b48 ffcc      	move.l a0,-52(a5)
  f88794:	61ff ffff a6d8 	bsr.l 0xf82e6e
  f8879a:	4fef 0010      	lea 16(sp),sp
  f8879e:	206d ffcc      	movea.l -52(a5),a0
  f887a2:	5380           	subq.l #1,d0
  f887a4:	6600 00f6      	bne.w 0xf8889c
  f887a8:	d685           	add.l d5,d3
  f887aa:	d6ad ffec      	add.l -20(a5),d3
  f887ae:	2b43 ffec      	move.l d3,-20(a5)
  f887b2:	4a33 3800      	tst.b (0,a3,d3.l)
  f887b6:	671c           	beq.s 0xf887d4
  f887b8:	5283           	addq.l #1,d3
  f887ba:	4200           	clr.b d0
  f887bc:	2203           	move.l d3,d1
  f887be:	5283           	addq.l #1,d3
  f887c0:	0c33 0020 38ff 	cmpi.b #32,(-1,a3,d3.l)
  f887c6:	6700 0224      	beq.w 0xf889ec
  f887ca:	4a00           	tst.b d0
  f887cc:	6706           	beq.s 0xf887d4
  f887ce:	5381           	subq.l #1,d1
  f887d0:	2b41 ffec      	move.l d1,-20(a5)
  f887d4:	7014           	moveq #20,d0
  f887d6:	4c00 4800      	muls.l d0,d4
  f887da:	2f2d fffc      	move.l -4(a5),-(sp)
  f887de:	2f2d fff8      	move.l -8(a5),-(sp)
  f887e2:	2f2d fff4      	move.l -12(a5),-(sp)
  f887e6:	2f2d fff0      	move.l -16(a5),-(sp)
  f887ea:	226d ffd8      	movea.l -40(a5),a1
  f887ee:	2071 4800      	movea.l (0,a1,d4.l),a0
  f887f2:	4e90           	jsr (a0)
  f887f4:	2800           	move.l d0,d4
  f887f6:	2a01           	move.l d1,d5
  f887f8:	202d ffec      	move.l -20(a5),d0
  f887fc:	2200           	move.l d0,d1
  f887fe:	928a           	sub.l a2,d1
  f88800:	2b41 ffd0      	move.l d1,-48(a5)
  f88804:	2601           	move.l d1,d3
  f88806:	5283           	addq.l #1,d3
  f88808:	1c33 0800      	move.b (0,a3,d0.l),d6
  f8880c:	41f3 a800      	lea (0,a3,a2.l),a0
  f88810:	2f05           	move.l d5,-(sp)
  f88812:	2f04           	move.l d4,-(sp)
  f88814:	43fa fdf5      	lea 0xf8860b(pc),a1
  f88818:	2b49 ffd4      	move.l a1,-44(a5)
  f8881c:	2f09           	move.l a1,-(sp)
  f8881e:	2f03           	move.l d3,-(sp)
  f88820:	2f08           	move.l a0,-(sp)
  f88822:	2b48 ffcc      	move.l a0,-52(a5)
  f88826:	61ff ffff 9bda 	bsr.l 0xf82402
  f8882c:	2240           	movea.l d0,a1
  f8882e:	5289           	addq.l #1,a1
  f88830:	2b49 ffc8      	move.l a1,-56(a5)
  f88834:	2c4b           	movea.l a3,a6
  f88836:	dded ffec      	adda.l -20(a5),a6
  f8883a:	1c86           	move.b d6,(a6)
  f8883c:	4fef 0024      	lea 36(sp),sp
  f88840:	b0ad ffd0      	cmp.l -48(a5),d0
  f88844:	6e00 01ac      	bgt.w 0xf889f2
  f88848:	2f0e           	move.l a6,-(sp)
  f8884a:	61ff 0000 29a8 	bsr.l 0xf8b1f4
  f88850:	588f           	addq.l #4,sp
  f88852:	2240           	movea.l d0,a1
  f88854:	4869 0001      	pea 1(a1)
  f88858:	2f0e           	move.l a6,-(sp)
  f8885a:	222d ffc8      	move.l -56(a5),d1
  f8885e:	43f2 18ff      	lea (-1,a2,d1.l),a1
  f88862:	4873 9800      	pea (0,a3,a1.l)
  f88866:	61ff 0000 2794 	bsr.l 0xf8affc
  f8886c:	4fef 000c      	lea 12(sp),sp
  f88870:	4200           	clr.b d0
  f88872:	206d ffcc      	movea.l -52(a5),a0
  f88876:	6000 fdf8      	bra.w 0xf88670
  f8887a:	548a           	addq.l #2,a2
  f8887c:	6000 ff02      	bra.w 0xf88780
  f88880:	5581           	subq.l #2,d1
  f88882:	6600 0160      	bne.w 0xf889e4
  f88886:	1210           	move.b (a0),d1
  f88888:	0c01 0026      	cmpi.b #38,d1
  f8888c:	6638           	bne.s 0xf888c6
  f8888e:	0c28 0026 0001 	cmpi.b #38,1(a0)
  f88894:	6644           	bne.s 0xf888da
  f88896:	7001           	moveq #1,d0
  f88898:	b083           	cmp.l d3,d0
  f8889a:	663e           	bne.s 0xf888da
  f8889c:	5284           	addq.l #1,d4
  f8889e:	7014           	moveq #20,d0
  f888a0:	d1ad ffc8      	add.l d0,-56(a5)
  f888a4:	b084           	cmp.l d4,d0
  f888a6:	6718           	beq.s 0xf888c0
  f888a8:	b882           	cmp.l d2,d4
  f888aa:	6700 fe4a      	beq.w 0xf886f6
  f888ae:	226d ffc8      	movea.l -56(a5),a1
  f888b2:	2029 0008      	move.l 8(a1),d0
  f888b6:	226d ffd4      	movea.l -44(a5),a1
  f888ba:	b091           	cmp.l (a1),d0
  f888bc:	6700 fe38      	beq.w 0xf886f6
  f888c0:	4200           	clr.b d0
  f888c2:	6000 fdac      	bra.w 0xf88670
  f888c6:	0c01 007c      	cmpi.b #124,d1
  f888ca:	660e           	bne.s 0xf888da
  f888cc:	0c28 007c 0001 	cmpi.b #124,1(a0)
  f888d2:	6606           	bne.s 0xf888da
  f888d4:	7201           	moveq #1,d1
  f888d6:	b283           	cmp.l d3,d1
  f888d8:	67c2           	beq.s 0xf8889c
  f888da:	2c05           	move.l d5,d6
  f888dc:	5386           	subq.l #1,d6
  f888de:	2b46 ffd0      	move.l d6,-48(a5)
  f888e2:	2446           	movea.l d6,a2
  f888e4:	4a8a           	tst.l a2
  f888e6:	6e62           	bgt.s 0xf8894a
  f888e8:	ba8a           	cmp.l a2,d5
  f888ea:	67b0           	beq.s 0xf8889c
  f888ec:	4df3 a800      	lea (0,a3,a2.l),a6
  f888f0:	0c16 0020      	cmpi.b #32,(a6)
  f888f4:	6606           	bne.s 0xf888fc
  f888f6:	b5ed ffd0      	cmpa.l -48(a5),a2
  f888fa:	67a0           	beq.s 0xf8889c
  f888fc:	486d ffe8      	pea -24(a5)
  f88900:	486d fff0      	pea -16(a5)
  f88904:	487a fcfe      	pea 0xf88604(pc)
  f88908:	2f0e           	move.l a6,-(sp)
  f8890a:	2b48 ffcc      	move.l a0,-52(a5)
  f8890e:	61ff ffff a55e 	bsr.l 0xf82e6e
  f88914:	4fef 0010      	lea 16(sp),sp
  f88918:	206d ffcc      	movea.l -52(a5),a0
  f8891c:	5380           	subq.l #1,d0
  f8891e:	6600 ff7c      	bne.w 0xf8889c
  f88922:	226d ffe8      	movea.l -24(a5),a1
  f88926:	4201           	clr.b d1
  f88928:	2009           	move.l a1,d0
  f8892a:	5289           	addq.l #1,a1
  f8892c:	0c36 0020 0800 	cmpi.b #32,(0,a6,d0.l)
  f88932:	6700 00aa      	beq.w 0xf889de
  f88936:	4a01           	tst.b d1
  f88938:	6704           	beq.s 0xf8893e
  f8893a:	2b40 ffe8      	move.l d0,-24(a5)
  f8893e:	d08a           	add.l a2,d0
  f88940:	ba80           	cmp.l d0,d5
  f88942:	6f00 fe3c      	ble.w 0xf88780
  f88946:	6000 ff54      	bra.w 0xf8889c
  f8894a:	0c33 0020 a800 	cmpi.b #32,(0,a3,a2.l)
  f88950:	6600 0088      	bne.w 0xf889da
  f88954:	538a           	subq.l #1,a2
  f88956:	608c           	bra.s 0xf888e4
  f88958:	1c33 1800      	move.b (0,a3,d1.l),d6
  f8895c:	1006           	move.b d6,d0
  f8895e:	0600 00d0      	addi.b #-48,d0
  f88962:	0c00 0009      	cmpi.b #9,d0
  f88966:	6364           	bls.s 0xf889cc
  f88968:	1006           	move.b d6,d0
  f8896a:	0200 00df      	andi.b #-33,d0
  f8896e:	0600 00bf      	addi.b #-65,d0
  f88972:	0c00 0005      	cmpi.b #5,d0
  f88976:	6354           	bls.s 0xf889cc
  f88978:	0c06 0078      	cmpi.b #120,d6
  f8897c:	662a           	bne.s 0xf889a8
  f8897e:	0c33 0030 18ff 	cmpi.b #48,(-1,a3,d1.l)
  f88984:	6746           	beq.s 0xf889cc
  f88986:	2441           	movea.l d1,a2
  f88988:	528a           	addq.l #1,a2
  f8898a:	4dfa 07bc      	lea 0xf89148(pc),a6
  f8898e:	2256           	movea.l (a6),a1
  f88990:	bc11           	cmp.b (a1),d6
  f88992:	671e           	beq.s 0xf889b2
  f88994:	52ad ffc4      	addq.l #1,-60(a5)
  f88998:	4dee 0014      	lea 20(a6),a6
  f8899c:	7014           	moveq #20,d0
  f8899e:	b0ad ffc4      	cmp.l -60(a5),d0
  f889a2:	66ea           	bne.s 0xf8898e
  f889a4:	6000 fef6      	bra.w 0xf8889c
  f889a8:	2441           	movea.l d1,a2
  f889aa:	528a           	addq.l #1,a2
  f889ac:	0c06 0020      	cmpi.b #32,d6
  f889b0:	66d8           	bne.s 0xf8898a
  f889b2:	0c33 0020 a800 	cmpi.b #32,(0,a3,a2.l)
  f889b8:	6600 ff2e      	bne.w 0xf888e8
  f889bc:	0c06 0020      	cmpi.b #32,d6
  f889c0:	6700 ff26      	beq.w 0xf888e8
  f889c4:	2441           	movea.l d1,a2
  f889c6:	548a           	addq.l #2,a2
  f889c8:	6000 ff1e      	bra.w 0xf888e8
  f889cc:	5381           	subq.l #1,d1
  f889ce:	4a81           	tst.l d1
  f889d0:	6686           	bne.s 0xf88958
  f889d2:	45f8 0000      	lea 0x0,a2
  f889d6:	6000 ff10      	bra.w 0xf888e8
  f889da:	220a           	move.l a2,d1
  f889dc:	60f0           	bra.s 0xf889ce
  f889de:	7201           	moveq #1,d1
  f889e0:	6000 ff46      	bra.w 0xf88928
  f889e4:	45f8 0000      	lea 0x0,a2
  f889e8:	6000 fd96      	bra.w 0xf88780
  f889ec:	7001           	moveq #1,d0
  f889ee:	6000 fdcc      	bra.w 0xf887bc
  f889f2:	206d 0010      	movea.l 16(a5),a0
  f889f6:	2410           	move.l (a0),d2
  f889f8:	2f0e           	move.l a6,-(sp)
  f889fa:	61ff 0000 27f8 	bsr.l 0xf8b1f4
  f88a00:	588f           	addq.l #4,sp
  f88a02:	2e00           	move.l d0,d7
  f88a04:	5287           	addq.l #1,d7
  f88a06:	224e           	movea.l a6,a1
  f88a08:	93c2           	suba.l d2,a1
  f88a0a:	d3c7           	adda.l d7,a1
  f88a0c:	206d ffc8      	movea.l -56(a5),a0
  f88a10:	91c3           	suba.l d3,a0
  f88a12:	4871 8801      	pea (1,a1,a0.l)
  f88a16:	2f02           	move.l d2,-(sp)
  f88a18:	61ff ffff bf06 	bsr.l 0xf84920
  f88a1e:	226d 0010      	movea.l 16(a5),a1
  f88a22:	2280           	move.l d0,(a1)
  f88a24:	97c2           	suba.l d2,a3
  f88a26:	d7c0           	adda.l d0,a3
  f88a28:	206d ffc8      	movea.l -56(a5),a0
  f88a2c:	d1ca           	adda.l a2,a0
  f88a2e:	2b48 ffd0      	move.l a0,-48(a5)
  f88a32:	2f07           	move.l d7,-(sp)
  f88a34:	2003           	move.l d3,d0
  f88a36:	d08a           	add.l a2,d0
  f88a38:	4873 0800      	pea (0,a3,d0.l)
  f88a3c:	4873 8800      	pea (0,a3,a0.l)
  f88a40:	61ff 0000 25ba 	bsr.l 0xf8affc
  f88a46:	2f05           	move.l d5,-(sp)
  f88a48:	2f04           	move.l d4,-(sp)
  f88a4a:	2f2d ffd4      	move.l -44(a5),-(sp)
  f88a4e:	4873 a800      	pea (0,a3,a2.l)
  f88a52:	61ff ffff 99d0 	bsr.l 0xf82424
  f88a58:	226d ffd0      	movea.l -48(a5),a1
  f88a5c:	1786 98ff      	move.b d6,(-1,a3,a1.l)
  f88a60:	4fef 0024      	lea 36(sp),sp
  f88a64:	7004           	moveq #4,d0
  f88a66:	4ced 5cfc ff9c 	movem.l -100(a5),d2-d7/a2-a4/a6
  f88a6c:	4e5d           	unlk a5
  f88a6e:	4e75           	rts
  f88a70:	4a00           	tst.b d0
  f88a72:	6700 fbfc      	beq.w 0xf88670
  f88a76:	7001           	moveq #1,d0
  f88a78:	6000 fbf6      	bra.w 0xf88670
  f88a7c:	556e 6162      	subq.w #2,24930(a6)
  f88a80:	6c65           	bge.s 0xf88ae7
  f88a82:	2074 6f20 616c 	movea.l (24940,a4,d6.l*8),a0
  f88a88:	6c6f           	bge.s 0xf88af9
  f88a8a:	6361           	bls.s 0xf88aed
  f88a8c:	7465           	moveq #101,d2
  f88a8e:	206d 656d      	movea.l 25965(a5),a0
  f88a92:	6f72           	ble.s 0xf88b06
  f88a94:	7900           	.short 0x7900
  f88a96:	546f 6f20      	addq.w #2,28448(sp)
  f88a9a:	6d61           	blt.s 0xf88afd
  f88a9c:	6e79           	bgt.s 0xf88b17
  f88a9e:	2061           	movea.l -(a1),a0
  f88aa0:	7267           	moveq #103,d1
  f88aa2:	756d           	.short 0x756d
  f88aa4:	656e           	bcs.s 0xf88b14
  f88aa6:	7473           	moveq #115,d2
  f88aa8:	0000 4e55      	ori.b #85,d0
  f88aac:	fda4           	.short 0xfda4
  f88aae:	48e7 3f3a      	movem.l d2-d7/a2-a4/a6,-(sp)
  f88ab2:	266d 0008      	movea.l 8(a5),a3
  f88ab6:	45f8 0000      	lea 0x0,a2
  f88aba:	4201           	clr.b d1
  f88abc:	4207           	clr.b d7
  f88abe:	4206           	clr.b d6
  f88ac0:	4285           	clr.l d5
  f88ac2:	4282           	clr.l d2
  f88ac4:	4283           	clr.l d3
  f88ac6:	41ed fda8      	lea -600(a5),a0
  f88aca:	2b48 fda4      	move.l a0,-604(a5)
  f88ace:	1813           	move.b (a3),d4
  f88ad0:	662a           	bne.s 0xf88afc
  f88ad2:	4a8a           	tst.l a2
  f88ad4:	6f00 0142      	ble.w 0xf88c18
  f88ad8:	4235 a920 fda8 	clr.b (-600,a5,a2.l)
  f88ade:	486d fda8      	pea -600(a5)
  f88ae2:	61ff ffff be72 	bsr.l 0xf84956
  f88ae8:	206d 000c      	movea.l 12(a5),a0
  f88aec:	2180 5c00      	move.l d0,(0,a0,d5.l*4)
  f88af0:	588f           	addq.l #4,sp
  f88af2:	6700 00c8      	beq.w 0xf88bbc
  f88af6:	5285           	addq.l #1,d5
  f88af8:	6000 011e      	bra.w 0xf88c18
  f88afc:	102b 0001      	move.b 1(a3),d0
  f88b00:	d682           	add.l d2,d3
  f88b02:	0c04 005c      	cmpi.b #92,d4
  f88b06:	6614           	bne.s 0xf88b1c
  f88b08:	4a00           	tst.b d0
  f88b0a:	670a           	beq.s 0xf88b16
  f88b0c:	528b           	addq.l #1,a3
  f88b0e:	1b80 a920 fda8 	move.b d0,(-600,a5,a2.l)
  f88b14:	528a           	addq.l #1,a2
  f88b16:	4282           	clr.l d2
  f88b18:	6000 00ec      	bra.w 0xf88c06
  f88b1c:	0c04 0027      	cmpi.b #39,d4
  f88b20:	660a           	bne.s 0xf88b2c
  f88b22:	4a07           	tst.b d7
  f88b24:	6632           	bne.s 0xf88b58
  f88b26:	0a06 0001      	eori.b #1,d6
  f88b2a:	60ea           	bra.s 0xf88b16
  f88b2c:	0c04 0022      	cmpi.b #34,d4
  f88b30:	660a           	bne.s 0xf88b3c
  f88b32:	4a06           	tst.b d6
  f88b34:	6622           	bne.s 0xf88b58
  f88b36:	0a07 0001      	eori.b #1,d7
  f88b3a:	60da           	bra.s 0xf88b16
  f88b3c:	4a06           	tst.b d6
  f88b3e:	6618           	bne.s 0xf88b58
  f88b40:	4a07           	tst.b d7
  f88b42:	6614           	bne.s 0xf88b58
  f88b44:	0c04 003b      	cmpi.b #59,d4
  f88b48:	6726           	beq.s 0xf88b70
  f88b4a:	6e10           	bgt.s 0xf88b5c
  f88b4c:	0c04 0020      	cmpi.b #32,d4
  f88b50:	6742           	beq.s 0xf88b94
  f88b52:	0c04 0026      	cmpi.b #38,d4
  f88b56:	671c           	beq.s 0xf88b74
  f88b58:	4282           	clr.l d2
  f88b5a:	602a           	bra.s 0xf88b86
  f88b5c:	0c04 007c      	cmpi.b #124,d4
  f88b60:	66f6           	bne.s 0xf88b58
  f88b62:	0c01 007c      	cmpi.b #124,d1
  f88b66:	671c           	beq.s 0xf88b84
  f88b68:	0c00 007c      	cmpi.b #124,d0
  f88b6c:	66ea           	bne.s 0xf88b58
  f88b6e:	6010           	bra.s 0xf88b80
  f88b70:	5483           	addq.l #2,d3
  f88b72:	60e4           	bra.s 0xf88b58
  f88b74:	0c01 0026      	cmpi.b #38,d1
  f88b78:	670a           	beq.s 0xf88b84
  f88b7a:	0c00 0026      	cmpi.b #38,d0
  f88b7e:	66d8           	bne.s 0xf88b58
  f88b80:	5283           	addq.l #1,d3
  f88b82:	60d4           	bra.s 0xf88b58
  f88b84:	7401           	moveq #1,d2
  f88b86:	4a83           	tst.l d3
  f88b88:	6e0e           	bgt.s 0xf88b98
  f88b8a:	1b84 a920 fda8 	move.b d4,(-600,a5,a2.l)
  f88b90:	528a           	addq.l #1,a2
  f88b92:	6072           	bra.s 0xf88c06
  f88b94:	4282           	clr.l d2
  f88b96:	7601           	moveq #1,d3
  f88b98:	5383           	subq.l #1,d3
  f88b9a:	4a8a           	tst.l a2
  f88b9c:	6f62           	ble.s 0xf88c00
  f88b9e:	4235 a920 fda8 	clr.b (-600,a5,a2.l)
  f88ba4:	486a 0001      	pea 1(a2)
  f88ba8:	61ff ffff bc2e 	bsr.l 0xf847d8
  f88bae:	2c40           	movea.l d0,a6
  f88bb0:	206d 000c      	movea.l 12(a5),a0
  f88bb4:	2180 5c00      	move.l d0,(0,a0,d5.l*4)
  f88bb8:	588f           	addq.l #4,sp
  f88bba:	660e           	bne.s 0xf88bca
  f88bbc:	487a febe      	pea 0xf88a7c(pc)
  f88bc0:	4878 0001      	pea 0x1
  f88bc4:	61ff ffff 98d2 	bsr.l 0xf82498
  f88bca:	2f0a           	move.l a2,-(sp)
  f88bcc:	486d fda8      	pea -600(a5)
  f88bd0:	2f00           	move.l d0,-(sp)
  f88bd2:	61ff 0000 26dc 	bsr.l 0xf8b2b0
  f88bd8:	4236 a800      	clr.b (0,a6,a2.l)
  f88bdc:	5285           	addq.l #1,d5
  f88bde:	4fef 000c      	lea 12(sp),sp
  f88be2:	703e           	moveq #62,d0
  f88be4:	b085           	cmp.l d5,d0
  f88be6:	6d24           	blt.s 0xf88c0c
  f88be8:	200b           	move.l a3,d0
  f88bea:	2040           	movea.l d0,a0
  f88bec:	5280           	addq.l #1,d0
  f88bee:	0c10 0020      	cmpi.b #32,(a0)
  f88bf2:	67f6           	beq.s 0xf88bea
  f88bf4:	5580           	subq.l #2,d0
  f88bf6:	b08b           	cmp.l a3,d0
  f88bf8:	6302           	bls.s 0xf88bfc
  f88bfa:	2640           	movea.l d0,a3
  f88bfc:	45f8 0000      	lea 0x0,a2
  f88c00:	0c04 0020      	cmpi.b #32,d4
  f88c04:	6684           	bne.s 0xf88b8a
  f88c06:	121b           	move.b (a3)+,d1
  f88c08:	6000 fec4      	bra.w 0xf88ace
  f88c0c:	487a fe88      	pea 0xf88a96(pc)
  f88c10:	61ff ffff 9862 	bsr.l 0xf82474
  f88c16:	588f           	addq.l #4,sp
  f88c18:	206d 000c      	movea.l 12(a5),a0
  f88c1c:	42b0 5c00      	clr.l (0,a0,d5.l*4)
  f88c20:	2005           	move.l d5,d0
  f88c22:	4ced 5cfc fd7c 	movem.l -644(a5),d2-d7/a2-a4/a6
  f88c28:	4e5d           	unlk a5
  f88c2a:	4e75           	rts
  f88c2c:	2f0a           	move.l a2,-(sp)
  f88c2e:	2f02           	move.l d2,-(sp)
  f88c30:	246f 0010      	movea.l 16(sp),a2
  f88c34:	4282           	clr.l d2
  f88c36:	b4af 000c      	cmp.l 12(sp),d2
  f88c3a:	6d06           	blt.s 0xf88c42
  f88c3c:	241f           	move.l (sp)+,d2
  f88c3e:	245f           	movea.l (sp)+,a2
  f88c40:	4e75           	rts
  f88c42:	2f1a           	move.l (a2)+,-(sp)
  f88c44:	61ff ffff bc48 	bsr.l 0xf8488e
  f88c4a:	5282           	addq.l #1,d2
  f88c4c:	588f           	addq.l #4,sp
  f88c4e:	60e6           	bra.s 0xf88c36
  f88c50:	48e7 383e      	movem.l d2-d4/a2-a6,-(sp)
  f88c54:	4878 0040      	pea 0x40
  f88c58:	61ff ffff bb7e 	bsr.l 0xf847d8
  f88c5e:	2440           	movea.l d0,a2
  f88c60:	588f           	addq.l #4,sp
  f88c62:	4a80           	tst.l d0
  f88c64:	660e           	bne.s 0xf88c74
  f88c66:	487a fe14      	pea 0xf88a7c(pc)
  f88c6a:	4878 0001      	pea 0x1
  f88c6e:	61ff ffff 9828 	bsr.l 0xf82498
  f88c74:	4212           	clr.b (a2)
  f88c76:	2c6f 0028      	movea.l 40(sp),a6
  f88c7a:	7440           	moveq #64,d2
  f88c7c:	47f8 0000      	lea 0x0,a3
  f88c80:	4283           	clr.l d3
  f88c82:	b6af 0024      	cmp.l 36(sp),d3
  f88c86:	6d1a           	blt.s 0xf88ca2
  f88c88:	4a12           	tst.b (a2)
  f88c8a:	660e           	bne.s 0xf88c9a
  f88c8c:	2f0a           	move.l a2,-(sp)
  f88c8e:	61ff ffff bbfe 	bsr.l 0xf8488e
  f88c94:	588f           	addq.l #4,sp
  f88c96:	45f8 0000      	lea 0x0,a2
  f88c9a:	200a           	move.l a2,d0
  f88c9c:	4cdf 7c1c      	movem.l (sp)+,d2-d4/a2-a6
  f88ca0:	4e75           	rts
  f88ca2:	281e           	move.l (a6)+,d4
  f88ca4:	2f04           	move.l d4,-(sp)
  f88ca6:	61ff 0000 254c 	bsr.l 0xf8b1f4
  f88cac:	588f           	addq.l #4,sp
  f88cae:	2a40           	movea.l d0,a5
  f88cb0:	41f5 b802      	lea (2,a5,a3.l),a0
  f88cb4:	b488           	cmp.l a0,d2
  f88cb6:	6418           	bcc.s 0xf88cd0
  f88cb8:	d482           	add.l d2,d2
  f88cba:	2f02           	move.l d2,-(sp)
  f88cbc:	2f0a           	move.l a2,-(sp)
  f88cbe:	61ff ffff bc60 	bsr.l 0xf84920
  f88cc4:	2440           	movea.l d0,a2
  f88cc6:	508f           	addq.l #8,sp
  f88cc8:	4a80           	tst.l d0
  f88cca:	679a           	beq.s 0xf88c66
  f88ccc:	4232 b800      	clr.b (0,a2,a3.l)
  f88cd0:	4a8b           	tst.l a3
  f88cd2:	6708           	beq.s 0xf88cdc
  f88cd4:	15bc 0020 b800 	move.b #32,(0,a2,a3.l)
  f88cda:	528b           	addq.l #1,a3
  f88cdc:	2f04           	move.l d4,-(sp)
  f88cde:	4872 b800      	pea (0,a2,a3.l)
  f88ce2:	61ff 0000 24fc 	bsr.l 0xf8b1e0
  f88ce8:	d7cd           	adda.l a5,a3
  f88cea:	5283           	addq.l #1,d3
  f88cec:	508f           	addq.l #8,sp
  f88cee:	6092           	bra.s 0xf88c82
  f88cf0:	4e6f           	move.l usp,sp
  f88cf2:	2076 616c 7565 	movea.l ([30053,a6],0),a0
  f88cf8:	2073 7570 706c 	movea.l (1886153061,a3),a0
  f88cfe:	6965 
  f88d00:	6400 2569      	bcc.w 0xf8b26b
  f88d04:	256e 0049 6e76 	move.l 73(a6),28278(a2)
  f88d0a:	616c           	bsr.s 0xf88d78
  f88d0c:	6964           	bvs.s 0xf88d72
  f88d0e:	2076 616c 7565 	movea.l ([30053,a6],0),a0
  f88d14:	2022           	move.l -(a2),d0
  f88d16:	2573 220a 252a 	move.l (10,a3,d2.w*2),9514(a2)
  f88d1c:	735e           	.short 0x735e
  f88d1e:	0a00 4e55      	eori.b #85,d0
  f88d22:	fffc           	.short 0xfffc
  f88d24:	2f0c           	move.l a4,-(sp)
  f88d26:	2f0a           	move.l a2,-(sp)
  f88d28:	246d 0008      	movea.l 8(a5),a2
  f88d2c:	42ad fffc      	clr.l -4(a5)
  f88d30:	4a12           	tst.b (a2)
  f88d32:	661a           	bne.s 0xf88d4e
  f88d34:	487a ffba      	pea 0xf88cf0(pc)
  f88d38:	61ff ffff b098 	bsr.l 0xf83dd2
  f88d3e:	588f           	addq.l #4,sp
  f88d40:	7002           	moveq #2,d0
  f88d42:	246d fff4      	movea.l -12(a5),a2
  f88d46:	286d fff8      	movea.l -8(a5),a4
  f88d4a:	4e5d           	unlk a5
  f88d4c:	4e75           	rts
  f88d4e:	486d fffc      	pea -4(a5)
  f88d52:	2f2d 000c      	move.l 12(a5),-(sp)
  f88d56:	487a ffaa      	pea 0xf88d02(pc)
  f88d5a:	2f0a           	move.l a2,-(sp)
  f88d5c:	61ff ffff a110 	bsr.l 0xf82e6e
  f88d62:	4fef 0010      	lea 16(sp),sp
  f88d66:	5380           	subq.l #1,d0
  f88d68:	660a           	bne.s 0xf88d74
  f88d6a:	202d fffc      	move.l -4(a5),d0
  f88d6e:	4a32 0800      	tst.b (0,a2,d0.l)
  f88d72:	671e           	beq.s 0xf88d92
  f88d74:	487a f623      	pea 0xf88399(pc)
  f88d78:	700f           	moveq #15,d0
  f88d7a:	d0ad fffc      	add.l -4(a5),d0
  f88d7e:	2f00           	move.l d0,-(sp)
  f88d80:	2f0a           	move.l a2,-(sp)
  f88d82:	487a ff83      	pea 0xf88d07(pc)
  f88d86:	61ff ffff 96d4 	bsr.l 0xf8245c
  f88d8c:	4fef 0010      	lea 16(sp),sp
  f88d90:	60ae           	bra.s 0xf88d40
  f88d92:	4280           	clr.l d0
  f88d94:	60ac           	bra.s 0xf88d42
  f88d96:	3b00           	move.w d0,-(a5)
  f88d98:	2626           	move.l -(a6),d3
  f88d9a:	007c 7c00      	ori.w #31744,sr
  f88d9e:	48e7 3f3e      	movem.l d2-d7/a2-a6,-(sp)
  f88da2:	2e2f 0030      	move.l 48(sp),d7
  f88da6:	246f 0034      	movea.l 52(sp),a2
  f88daa:	7a01           	moveq #1,d5
  f88dac:	4282           	clr.l d2
  f88dae:	4284           	clr.l d4
  f88db0:	4283           	clr.l d3
  f88db2:	47fa ffe2      	lea 0xf88d96(pc),a3
  f88db6:	4bfa ffe0      	lea 0xf88d98(pc),a5
  f88dba:	4dfa ffdf      	lea 0xf88d9b(pc),a6
  f88dbe:	be84           	cmp.l d4,d7
  f88dc0:	6e20           	bgt.s 0xf88de2
  f88dc2:	b883           	cmp.l d3,d4
  f88dc4:	6f00 00a8      	ble.w 0xf88e6e
  f88dc8:	2003           	move.l d3,d0
  f88dca:	e588           	lsl.l #2,d0
  f88dcc:	d08a           	add.l a2,d0
  f88dce:	2f40 0034      	move.l d0,52(sp)
  f88dd2:	9883           	sub.l d3,d4
  f88dd4:	2f44 0030      	move.l d4,48(sp)
  f88dd8:	4cdf 7cfc      	movem.l (sp)+,d2-d7/a2-a6
  f88ddc:	60ff ffff f748 	bra.l 0xf88526
  f88de2:	2c32 4c00      	move.l (0,a2,d4.l*4),d6
  f88de6:	2f0b           	move.l a3,-(sp)
  f88de8:	2f06           	move.l d6,-(sp)
  f88dea:	61ff 0000 237c 	bsr.l 0xf8b168
  f88df0:	508f           	addq.l #8,sp
  f88df2:	4a80           	tst.l d0
  f88df4:	6620           	bne.s 0xf88e16
  f88df6:	2003           	move.l d3,d0
  f88df8:	e588           	lsl.l #2,d0
  f88dfa:	4872 0800      	pea (0,a2,d0.l)
  f88dfe:	2004           	move.l d4,d0
  f88e00:	9083           	sub.l d3,d0
  f88e02:	2f00           	move.l d0,-(sp)
  f88e04:	61ff ffff f720 	bsr.l 0xf88526
  f88e0a:	2400           	move.l d0,d2
  f88e0c:	2605           	move.l d5,d3
  f88e0e:	508f           	addq.l #8,sp
  f88e10:	5284           	addq.l #1,d4
  f88e12:	5285           	addq.l #1,d5
  f88e14:	60a8           	bra.s 0xf88dbe
  f88e16:	2f0d           	move.l a5,-(sp)
  f88e18:	2f06           	move.l d6,-(sp)
  f88e1a:	61ff 0000 234c 	bsr.l 0xf8b168
  f88e20:	508f           	addq.l #8,sp
  f88e22:	4a80           	tst.l d0
  f88e24:	661e           	bne.s 0xf88e44
  f88e26:	2003           	move.l d3,d0
  f88e28:	e588           	lsl.l #2,d0
  f88e2a:	4872 0800      	pea (0,a2,d0.l)
  f88e2e:	2004           	move.l d4,d0
  f88e30:	9083           	sub.l d3,d0
  f88e32:	2f00           	move.l d0,-(sp)
  f88e34:	61ff ffff f6f0 	bsr.l 0xf88526
  f88e3a:	2400           	move.l d0,d2
  f88e3c:	508f           	addq.l #8,sp
  f88e3e:	662e           	bne.s 0xf88e6e
  f88e40:	2605           	move.l d5,d3
  f88e42:	60cc           	bra.s 0xf88e10
  f88e44:	2f0e           	move.l a6,-(sp)
  f88e46:	2f06           	move.l d6,-(sp)
  f88e48:	61ff 0000 231e 	bsr.l 0xf8b168
  f88e4e:	508f           	addq.l #8,sp
  f88e50:	4a80           	tst.l d0
  f88e52:	66bc           	bne.s 0xf88e10
  f88e54:	2003           	move.l d3,d0
  f88e56:	e588           	lsl.l #2,d0
  f88e58:	4872 0800      	pea (0,a2,d0.l)
  f88e5c:	2004           	move.l d4,d0
  f88e5e:	9083           	sub.l d3,d0
  f88e60:	2f00           	move.l d0,-(sp)
  f88e62:	61ff ffff f6c2 	bsr.l 0xf88526
  f88e68:	2400           	move.l d0,d2
  f88e6a:	508f           	addq.l #8,sp
  f88e6c:	66d2           	bne.s 0xf88e40
  f88e6e:	2002           	move.l d2,d0
  f88e70:	4cdf 7cfc      	movem.l (sp)+,d2-d7/a2-a6
  f88e74:	4e75           	rts
  f88e76:	706c           	moveq #108,d0
  f88e78:	6400 436c      	bcc.w 0xf8d1e6
  f88e7c:	6f73           	ble.s 0xf88ef1
  f88e7e:	6520           	bcs.s 0xf88ea0
  f88e80:	7061           	moveq #97,d0
  f88e82:	7265           	moveq #101,d1
  f88e84:	6e20           	bgt.s 0xf88ea6
  f88e86:	6265           	bhi.s 0xf88eed
  f88e88:	666f           	bne.s 0xf88ef9
  f88e8a:	7265           	moveq #101,d1
  f88e8c:	206f 7065      	movea.l 28773(sp),a0
  f88e90:	6e20           	bgt.s 0xf88eb2
  f88e92:	696e           	bvs.s 0xf88f02
  f88e94:	2065           	movea.l -(a5),a0
  f88e96:	7870           	moveq #112,d4
  f88e98:	7265           	moveq #101,d1
  f88e9a:	7373           	.short 0x7373
  f88e9c:	696f           	bvs.s 0xf88f0d
  f88e9e:	6e3a           	bgt.s 0xf88eda
  f88ea0:	0a20 2025      	eori.b #37,-(a0)
  f88ea4:	730a           	.short 0x730a
  f88ea6:	252a 7300      	move.l 29440(a2),-(a2)
  f88eaa:	4e55 fffc      	link.w a5,#-4
  f88eae:	48e7 3808      	movem.l d2-d4/a4,-(sp)
  f88eb2:	262d 0008      	move.l 8(a5),d3
  f88eb6:	2f03           	move.l d3,-(sp)
  f88eb8:	61ff ffff ba9c 	bsr.l 0xf84956
  f88ebe:	2400           	move.l d0,d2
  f88ec0:	2b40 fffc      	move.l d0,-4(a5)
  f88ec4:	588f           	addq.l #4,sp
  f88ec6:	6700 0090      	beq.w 0xf88f58
  f88eca:	2043           	movea.l d3,a0
  f88ecc:	2208           	move.l a0,d1
  f88ece:	2248           	movea.l a0,a1
  f88ed0:	1019           	move.b (a1)+,d0
  f88ed2:	0c00 0020      	cmpi.b #32,d0
  f88ed6:	6700 008e      	beq.w 0xf88f66
  f88eda:	0c00 0009      	cmpi.b #9,d0
  f88ede:	6700 0086      	beq.w 0xf88f66
  f88ee2:	2248           	movea.l a0,a1
  f88ee4:	1018           	move.b (a0)+,d0
  f88ee6:	0c00 0020      	cmpi.b #32,d0
  f88eea:	670c           	beq.s 0xf88ef8
  f88eec:	1600           	move.b d0,d3
  f88eee:	0603 00bf      	addi.b #-65,d3
  f88ef2:	0c03 0039      	cmpi.b #57,d3
  f88ef6:	6374           	bls.s 0xf88f6c
  f88ef8:	93c1           	suba.l d1,a1
  f88efa:	2f09           	move.l a1,-(sp)
  f88efc:	487a ff78      	pea 0xf88e76(pc)
  f88f00:	2f01           	move.l d1,-(sp)
  f88f02:	61ff 0000 2304 	bsr.l 0xf8b208
  f88f08:	4fef 000c      	lea 12(sp),sp
  f88f0c:	4a80           	tst.l d0
  f88f0e:	6700 009c      	beq.w 0xf88fac
  f88f12:	4282           	clr.l d2
  f88f14:	280d           	move.l a5,d4
  f88f16:	5984           	subq.l #4,d4
  f88f18:	262d fffc      	move.l -4(a5),d3
  f88f1c:	2043           	movea.l d3,a0
  f88f1e:	2008           	move.l a0,d0
  f88f20:	1218           	move.b (a0)+,d1
  f88f22:	6658           	bne.s 0xf88f7c
  f88f24:	2f04           	move.l d4,-(sp)
  f88f26:	9083           	sub.l d3,d0
  f88f28:	2f00           	move.l d0,-(sp)
  f88f2a:	2f03           	move.l d3,-(sp)
  f88f2c:	61ff ffff f6e2 	bsr.l 0xf88610
  f88f32:	4fef 000c      	lea 12(sp),sp
  f88f36:	5980           	subq.l #4,d0
  f88f38:	67de           	beq.s 0xf88f18
  f88f3a:	262d fffc      	move.l -4(a5),d3
  f88f3e:	2f03           	move.l d3,-(sp)
  f88f40:	61ff ffff ba14 	bsr.l 0xf84956
  f88f46:	2400           	move.l d0,d2
  f88f48:	588f           	addq.l #4,sp
  f88f4a:	670c           	beq.s 0xf88f58
  f88f4c:	2f03           	move.l d3,-(sp)
  f88f4e:	61ff ffff b93e 	bsr.l 0xf8488e
  f88f54:	588f           	addq.l #4,sp
  f88f56:	6054           	bra.s 0xf88fac
  f88f58:	487a fb22      	pea 0xf88a7c(pc)
  f88f5c:	4878 0001      	pea 0x1
  f88f60:	61ff ffff 9536 	bsr.l 0xf82498
  f88f66:	2049           	movea.l a1,a0
  f88f68:	6000 ff62      	bra.w 0xf88ecc
  f88f6c:	0600 00a5      	addi.b #-91,d0
  f88f70:	0c00 0005      	cmpi.b #5,d0
  f88f74:	6200 ff6c      	bhi.w 0xf88ee2
  f88f78:	6000 ff7e      	bra.w 0xf88ef8
  f88f7c:	0c01 0028      	cmpi.b #40,d1
  f88f80:	6750           	beq.s 0xf88fd2
  f88f82:	0c01 0029      	cmpi.b #41,d1
  f88f86:	6648           	bne.s 0xf88fd0
  f88f88:	4a82           	tst.l d2
  f88f8a:	662c           	bne.s 0xf88fb8
  f88f8c:	487a f40b      	pea 0xf88399(pc)
  f88f90:	9083           	sub.l d3,d0
  f88f92:	2f00           	move.l d0,-(sp)
  f88f94:	2f03           	move.l d3,-(sp)
  f88f96:	487a fee2      	pea 0xf88e7a(pc)
  f88f9a:	61ff ffff 94c0 	bsr.l 0xf8245c
  f88fa0:	2f03           	move.l d3,-(sp)
  f88fa2:	61ff ffff b8ea 	bsr.l 0xf8488e
  f88fa8:	4fef 0014      	lea 20(sp),sp
  f88fac:	2002           	move.l d2,d0
  f88fae:	4ced 101c ffec 	movem.l -20(a5),d2-d4/a4
  f88fb4:	4e5d           	unlk a5
  f88fb6:	4e75           	rts
  f88fb8:	2f04           	move.l d4,-(sp)
  f88fba:	5280           	addq.l #1,d0
  f88fbc:	9082           	sub.l d2,d0
  f88fbe:	2f00           	move.l d0,-(sp)
  f88fc0:	2f02           	move.l d2,-(sp)
  f88fc2:	61ff ffff f64c 	bsr.l 0xf88610
  f88fc8:	4fef 000c      	lea 12(sp),sp
  f88fcc:	6000 ff4a      	bra.w 0xf88f18
  f88fd0:	2002           	move.l d2,d0
  f88fd2:	2400           	move.l d0,d2
  f88fd4:	6000 ff48      	bra.w 0xf88f1e
  f88fd8:	4fef ff00      	lea -256(sp),sp
  f88fdc:	48e7 3800      	movem.l d2-d4,-(sp)
  f88fe0:	2f2f 0110      	move.l 272(sp),-(sp)
  f88fe4:	61ff ffff fec4 	bsr.l 0xf88eaa
  f88fea:	2400           	move.l d0,d2
  f88fec:	588f           	addq.l #4,sp
  f88fee:	673e           	beq.s 0xf8902e
  f88ff0:	780c           	moveq #12,d4
  f88ff2:	d88f           	add.l sp,d4
  f88ff4:	2f04           	move.l d4,-(sp)
  f88ff6:	2f00           	move.l d0,-(sp)
  f88ff8:	61ff ffff fab0 	bsr.l 0xf88aaa
  f88ffe:	2600           	move.l d0,d3
  f89000:	2f02           	move.l d2,-(sp)
  f89002:	61ff ffff b88a 	bsr.l 0xf8488e
  f89008:	2f04           	move.l d4,-(sp)
  f8900a:	2f03           	move.l d3,-(sp)
  f8900c:	61ff ffff fd90 	bsr.l 0xf88d9e
  f89012:	2400           	move.l d0,d2
  f89014:	2f04           	move.l d4,-(sp)
  f89016:	2f03           	move.l d3,-(sp)
  f89018:	61ff ffff fc12 	bsr.l 0xf88c2c
  f8901e:	4fef 001c      	lea 28(sp),sp
  f89022:	2002           	move.l d2,d0
  f89024:	4cdf 001c      	movem.l (sp)+,d2-d4
  f89028:	4fef 0100      	lea 256(sp),sp
  f8902c:	4e75           	rts
  f8902e:	7402           	moveq #2,d2
  f89030:	60f0           	bra.s 0xf89022
  f89032:	434d           	.short 0x434d
  f89034:	443e           	.short 0x443e
  f89036:	2000           	move.l d0,d0
  f89038:	7100           	.short 0x7100
  f8903a:	7175           	.short 0x7175
  f8903c:	6974           	bvs.s 0xf890b2
  f8903e:	0000 4e55      	ori.b #85,d0
  f89042:	fffc           	.short 0xfffc
  f89044:	2f0c           	move.l a4,-(sp)
  f89046:	2f0a           	move.l a2,-(sp)
  f89048:	486d fffc      	pea -4(a5)
  f8904c:	487a ffe4      	pea 0xf89032(pc)
  f89050:	61ff 0000 0a7c 	bsr.l 0xf89ace
  f89056:	202d fffc      	move.l -4(a5),d0
  f8905a:	508f           	addq.l #8,sp
  f8905c:	6764           	beq.s 0xf890c2
  f8905e:	2440           	movea.l d0,a2
  f89060:	1212           	move.b (a2),d1
  f89062:	5280           	addq.l #1,d0
  f89064:	0c01 0020      	cmpi.b #32,d1
  f89068:	67f4           	beq.s 0xf8905e
  f8906a:	0c01 0009      	cmpi.b #9,d1
  f8906e:	67ee           	beq.s 0xf8905e
  f89070:	2f0a           	move.l a2,-(sp)
  f89072:	61ff 0000 2180 	bsr.l 0xf8b1f4
  f89078:	588f           	addq.l #4,sp
  f8907a:	41f2 08ff      	lea (-1,a2,d0.l),a0
  f8907e:	b1ca           	cmpa.l a2,a0
  f89080:	6312           	bls.s 0xf89094
  f89082:	1010           	move.b (a0),d0
  f89084:	0c00 0020      	cmpi.b #32,d0
  f89088:	6746           	beq.s 0xf890d0
  f8908a:	0c00 0009      	cmpi.b #9,d0
  f8908e:	6740           	beq.s 0xf890d0
  f89090:	4228 0001      	clr.b 1(a0)
  f89094:	4a12           	tst.b (a2)
  f89096:	672a           	beq.s 0xf890c2
  f89098:	487a ff9e      	pea 0xf89038(pc)
  f8909c:	2f0a           	move.l a2,-(sp)
  f8909e:	61ff 0000 20c8 	bsr.l 0xf8b168
  f890a4:	508f           	addq.l #8,sp
  f890a6:	4a80           	tst.l d0
  f890a8:	6712           	beq.s 0xf890bc
  f890aa:	487a ff8e      	pea 0xf8903a(pc)
  f890ae:	2f0a           	move.l a2,-(sp)
  f890b0:	61ff 0000 20b6 	bsr.l 0xf8b168
  f890b6:	508f           	addq.l #8,sp
  f890b8:	4a80           	tst.l d0
  f890ba:	6618           	bne.s 0xf890d4
  f890bc:	206d fffc      	movea.l -4(a5),a0
  f890c0:	4210           	clr.b (a0)
  f890c2:	4280           	clr.l d0
  f890c4:	246d fff4      	movea.l -12(a5),a2
  f890c8:	286d fff8      	movea.l -8(a5),a4
  f890cc:	4e5d           	unlk a5
  f890ce:	4e75           	rts
  f890d0:	5388           	subq.l #1,a0
  f890d2:	60aa           	bra.s 0xf8907e
  f890d4:	202c 9106      	move.l -28410(a4),d0
  f890d8:	0680 0000 01ff 	addi.l #511,d0
  f890de:	2f00           	move.l d0,-(sp)
  f890e0:	61ff 0000 07d6 	bsr.l 0xf898b8
  f890e6:	2040           	movea.l d0,a0
  f890e8:	588f           	addq.l #4,sp
  f890ea:	4a80           	tst.l d0
  f890ec:	6710           	beq.s 0xf890fe
  f890ee:	2f10           	move.l (a0),-(sp)
  f890f0:	2f0a           	move.l a2,-(sp)
  f890f2:	61ff 0000 2074 	bsr.l 0xf8b168
  f890f8:	508f           	addq.l #8,sp
  f890fa:	4a80           	tst.l d0
  f890fc:	670a           	beq.s 0xf89108
  f890fe:	2f0a           	move.l a2,-(sp)
  f89100:	61ff 0000 07b4 	bsr.l 0xf898b6
  f89106:	588f           	addq.l #4,sp
  f89108:	2f0a           	move.l a2,-(sp)
  f8910a:	61ff ffff fecc 	bsr.l 0xf88fd8
  f89110:	206d fffc      	movea.l -4(a5),a0
  f89114:	4210           	clr.b (a0)
  f89116:	588f           	addq.l #4,sp
  f89118:	60a8           	bra.s 0xf890c2
  f8911a:	2100           	move.l d0,-(a0)
  f8911c:	7e00           	moveq #0,d7
  f8911e:	2a00           	move.l d0,d5
  f89120:	2f00           	move.l d0,-(sp)
  f89122:	2500           	move.l d0,-(a2)
  f89124:	2b00           	move.l d0,-(a5)
  f89126:	2d00           	move.l d0,-(a6)
  f89128:	3e3e           	.short 0x3e3e
  f8912a:	003c 3c00      	ori.b #0,ccr
  f8912e:	3c3d           	.short 0x3c3d
  f89130:	003c 003e      	ori.b #62,ccr
  f89134:	3d00           	move.w d0,-(a6)
  f89136:	3e00           	move.w d0,d7
  f89138:	3d3d           	.short 0x3d3d
  f8913a:	0021 3d00      	ori.b #0,-(a1)
  f8913e:	2600           	move.l d0,d3
  f89140:	5e00           	addq.b #7,d0
  f89142:	7c00           	moveq #0,d6
  f89144:	00f8           	.short 0x00f8
  f89146:	820c           	.short 0x820c
  f89148:	00f8           	.short 0x00f8
  f8914a:	911a           	sub.b d0,(a2)+
  f8914c:	0000 0001      	ori.b #1,d0
  f89150:	0000 0000      	ori.b #0,d0
  f89154:	0000 0001      	ori.b #1,d0
  f89158:	00f8           	.short 0x00f8
  f8915a:	8226           	or.b -(a6),d1
  f8915c:	00f8           	.short 0x00f8
  f8915e:	911c           	sub.b d0,(a4)+
  f89160:	0000 0001      	ori.b #1,d0
  f89164:	0000 0000      	ori.b #0,d0
  f89168:	0000 0001      	ori.b #1,d0
  f8916c:	00f8           	.short 0x00f8
  f8916e:	8154           	or.w d0,(a4)
  f89170:	00f8           	.short 0x00f8
  f89172:	911e           	sub.b d0,(a6)+
  f89174:	0000 0001      	ori.b #1,d0
  f89178:	0000 0002      	ori.b #2,d0
  f8917c:	0000 0002      	ori.b #2,d0
  f89180:	00f8           	.short 0x00f8
  f89182:	8170 00f8      	or.w d0,(-8,a0,d0.w)
  f89186:	9120           	sub.b d0,-(a0)
  f89188:	0000 0001      	ori.b #1,d0
  f8918c:	0000 0002      	ori.b #2,d0
  f89190:	0000 0002      	ori.b #2,d0
  f89194:	00f8           	.short 0x00f8
  f89196:	819c           	or.l d0,(a4)+
  f89198:	00f8           	.short 0x00f8
  f8919a:	9122           	sub.b d0,-(a2)
  f8919c:	0000 0001      	ori.b #1,d0
  f891a0:	0000 0002      	ori.b #2,d0
  f891a4:	0000 0002      	ori.b #2,d0
  f891a8:	00f8           	.short 0x00f8
  f891aa:	8124           	or.b d0,-(a4)
  f891ac:	00f8           	.short 0x00f8
  f891ae:	9124           	sub.b d0,-(a4)
  f891b0:	0000 0001      	ori.b #1,d0
  f891b4:	0000 0003      	ori.b #3,d0
  f891b8:	0000 0002      	ori.b #2,d0
  f891bc:	00f8           	.short 0x00f8
  f891be:	813c           	.short 0x813c
  f891c0:	00f8           	.short 0x00f8
  f891c2:	9126           	sub.b d0,-(a6)
  f891c4:	0000 0001      	ori.b #1,d0
  f891c8:	0000 0003      	ori.b #3,d0
  f891cc:	0000 0002      	ori.b #2,d0
  f891d0:	00f8           	.short 0x00f8
  f891d2:	8234 00f8      	or.b (-8,a4,d0.w),d1
  f891d6:	9128 0000      	sub.b d0,0(a0)
  f891da:	0002 0000      	ori.b #0,d2
  f891de:	0004 0000      	ori.b #0,d4
  f891e2:	0002 00f8      	ori.b #-8,d2
  f891e6:	824c           	.short 0x824c
  f891e8:	00f8           	.short 0x00f8
  f891ea:	912b 0000      	sub.b d0,0(a3)
  f891ee:	0002 0000      	ori.b #0,d2
  f891f2:	0004 0000      	ori.b #0,d4
  f891f6:	0002 00f8      	ori.b #-8,d2
  f891fa:	82d6           	divu.w (a6),d1
  f891fc:	00f8           	.short 0x00f8
  f891fe:	912e 0000      	sub.b d0,0(a6)
  f89202:	0002 0000      	ori.b #0,d2
  f89206:	0005 0000      	ori.b #0,d5
  f8920a:	0002 00f8      	ori.b #-8,d2
  f8920e:	82b0 00f8      	or.l (-8,a0,d0.w),d1
  f89212:	9131 0000      	sub.b d0,(0,a1,d0.w)
  f89216:	0001 0000      	ori.b #0,d1
  f8921a:	0005 0000      	ori.b #0,d5
  f8921e:	0002 00f8      	ori.b #-8,d2
  f89222:	8264           	or.w -(a4),d1
  f89224:	00f8           	.short 0x00f8
  f89226:	9133 0000      	sub.b d0,(0,a3,d0.w)
  f8922a:	0002 0000      	ori.b #0,d2
  f8922e:	0005 0000      	ori.b #0,d5
  f89232:	0002 00f8      	ori.b #-8,d2
  f89236:	828a           	.short 0x828a
  f89238:	00f8           	.short 0x00f8
  f8923a:	9136 0000      	sub.b d0,(0,a6,d0.w)
  f8923e:	0001 0000      	ori.b #0,d1
  f89242:	0005 0000      	ori.b #0,d5
  f89246:	0002 00f8      	ori.b #-8,d2
  f8924a:	82fc 00f8      	divu.w #248,d1
  f8924e:	9138 0000      	sub.b d0,0x0
  f89252:	0002 0000      	ori.b #0,d2
  f89256:	0006 0000      	ori.b #0,d6
  f8925a:	0002 00f8      	ori.b #-8,d2
  f8925e:	8322           	or.b d1,-(a2)
  f89260:	00f8           	.short 0x00f8
  f89262:	913b           	.short 0x913b
  f89264:	0000 0002      	ori.b #2,d0
  f89268:	0000 0006      	ori.b #6,d0
  f8926c:	0000 0002      	ori.b #2,d0
  f89270:	00f8           	.short 0x00f8
  f89272:	81ce           	.short 0x81ce
  f89274:	00f8           	.short 0x00f8
  f89276:	913e           	.short 0x913e
  f89278:	0000 0001      	ori.b #1,d0
  f8927c:	0000 0007      	ori.b #7,d0
  f89280:	0000 0002      	ori.b #2,d0
  f89284:	00f8           	.short 0x00f8
  f89286:	81e0           	divs.w -(a0),d0
  f89288:	00f8           	.short 0x00f8
  f8928a:	9140           	subx.w d0,d0
  f8928c:	0000 0001      	ori.b #1,d0
  f89290:	0000 0008      	ori.b #8,d0
  f89294:	0000 0002      	ori.b #2,d0
  f89298:	00f8           	.short 0x00f8
  f8929a:	81fa 00f8      	divs.w 0xf89394(pc),d0
  f8929e:	9142           	subx.w d2,d0
  f892a0:	0000 0001      	ori.b #1,d0
  f892a4:	0000 0009      	ori.b #9,d0
  f892a8:	0000 0002      	ori.b #2,d0
  f892ac:	00f8           	.short 0x00f8
  f892ae:	8348 00f8      	pack -(a0),-(a1),#248
  f892b2:	8d98           	or.l d6,(a0)+
  f892b4:	0000 0002      	ori.b #2,d0
  f892b8:	0000 000a      	ori.b #10,d0
  f892bc:	0000 0002      	ori.b #2,d0
  f892c0:	00f8           	.short 0x00f8
  f892c2:	836e 00f8      	or.w d1,248(a6)
  f892c6:	8d9b           	or.l d6,(a3)+
  f892c8:	0000 0002      	ori.b #2,d0
  f892cc:	0000 000b      	ori.b #11,d0
  f892d0:	0000 0002      	ori.b #2,d0
  f892d4:	3f00           	move.w d0,-(sp)
  f892d6:	205b           	movea.l (a3)+,a0
  f892d8:	3c63           	movea.w -(a3),a6
  f892da:	6d64           	blt.s 0xf89340
  f892dc:	3e5d           	movea.w (a5)+,sp
  f892de:	0064 6973      	ori.w #26995,-(a4)
  f892e2:	706c           	moveq #108,d0
  f892e4:	6179           	bsr.s 0xf8935f
  f892e6:	2068 656c      	movea.l 25964(a0),a0
  f892ea:	7000           	moveq #0,d0
  f892ec:	6163           	bsr.s 0xf89351
  f892ee:	6f6e           	ble.s 0xf8935e
  f892f0:	6669           	bne.s 0xf8935b
  f892f2:	6700 205b      	beq.w 0xf8b34f
  f892f6:	6175           	bsr.s 0xf8936d
  f892f8:	746f           	moveq #111,d2
  f892fa:	7c62           	moveq #98,d6
  f892fc:	6f61           	ble.s 0xf8935f
  f892fe:	7264           	moveq #100,d1
  f89300:	7c6c           	moveq #108,d6
  f89302:	6973           	bvs.s 0xf89377
  f89304:	747c           	moveq #124,d2
  f89306:	3f5d 006d      	move.w (a5)+,109(sp)
  f8930a:	616e           	bsr.s 0xf8937a
  f8930c:	7561           	.short 0x7561
  f8930e:	6c20           	bge.s 0xf89330
  f89310:	6175           	bsr.s 0xf89387
  f89312:	746f           	moveq #111,d2
  f89314:	636f           	bls.s 0xf89385
  f89316:	6e66           	bgt.s 0xf8937e
  f89318:	6967           	bvs.s 0xf89381
  f8931a:	0063 6f70      	ori.w #28528,-(a3)
  f8931e:	7900           	.short 0x7900
  f89320:	5b62           	subq.w #5,-(a2)
  f89322:	776c           	.short 0x776c
  f89324:	716f           	.short 0x716f
  f89326:	685d           	bvc.s 0xf89385
  f89328:	203c 7361 6464 	move.l #1935762532,d0
  f8932e:	723e           	moveq #62,d1
  f89330:	203c 6461 6464 	move.l #1684104292,d0
  f89336:	723e           	moveq #62,d1
  f89338:	203c 6c65 6e3e 	move.l #1818586686,d0
  f8933e:	0063 6f70      	ori.w #28528,-(a3)
  f89342:	7920           	.short 0x7920
  f89344:	6d65           	blt.s 0xf893ab
  f89346:	6d6f           	blt.s 0xf893b7
  f89348:	7279           	moveq #121,d1
  f8934a:	0063 6f6d      	ori.w #28525,-(a3)
  f8934e:	7000           	moveq #0,d0
  f89350:	5b62           	subq.w #5,-(a2)
  f89352:	776c           	.short 0x776c
  f89354:	716f           	.short 0x716f
  f89356:	685d           	bvc.s 0xf893b5
  f89358:	203c 6164 6472 	move.l #1633969266,d0
  f8935e:	313e           	.short 0x313e
  f89360:	203c 6164 6472 	move.l #1633969266,d0
  f89366:	323e           	.short 0x323e
  f89368:	203c 6c65 6e3e 	move.l #1818586686,d0
  f8936e:	0063 6f6d      	ori.w #28525,-(a3)
  f89372:	7061           	moveq #97,d0
  f89374:	7265           	moveq #101,d1
  f89376:	206d 656d      	movea.l 25965(a5),a0
  f8937a:	6f72           	ble.s 0xf893ee
  f8937c:	7900           	.short 0x7900
  f8937e:	6300 5b62      	bls.w 0xf8eee2
  f89382:	776c           	.short 0x776c
  f89384:	716f           	.short 0x716f
  f89386:	6853           	bvc.s 0xf893db
  f89388:	5d20           	subq.b #6,-(a0)
  f8938a:	3c61           	movea.w -(a1),a6
  f8938c:	6464           	bcc.s 0xf893f2
  f8938e:	723e           	moveq #62,d1
  f89390:	203c 7661 6c75 	move.l #1986096245,d0
  f89396:	652e           	bcs.s 0xf893c6
  f89398:	2e2e 3e00      	move.l 15872(a6),d7
  f8939c:	6368           	bls.s 0xf89406
  f8939e:	616e           	bsr.s 0xf8940e
  f893a0:	6765           	beq.s 0xf89407
  f893a2:	206d 656d      	movea.l 25965(a5),a0
  f893a6:	6f72           	ble.s 0xf8941a
  f893a8:	7900           	.short 0x7900
  f893aa:	6465           	bcc.s 0xf89411
  f893ac:	6c61           	bge.s 0xf8940f
  f893ae:	7900           	.short 0x7900
  f893b0:	3c74 696d 653e 	movea.w ([25918,a4],0),a6
  f893b6:	205b           	movea.l (a3)+,a0
  f893b8:	737c           	.short 0x737c
  f893ba:	6d73           	blt.s 0xf8942f
  f893bc:	7c75           	moveq #117,d6
  f893be:	735d           	.short 0x735d
  f893c0:	0064 656c      	ori.w #25964,-(a4)
  f893c4:	6179           	bsr.s 0xf8943f
  f893c6:	2066           	movea.l -(a6),a0
  f893c8:	6f72           	ble.s 0xf8943c
  f893ca:	2074 696d 6500 	movea.l ([25856,a4],0),a0
  f893d0:	6400 5b62      	bcc.w 0xf8ef34
  f893d4:	776c           	.short 0x776c
  f893d6:	716f           	.short 0x716f
  f893d8:	6852           	bvc.s 0xf8942c
  f893da:	535d           	subq.w #1,(a5)+
  f893dc:	203c 6164 6472 	move.l #1633969266,d0
  f893e2:	3e20           	move.w -(a0),d7
  f893e4:	5b3c           	.short 0x5b3c
  f893e6:	6c65           	bge.s 0xf8944d
  f893e8:	6e3e           	bgt.s 0xf89428
  f893ea:	5d00           	subq.b #6,d0
  f893ec:	6469           	bcc.s 0xf89457
  f893ee:	7370           	.short 0x7370
  f893f0:	6c61           	bge.s 0xf89453
  f893f2:	7920           	.short 0x7920
  f893f4:	6d65           	blt.s 0xf8945b
  f893f6:	6d6f           	blt.s 0xf89467
  f893f8:	7279           	moveq #121,d1
  f893fa:	0065 6368      	ori.w #25448,-(a5)
  f893fe:	6f00 203c      	ble.w 0xf8b43c
  f89402:	7465           	moveq #101,d2
  f89404:	7874           	moveq #116,d4
  f89406:	3e00           	move.w d0,d7
  f89408:	6469           	bcc.s 0xf89473
  f8940a:	7370           	.short 0x7370
  f8940c:	6c61           	bge.s 0xf8946f
  f8940e:	7920           	.short 0x7920
  f89410:	7465           	moveq #101,d2
  f89412:	7874           	moveq #116,d4
  f89414:	0069 676e 6f72 	ori.w #26478,28530(a1)
  f8941a:	6500 203c      	bcs.w 0xf8b458
  f8941e:	636d           	bls.s 0xf8948d
  f89420:	643e           	bcc.s 0xf89460
  f89422:	0069 676e 6f72 	ori.w #26478,28530(a1)
  f89428:	6520           	bcs.s 0xf8944a
  f8942a:	7265           	moveq #101,d1
  f8942c:	7375           	.short 0x7375
  f8942e:	6c74           	bge.s 0xf894a4
  f89430:	206f 6620      	movea.l 26144(sp),a0
  f89434:	636f           	bls.s 0xf894a5
  f89436:	6d6d           	blt.s 0xf894a5
  f89438:	616e           	bsr.s 0xf894a8
  f8943a:	6400 6865      	bcc.w 0xf8fca1
  f8943e:	6c70           	bge.s 0xf894b0
  f89440:	0068 6973 746f 	ori.w #26995,29807(a0)
  f89446:	7279           	moveq #121,d1
  f89448:	0073 686f 7720 	ori.w #26735,(26729,a3,d7.w*8)
  f8944e:	6869 
  f89450:	7374           	.short 0x7374
  f89452:	6f72           	ble.s 0xf894c6
  f89454:	7900           	.short 0x7900
  f89456:	6c6f           	bge.s 0xf894c7
  f89458:	6f70           	ble.s 0xf894ca
  f8945a:	0020 3c63      	ori.b #99,-(a0)
  f8945e:	6f75           	ble.s 0xf894d5
  f89460:	6e74           	bgt.s 0xf894d6
  f89462:	3e20           	move.w -(a0),d7
  f89464:	3c63           	movea.w -(a3),a6
  f89466:	6d64           	blt.s 0xf894cc
  f89468:	3e00           	move.w d0,d7
  f8946a:	6578           	bcs.s 0xf894e4
  f8946c:	6563           	bcs.s 0xf894d1
  f8946e:	7574           	.short 0x7574
  f89470:	6520           	bcs.s 0xf89492
  f89472:	636f           	bls.s 0xf894e3
  f89474:	6d6d           	blt.s 0xf894e3
  f89476:	616e           	bsr.s 0xf894e6
  f89478:	6420           	bcc.s 0xf8949a
  f8947a:	6d75           	blt.s 0xf894f1
  f8947c:	6c74           	bge.s 0xf894f2
  f8947e:	6970           	bvs.s 0xf894f0
  f89480:	6c65           	bge.s 0xf894e7
  f89482:	2074 696d 6573 	movea.l ([25971,a4],0),a0
  f89488:	0070 7269 6e74 	ori.w #29289,(116,a0,d6.l*8)
  f8948e:	0070 6174 7400 	ori.w #24948,(0,a0,d7.w*4)
  f89494:	5b62           	subq.w #5,-(a2)
  f89496:	776c           	.short 0x776c
  f89498:	716f           	.short 0x716f
  f8949a:	685d           	bvc.s 0xf894f9
  f8949c:	203c 6164 6472 	move.l #1633969266,d0
  f894a2:	3e20           	move.w -(a0),d7
  f894a4:	3c6c 656e      	movea.w 25966(a4),a6
  f894a8:	3e20           	move.w -(a0),d7
  f894aa:	3c70 6174 7465 	movea.w ([1952805486,a0],0),a6
  f894b0:	726e 
  f894b2:	3e00           	move.w d0,d7
  f894b4:	7061           	moveq #97,d0
  f894b6:	7474           	moveq #116,d2
  f894b8:	6572           	bcs.s 0xf8952c
  f894ba:	6e20           	bgt.s 0xf894dc
  f894bc:	6d65           	blt.s 0xf89523
  f894be:	6d6f           	blt.s 0xf8952f
  f894c0:	7279           	moveq #121,d1
  f894c2:	0074 6573 7400 	ori.w #25971,(0,a4,d7.w*4)
  f894c8:	5b62           	subq.w #5,-(a2)
  f894ca:	776c           	.short 0x776c
  f894cc:	716f           	.short 0x716f
  f894ce:	685d           	bvc.s 0xf8952d
  f894d0:	203c 6164 6472 	move.l #1633969266,d0
  f894d6:	3e20           	move.w -(a0),d7
  f894d8:	3c6c 3e20      	movea.w 15904(a4),a6
  f894dc:	3c6d 6f64      	movea.w 28516(a5),a6
  f894e0:	653e           	bcs.s 0xf89520
  f894e2:	205b           	movea.l (a3)+,a0
  f894e4:	3c70 3e5d      	movea.w (93,a0,d3.l*8),a6
  f894e8:	0074 6573 7420 	ori.w #25971,(32,a4,d7.w*4)
  f894ee:	6d65           	blt.s 0xf89555
  f894f0:	6d6f           	blt.s 0xf89561
  f894f2:	7279           	moveq #121,d1
  f894f4:	0074 696d 6500 	ori.w #26989,(0,a4,d6.w*4)
  f894fa:	2063           	movea.l -(a3),a0
  f894fc:	6d64           	blt.s 0xf89562
  f894fe:	203c 636d 643e 	move.l #1668113470,d0
  f89504:	006d 6561 7375 	ori.w #25953,29557(a5)
  f8950a:	7265           	moveq #101,d1
  f8950c:	2063           	movea.l -(a3),a0
  f8950e:	6f6d           	ble.s 0xf8957d
  f89510:	6d61           	blt.s 0xf89573
  f89512:	6e64           	bgt.s 0xf89578
  f89514:	2065           	movea.l -(a5),a0
  f89516:	7865           	moveq #101,d4
  f89518:	6375           	bls.s 0xf8958f
  f8951a:	7469           	moveq #105,d2
  f8951c:	6f6e           	ble.s 0xf8958c
  f8951e:	2074 696d 6500 	movea.l ([25856,a4],0),a0
  f89524:	7265           	moveq #101,d1
  f89526:	7365           	.short 0x7365
  f89528:	7400           	moveq #0,d2
  f8952a:	7265           	moveq #101,d1
  f8952c:	7365           	.short 0x7365
  f8952e:	7420           	moveq #32,d2
  f89530:	416d           	.short 0x416d
  f89532:	6967           	bvs.s 0xf8959b
  f89534:	6100 7768      	bsr.w 0xf90c9e
  f89538:	6174           	bsr.s 0xf895ae
  f8953a:	0073 686f 7720 	ori.w #26735,(29285,a3,d7.w*8)
  f89540:	7265 
  f89542:	6365           	bls.s 0xf895a9
  f89544:	6e74           	bgt.s 0xf895ba
  f89546:	206f 7574      	movea.l 30068(sp),a0
  f8954a:	7075           	moveq #117,d0
  f8954c:	7400           	moveq #0,d2
  f8954e:	7665           	moveq #101,d3
  f89550:	7273           	moveq #115,d1
  f89552:	696f           	bvs.s 0xf895c3
  f89554:	6e00 7368      	bgt.w 0xf908be
  f89558:	6f77           	ble.s 0xf895d1
  f8955a:	2076 6572 7369 	movea.l ([1936289646,a6],0),a0
  f89560:	6f6e 0000 
  f89564:	00f8           	.short 0x00f8
  f89566:	83c6           	divs.w d6,d1
  f89568:	00f8           	.short 0x00f8
  f8956a:	92d4           	suba.w (a4),a1
  f8956c:	0000 0000      	ori.b #0,d0
  f89570:	0000 0000      	ori.b #0,d0
  f89574:	00f8           	.short 0x00f8
  f89576:	92d6           	suba.w (a6),a1
  f89578:	00f8           	.short 0x00f8
  f8957a:	92df           	suba.w (sp)+,a1
  f8957c:	00f8           	.short 0x00f8
  f8957e:	1512           	move.b (a2),-(a2)
  f89580:	00f8           	.short 0x00f8
  f89582:	92ec 0000      	suba.w 0(a4),a1
  f89586:	0002 00f8      	ori.b #-8,d2
  f8958a:	1c0f           	.short 0x1c0f
  f8958c:	00f8           	.short 0x00f8
  f8958e:	92f4 00f8      	suba.w (-8,a4,d0.w),a1
  f89592:	9309           	subx.b -(a1),-(a1)
  f89594:	00f8           	.short 0x00f8
  f89596:	5e2a 00f8      	addq.b #7,248(a2)
  f8959a:	931b           	sub.b d1,(a3)+
  f8959c:	0000 0003      	ori.b #3,d0
  f895a0:	00f8           	.short 0x00f8
  f895a2:	7ce2           	moveq #-30,d6
  f895a4:	00f8           	.short 0x00f8
  f895a6:	9320           	sub.b d1,-(a0)
  f895a8:	00f8           	.short 0x00f8
  f895aa:	933f           	.short 0x933f
  f895ac:	00f8           	.short 0x00f8
  f895ae:	5afc           	trapp.l
  f895b0:	00f8           	.short 0x00f8
  f895b2:	934b           	subx.w -(a3),-(a1)
  f895b4:	0000 0002      	ori.b #2,d0
  f895b8:	00f8           	.short 0x00f8
  f895ba:	7d82           	.short 0x7d82
  f895bc:	00f8           	.short 0x00f8
  f895be:	9350           	sub.w d1,(a0)
  f895c0:	00f8           	.short 0x00f8
  f895c2:	936f 00f8      	sub.w d1,248(sp)
  f895c6:	58f4 00f8      	svc (-8,a4,d0.w)
  f895ca:	937e           	.short 0x937e
  f895cc:	0000 0001      	ori.b #1,d0
  f895d0:	00f8           	.short 0x00f8
  f895d2:	7e20           	moveq #32,d7
  f895d4:	00f8           	.short 0x00f8
  f895d6:	9380           	subx.l d0,d1
  f895d8:	00f8           	.short 0x00f8
  f895da:	939c           	sub.l d1,(a4)+
  f895dc:	00f8           	.short 0x00f8
  f895de:	6850           	bvc.s 0xf89630
  f895e0:	00f8           	.short 0x00f8
  f895e2:	93aa 0000      	sub.l d1,0(a2)
  f895e6:	0002 0000      	ori.b #0,d2
  f895ea:	0000 00f8      	ori.b #-8,d0
  f895ee:	93b0 00f8      	sub.l d1,(-8,a0,d0.w)
  f895f2:	93c1           	suba.l d1,a1
  f895f4:	00f8           	.short 0x00f8
  f895f6:	606e           	bra.s 0xf89666
  f895f8:	00f8           	.short 0x00f8
  f895fa:	93d0           	suba.l (a0),a1
  f895fc:	0000 0001      	ori.b #1,d0
  f89600:	00f8           	.short 0x00f8
  f89602:	7bab           	.short 0x7bab
  f89604:	00f8           	.short 0x00f8
  f89606:	93d2           	suba.l (a2),a1
  f89608:	00f8           	.short 0x00f8
  f8960a:	93ec 00f8      	suba.l 248(a4),a1
  f8960e:	645e           	bcc.s 0xf8966e
  f89610:	00f8           	.short 0x00f8
  f89612:	93fb 0000      	suba.l (0xf89614,pc,d0.w),a1
  f89616:	0000 0000      	ori.b #0,d0
  f8961a:	0000 00f8      	ori.b #-8,d0
  f8961e:	9400           	sub.b d0,d2
  f89620:	00f8           	.short 0x00f8
  f89622:	9408           	.short 0x9408
  f89624:	00f8           	.short 0x00f8
  f89626:	64dc           	bcc.s 0xf89604
  f89628:	00f8           	.short 0x00f8
  f8962a:	9415           	sub.b (a5),d2
  f8962c:	0000 0000      	ori.b #0,d0
  f89630:	0000 0000      	ori.b #0,d0
  f89634:	00f8           	.short 0x00f8
  f89636:	941c           	sub.b (a4)+,d2
  f89638:	00f8           	.short 0x00f8
  f8963a:	9423           	sub.b -(a3),d2
  f8963c:	00f8           	.short 0x00f8
  f8963e:	83c6           	divs.w d6,d1
  f89640:	00f8           	.short 0x00f8
  f89642:	943c 0000      	sub.b #0,d2
  f89646:	0000 0000      	ori.b #0,d0
  f8964a:	0000 00f8      	ori.b #-8,d0
  f8964e:	92d6           	suba.w (a6),a1
  f89650:	00f8           	.short 0x00f8
  f89652:	92df           	suba.w (sp)+,a1
  f89654:	00f8           	.short 0x00f8
  f89656:	67d0           	beq.s 0xf89628
  f89658:	00f8           	.short 0x00f8
  f8965a:	9441           	sub.w d1,d2
  f8965c:	0000 0004      	ori.b #4,d0
  f89660:	0000 0000      	ori.b #0,d0
  f89664:	00f8           	.short 0x00f8
  f89666:	8399           	or.l d1,(a1)+
  f89668:	00f8           	.short 0x00f8
  f8966a:	9449           	sub.w a1,d2
  f8966c:	00f8           	.short 0x00f8
  f8966e:	6550           	bcs.s 0xf896c0
  f89670:	00f8           	.short 0x00f8
  f89672:	9456           	sub.w (a6),d2
  f89674:	0000 0000      	ori.b #0,d0
  f89678:	0000 0000      	ori.b #0,d0
  f8967c:	00f8           	.short 0x00f8
  f8967e:	945b           	sub.w (a3)+,d2
  f89680:	00f8           	.short 0x00f8
  f89682:	946a 00f8      	sub.w 248(a2),d2
  f89686:	645e           	bcc.s 0xf896e6
  f89688:	00f8           	.short 0x00f8
  f8968a:	9489           	sub.l a1,d2
  f8968c:	0000 0000      	ori.b #0,d0
  f89690:	0000 0000      	ori.b #0,d0
  f89694:	0000 0000      	ori.b #0,d0
  f89698:	0000 0000      	ori.b #0,d0
  f8969c:	00f8           	.short 0x00f8
  f8969e:	6b2e           	bmi.s 0xf896ce
  f896a0:	00f8           	.short 0x00f8
  f896a2:	948f           	sub.l sp,d2
  f896a4:	0000 0002      	ori.b #2,d0
  f896a8:	00f8           	.short 0x00f8
  f896aa:	7a5b           	moveq #91,d5
  f896ac:	00f8           	.short 0x00f8
  f896ae:	9494           	sub.l (a4),d2
  f896b0:	00f8           	.short 0x00f8
  f896b2:	94b4 00f8      	sub.l (-8,a4,d0.w),d2
  f896b6:	7186           	.short 0x7186
  f896b8:	00f8           	.short 0x00f8
  f896ba:	94c3           	suba.w d3,a2
  f896bc:	0000 0002      	ori.b #2,d0
  f896c0:	00f8           	.short 0x00f8
  f896c2:	78ce           	moveq #-50,d4
  f896c4:	00f8           	.short 0x00f8
  f896c6:	94c8           	suba.w a0,a2
  f896c8:	00f8           	.short 0x00f8
  f896ca:	94e9 00f8      	suba.w 248(a1),a2
  f896ce:	186e           	.short 0x186e
  f896d0:	00f8           	.short 0x00f8
  f896d2:	94f5 0000      	suba.w (0,a5,d0.w),a2
  f896d6:	0002 00f8      	ori.b #-8,d2
  f896da:	77d2           	.short 0x77d2
  f896dc:	00f8           	.short 0x00f8
  f896de:	94fa 00f8      	suba.w 0xf897d8(pc),a2
  f896e2:	9505           	subx.b d5,d2
  f896e4:	00f8           	.short 0x00f8
  f896e6:	16e0           	move.b -(a0),(a3)+
  f896e8:	00f8           	.short 0x00f8
  f896ea:	9524           	sub.b d2,-(a4)
  f896ec:	0000 0000      	ori.b #0,d0
  f896f0:	00f8           	.short 0x00f8
  f896f2:	1bfa           	.short 0x1bfa
  f896f4:	00f8           	.short 0x00f8
  f896f6:	8399           	or.l d1,(a1)+
  f896f8:	00f8           	.short 0x00f8
  f896fa:	952a 00f8      	sub.b d2,248(a2)
  f896fe:	77c8           	.short 0x77c8
  f89700:	00f8           	.short 0x00f8
  f89702:	9536 0000      	sub.b d2,(0,a6,d0.w)
  f89706:	0000 0000      	ori.b #0,d0
  f8970a:	0000 00f8      	ori.b #-8,d0
  f8970e:	8399           	or.l d1,(a1)+
  f89710:	00f8           	.short 0x00f8
  f89712:	953b           	.short 0x953b
  f89714:	00f8           	.short 0x00f8
  f89716:	77b2           	.short 0x77b2
  f89718:	00f8           	.short 0x00f8
  f8971a:	954e           	subx.w -(a6),-(a2)
  f8971c:	0000 0001      	ori.b #1,d0
  f89720:	0000 0000      	ori.b #0,d0
  f89724:	00f8           	.short 0x00f8
  f89726:	8399           	or.l d1,(a1)+
  f89728:	00f8           	.short 0x00f8
  f8972a:	9556           	sub.w d2,(a6)
  f8972c:	48e7 3008      	movem.l d2-d3/a4,-(sp)
  f89730:	226f 0010      	movea.l 16(sp),a1
  f89734:	242f 0014      	move.l 20(sp),d2
  f89738:	262c a322      	move.l -23774(a4),d3
  f8973c:	220c           	move.l a4,d1
  f8973e:	0681 ffff 9b22 	addi.l #-25822,d1
  f89744:	b283           	cmp.l d3,d1
  f89746:	6410           	bcc.s 0xf89758
  f89748:	2003           	move.l d3,d0
  f8974a:	4a82           	tst.l d2
  f8974c:	675e           	beq.s 0xf897ac
  f8974e:	5380           	subq.l #1,d0
  f89750:	b083           	cmp.l d3,d0
  f89752:	660e           	bne.s 0xf89762
  f89754:	4200           	clr.b d0
  f89756:	6058           	bra.s 0xf897b0
  f89758:	2001           	move.l d1,d0
  f8975a:	0680 0000 0800 	addi.l #2048,d0
  f89760:	60e8           	bra.s 0xf8974a
  f89762:	b280           	cmp.l d0,d1
  f89764:	6420           	bcc.s 0xf89786
  f89766:	2040           	movea.l d0,a0
  f89768:	2008           	move.l a0,d0
  f8976a:	5380           	subq.l #1,d0
  f8976c:	4a28 ffff      	tst.b -1(a0)
  f89770:	66de           	bne.s 0xf89750
  f89772:	5382           	subq.l #1,d2
  f89774:	4a82           	tst.l d2
  f89776:	6f16           	ble.s 0xf8978e
  f89778:	b280           	cmp.l d0,d1
  f8977a:	65d2           	bcs.s 0xf8974e
  f8977c:	2001           	move.l d1,d0
  f8977e:	0680 0000 0800 	addi.l #2048,d0
  f89784:	60c8           	bra.s 0xf8974e
  f89786:	2041           	movea.l d1,a0
  f89788:	41e8 0800      	lea 2048(a0),a0
  f8978c:	60da           	bra.s 0xf89768
  f8978e:	2001           	move.l d1,d0
  f89790:	0680 0000 0800 	addi.l #2048,d0
  f89796:	b088           	cmp.l a0,d0
  f89798:	6202           	bhi.s 0xf8979c
  f8979a:	2041           	movea.l d1,a0
  f8979c:	4a10           	tst.b (a0)
  f8979e:	67b4           	beq.s 0xf89754
  f897a0:	12d8           	move.b (a0)+,(a1)+
  f897a2:	b088           	cmp.l a0,d0
  f897a4:	6202           	bhi.s 0xf897a8
  f897a6:	2041           	movea.l d1,a0
  f897a8:	4a10           	tst.b (a0)
  f897aa:	66f4           	bne.s 0xf897a0
  f897ac:	4211           	clr.b (a1)
  f897ae:	7001           	moveq #1,d0
  f897b0:	4cdf 100c      	movem.l (sp)+,d2-d3/a4
  f897b4:	4e75           	rts
  f897b6:	2f0a           	move.l a2,-(sp)
  f897b8:	246f 0008      	movea.l 8(sp),a2
  f897bc:	101a           	move.b (a2)+,d0
  f897be:	6604           	bne.s 0xf897c4
  f897c0:	245f           	movea.l (sp)+,a2
  f897c2:	4e75           	rts
  f897c4:	49c0           	extb.l d0
  f897c6:	2f00           	move.l d0,-(sp)
  f897c8:	61ff ffff a5ca 	bsr.l 0xf83d94
  f897ce:	588f           	addq.l #4,sp
  f897d0:	60ea           	bra.s 0xf897bc
  f897d2:	2f02           	move.l d2,-(sp)
  f897d4:	242f 000c      	move.l 12(sp),d2
  f897d8:	4a82           	tst.l d2
  f897da:	6604           	bne.s 0xf897e0
  f897dc:	241f           	move.l (sp)+,d2
  f897de:	4e75           	rts
  f897e0:	2f2f 0008      	move.l 8(sp),-(sp)
  f897e4:	61ff ffff a5ae 	bsr.l 0xf83d94
  f897ea:	5382           	subq.l #1,d2
  f897ec:	588f           	addq.l #4,sp
  f897ee:	60e8           	bra.s 0xf897d8
  f897f0:	4fef fe00      	lea -512(sp),sp
  f897f4:	48e7 2028      	movem.l d2/a2/a4,-(sp)
  f897f8:	202f 0210      	move.l 528(sp),d0
  f897fc:	6602           	bne.s 0xf89800
  f897fe:	7001           	moveq #1,d0
  f89800:	4aac a322      	tst.l -23774(a4)
  f89804:	660c           	bne.s 0xf89812
  f89806:	220c           	move.l a4,d1
  f89808:	0681 ffff 9b22 	addi.l #-25822,d1
  f8980e:	2941 a322      	move.l d1,-23774(a4)
  f89812:	244c           	movea.l a4,a2
  f89814:	d5fc ffff 9912 	adda.l #-26350,a2
  f8981a:	204a           	movea.l a2,a0
  f8981c:	1218           	move.b (a0)+,d1
  f8981e:	0c01 0020      	cmpi.b #32,d1
  f89822:	6716           	beq.s 0xf8983a
  f89824:	0c01 0009      	cmpi.b #9,d1
  f89828:	6710           	beq.s 0xf8983a
  f8982a:	4a01           	tst.b d1
  f8982c:	6610           	bne.s 0xf8983e
  f8982e:	4200           	clr.b d0
  f89830:	4cdf 1404      	movem.l (sp)+,d2/a2/a4
  f89834:	4fef 0200      	lea 512(sp),sp
  f89838:	4e75           	rts
  f8983a:	2448           	movea.l a0,a2
  f8983c:	60dc           	bra.s 0xf8981a
  f8983e:	2f00           	move.l d0,-(sp)
  f89840:	7410           	moveq #16,d2
  f89842:	d48f           	add.l sp,d2
  f89844:	2f02           	move.l d2,-(sp)
  f89846:	61ff ffff fee4 	bsr.l 0xf8972c
  f8984c:	508f           	addq.l #8,sp
  f8984e:	4a00           	tst.b d0
  f89850:	663c           	bne.s 0xf8988e
  f89852:	206c a322      	movea.l -23774(a4),a0
  f89856:	4200           	clr.b d0
  f89858:	220c           	move.l a4,d1
  f8985a:	0681 ffff 9b22 	addi.l #-25822,d1
  f89860:	224c           	movea.l a4,a1
  f89862:	d3fc ffff a322 	adda.l #-23774,a1
  f89868:	141a           	move.b (a2)+,d2
  f8986a:	6634           	bne.s 0xf898a0
  f8986c:	4a00           	tst.b d0
  f8986e:	6704           	beq.s 0xf89874
  f89870:	2948 a322      	move.l a0,-23774(a4)
  f89874:	202c a322      	move.l -23774(a4),d0
  f89878:	2040           	movea.l d0,a0
  f8987a:	4a10           	tst.b (a0)
  f8987c:	662e           	bne.s 0xf898ac
  f8987e:	5280           	addq.l #1,d0
  f89880:	b3c0           	cmpa.l d0,a1
  f89882:	6202           	bhi.s 0xf89886
  f89884:	2001           	move.l d1,d0
  f89886:	2940 a322      	move.l d0,-23774(a4)
  f8988a:	7001           	moveq #1,d0
  f8988c:	60a2           	bra.s 0xf89830
  f8988e:	2f0a           	move.l a2,-(sp)
  f89890:	2f02           	move.l d2,-(sp)
  f89892:	61ff 0000 18d4 	bsr.l 0xf8b168
  f89898:	508f           	addq.l #8,sp
  f8989a:	4a80           	tst.l d0
  f8989c:	66b4           	bne.s 0xf89852
  f8989e:	608e           	bra.s 0xf8982e
  f898a0:	10c2           	move.b d2,(a0)+
  f898a2:	b3c8           	cmpa.l a0,a1
  f898a4:	6202           	bhi.s 0xf898a8
  f898a6:	2041           	movea.l d1,a0
  f898a8:	7001           	moveq #1,d0
  f898aa:	60bc           	bra.s 0xf89868
  f898ac:	4218           	clr.b (a0)+
  f898ae:	b3c8           	cmpa.l a0,a1
  f898b0:	62c8           	bhi.s 0xf8987a
  f898b2:	2041           	movea.l d1,a0
  f898b4:	60c4           	bra.s 0xf8987a
  f898b6:	4e75           	rts
  f898b8:	2f0c           	move.l a4,-(sp)
  f898ba:	2f02           	move.l d2,-(sp)
  f898bc:	2f2f 000c      	move.l 12(sp),-(sp)
  f898c0:	240c           	move.l a4,d2
  f898c2:	0682 ffff 9112 	addi.l #-28398,d2
  f898c8:	2f02           	move.l d2,-(sp)
  f898ca:	61ff ffff fe60 	bsr.l 0xf8972c
  f898d0:	508f           	addq.l #8,sp
  f898d2:	4a00           	tst.b d0
  f898d4:	670c           	beq.s 0xf898e2
  f898d6:	2942 910e      	move.l d2,-28402(a4)
  f898da:	2002           	move.l d2,d0
  f898dc:	241f           	move.l (sp)+,d2
  f898de:	285f           	movea.l (sp)+,a4
  f898e0:	4e75           	rts
  f898e2:	4280           	clr.l d0
  f898e4:	60f6           	bra.s 0xf898dc
  f898e6:	6e6f           	bgt.s 0xf89957
  f898e8:	206d 656d      	movea.l 25965(a5),a0
  f898ec:	6f72           	ble.s 0xf89960
  f898ee:	7900           	.short 0x7900
  f898f0:	2f0c           	move.l a4,-(sp)
  f898f2:	2f0a           	move.l a2,-(sp)
  f898f4:	4878 0806      	pea 0x806
  f898f8:	61ff ffff aede 	bsr.l 0xf847d8
  f898fe:	2440           	movea.l d0,a2
  f89900:	588f           	addq.l #4,sp
  f89902:	4a80           	tst.l d0
  f89904:	660e           	bne.s 0xf89914
  f89906:	487a ffde      	pea 0xf898e6(pc)
  f8990a:	4878 0001      	pea 0x1
  f8990e:	61ff ffff 8b88 	bsr.l 0xf82498
  f89914:	256c a322 0002 	move.l -23774(a4),2(a2)
  f8991a:	14ac 9b1e      	move.b -25826(a4),(a2)
  f8991e:	4878 0800      	pea 0x800
  f89922:	486c 9b22      	pea -25822(a4)
  f89926:	486a 0006      	pea 6(a2)
  f8992a:	61ff 0000 1660 	bsr.l 0xf8af8c
  f89930:	4fef 000c      	lea 12(sp),sp
  f89934:	200a           	move.l a2,d0
  f89936:	245f           	movea.l (sp)+,a2
  f89938:	285f           	movea.l (sp)+,a4
  f8993a:	4e75           	rts
  f8993c:	2f0c           	move.l a4,-(sp)
  f8993e:	206f 0008      	movea.l 8(sp),a0
  f89942:	2968 0002 a322 	move.l 2(a0),-23774(a4)
  f89948:	1950 9b1e      	move.b (a0),-25826(a4)
  f8994c:	4878 0800      	pea 0x800
  f89950:	4868 0006      	pea 6(a0)
  f89954:	486c 9b22      	pea -25822(a4)
  f89958:	61ff 0000 1632 	bsr.l 0xf8af8c
  f8995e:	4fef 000c      	lea 12(sp),sp
  f89962:	285f           	movea.l (sp)+,a4
  f89964:	4e75           	rts
  f89966:	4280           	clr.l d0
  f89968:	4e75           	rts
  f8996a:	2f0c           	move.l a4,-(sp)
  f8996c:	7001           	moveq #1,d0
  f8996e:	2940 9106      	move.l d0,-28410(a4)
  f89972:	422c 9b1e      	clr.b -25826(a4)
  f89976:	4878 0800      	pea 0x800
  f8997a:	42a7           	clr.l -(sp)
  f8997c:	486c 9b22      	pea -25822(a4)
  f89980:	61ff 0000 1772 	bsr.l 0xf8b0f4
  f89986:	4fef 000c      	lea 12(sp),sp
  f8998a:	285f           	movea.l (sp)+,a4
  f8998c:	4e75           	rts
  f8998e:	4280           	clr.l d0
  f89990:	4e75           	rts
  f89992:	2f0c           	move.l a4,-(sp)
  f89994:	4a2c 910a      	tst.b -28406(a4)
  f89998:	6620           	bne.s 0xf899ba
  f8999a:	197c 0001 910a 	move.b #1,-28406(a4)
  f899a0:	197c 0001 9b12 	move.b #1,-25838(a4)
  f899a6:	200c           	move.l a4,d0
  f899a8:	0680 ffff 9b22 	addi.l #-25822,d0
  f899ae:	2940 a322      	move.l d0,-23774(a4)
  f899b2:	42ac 9b16      	clr.l -25834(a4)
  f899b6:	422c 9912      	clr.b -26350(a4)
  f899ba:	4280           	clr.l d0
  f899bc:	285f           	movea.l (sp)+,a4
  f899be:	4e75           	rts
  f899c0:	2534 643a      	move.l (58,a4,d6.w*4),-(a2)
  f899c4:	2000           	move.l d0,d0
  f899c6:	48e7 383e      	movem.l d2-d4/a2-a6,-(sp)
  f899ca:	246c a322      	movea.l -23774(a4),a2
  f899ce:	4a8a           	tst.l a2
  f899d0:	6772           	beq.s 0xf89a44
  f899d2:	4282           	clr.l d2
  f899d4:	260c           	move.l a4,d3
  f899d6:	0683 ffff 9b22 	addi.l #-25822,d3
  f899dc:	280c           	move.l a4,d4
  f899de:	0684 ffff a322 	addi.l #-23774,d4
  f899e4:	2a4c           	movea.l a4,a5
  f899e6:	dbfc ffff a322 	adda.l #-23774,a5
  f899ec:	4dfa ffd2      	lea 0xf899c0(pc),a6
  f899f0:	4a12           	tst.b (a2)
  f899f2:	6720           	beq.s 0xf89a14
  f899f4:	2f02           	move.l d2,-(sp)
  f899f6:	2f0e           	move.l a6,-(sp)
  f899f8:	61ff ffff 8a62 	bsr.l 0xf8245c
  f899fe:	508f           	addq.l #8,sp
  f89a00:	264a           	movea.l a2,a3
  f89a02:	101b           	move.b (a3)+,d0
  f89a04:	661c           	bne.s 0xf89a22
  f89a06:	5282           	addq.l #1,d2
  f89a08:	4878 000a      	pea 0xa
  f89a0c:	61ff ffff a386 	bsr.l 0xf83d94
  f89a12:	588f           	addq.l #4,sp
  f89a14:	528a           	addq.l #1,a2
  f89a16:	b88a           	cmp.l a2,d4
  f89a18:	6202           	bhi.s 0xf89a1c
  f89a1a:	2443           	movea.l d3,a2
  f89a1c:	b5d5           	cmpa.l (a5),a2
  f89a1e:	66d0           	bne.s 0xf899f0
  f89a20:	6022           	bra.s 0xf89a44
  f89a22:	49c0           	extb.l d0
  f89a24:	2f00           	move.l d0,-(sp)
  f89a26:	61ff ffff a36c 	bsr.l 0xf83d94
  f89a2c:	588f           	addq.l #4,sp
  f89a2e:	b88b           	cmp.l a3,d4
  f89a30:	6318           	bls.s 0xf89a4a
  f89a32:	244b           	movea.l a3,a2
  f89a34:	b5d5           	cmpa.l (a5),a2
  f89a36:	66c8           	bne.s 0xf89a00
  f89a38:	4878 000a      	pea 0xa
  f89a3c:	61ff ffff a356 	bsr.l 0xf83d94
  f89a42:	588f           	addq.l #4,sp
  f89a44:	4cdf 7c1c      	movem.l (sp)+,d2-d4/a2-a6
  f89a48:	4e75           	rts
  f89a4a:	2443           	movea.l d3,a2
  f89a4c:	60e6           	bra.s 0xf89a34
  f89a4e:	2573 2573 000a 	move.l ([677230,a3],1802399607),28192(a2)
  f89a54:	556e 6b6e 6f77 
  f89a5a:	6e20 
  f89a5c:	2745 5343      	move.l d5,21315(a3)
  f89a60:	205b           	movea.l (a3)+,a0
  f89a62:	2025           	move.l -(a5),d0
  f89a64:	6327           	bls.s 0xf89a8d
  f89a66:	0a00 0a55      	eori.b #85,d0
  f89a6a:	6e6b           	bgt.s 0xf89ad7
  f89a6c:	6e6f           	bgt.s 0xf89add
  f89a6e:	776e           	.short 0x776e
  f89a70:	2027           	move.l -(sp),d0
  f89a72:	4553           	.short 0x4553
  f89a74:	4320           	chk.l -(a0),d1
  f89a76:	5b20           	subq.b #5,-(a0)
  f89a78:	3120           	move.w -(a0),-(a0)
  f89a7a:	2563 270a      	move.l -(a3),9994(a2)
  f89a7e:	000a           	.short 0x000a
  f89a80:	556e 6b6e      	subq.w #2,27502(a6)
  f89a84:	6f77           	ble.s 0xf89afd
  f89a86:	6e20           	bgt.s 0xf89aa8
  f89a88:	2745 5343      	move.l d5,21315(a3)
  f89a8c:	205b           	movea.l (a3)+,a0
  f89a8e:	2031 203b      	move.l (59,a1,d2.w),d0
  f89a92:	2025           	move.l -(a5),d0
  f89a94:	6327           	bls.s 0xf89abd
  f89a96:	0a00 0a55      	eori.b #85,d0
  f89a9a:	6e6b           	bgt.s 0xf89b07
  f89a9c:	6e6f           	bgt.s 0xf89b0d
  f89a9e:	776e           	.short 0x776e
  f89aa0:	2027           	move.l -(sp),d0
  f89aa2:	4553           	.short 0x4553
  f89aa4:	4320           	chk.l -(a0),d1
  f89aa6:	5b20           	subq.b #5,-(a0)
  f89aa8:	3120           	move.w -(a0),-(a0)
  f89aaa:	3b20           	move.w -(a0),-(a5)
  f89aac:	2563 2025      	move.l -(a3),8229(a2)
  f89ab0:	6327           	bls.s 0xf89ad9
  f89ab2:	0a00 0a55      	eori.b #85,d0
  f89ab6:	6e6b           	bgt.s 0xf89b23
  f89ab8:	6e6f           	bgt.s 0xf89b29
  f89aba:	776e           	.short 0x776e
  f89abc:	2027           	move.l -(sp),d0
  f89abe:	4553           	.short 0x4553
  f89ac0:	4320           	chk.l -(a0),d1
  f89ac2:	5b20           	subq.b #5,-(a0)
  f89ac4:	3320           	move.w -(a0),-(a1)
  f89ac6:	2563 270a      	move.l -(a3),9994(a2)
  f89aca:	005e 4300      	ori.w #17152,(a6)+
  f89ace:	48e7 203e      	movem.l d2/a2-a6,-(sp)
  f89ad2:	266f 0020      	movea.l 32(sp),a3
  f89ad6:	4293           	clr.l (a3)
  f89ad8:	4a2c 9b12      	tst.b -25838(a4)
  f89adc:	6738           	beq.s 0xf89b16
  f89ade:	422c 9b12      	clr.b -25838(a4)
  f89ae2:	240c           	move.l a4,d2
  f89ae4:	0682 ffff 9912 	addi.l #-26350,d2
  f89aea:	2f02           	move.l d2,-(sp)
  f89aec:	2f2f 0020      	move.l 32(sp),-(sp)
  f89af0:	487a ff5c      	pea 0xf89a4e(pc)
  f89af4:	61ff ffff 8966 	bsr.l 0xf8245c
  f89afa:	2f02           	move.l d2,-(sp)
  f89afc:	61ff 0000 16f6 	bsr.l 0xf8b1f4
  f89b02:	90ac 9b16      	sub.l -25834(a4),d0
  f89b06:	2e80           	move.l d0,(sp)
  f89b08:	4878 0008      	pea 0x8
  f89b0c:	61ff ffff fcc4 	bsr.l 0xf897d2
  f89b12:	4fef 0014      	lea 20(sp),sp
  f89b16:	61ff ffff a240 	bsr.l 0xf83d58
  f89b1c:	2440           	movea.l d0,a2
  f89b1e:	4a80           	tst.l d0
  f89b20:	6f00 071a      	ble.w 0xf8a23c
  f89b24:	0cac 0000 01ff 	cmpi.l #511,-25834(a4)
  f89b2a:	9b16 
  f89b2c:	6308           	bls.s 0xf89b36
  f89b2e:	42ac 9b16      	clr.l -25834(a4)
  f89b32:	422c 9912      	clr.b -26350(a4)
  f89b36:	202c 9b1a      	move.l -25830(a4),d0
  f89b3a:	5380           	subq.l #1,d0
  f89b3c:	7209           	moveq #9,d1
  f89b3e:	b280           	cmp.l d0,d1
  f89b40:	6500 01cc      	bcs.w 0xf89d0e
  f89b44:	d080           	add.l d0,d0
  f89b46:	303b 0806      	move.w (0xf89b4e,pc,d0.l),d0
  f89b4a:	4efb 0002      	jmp (0xf89b4e,pc,d0.w)
  f89b4e:	0014 002c      	ori.b #44,(a4)
  f89b52:	00b6 0132 0148 	ori.l #20054344,(-38,a6,d0.w)
  f89b58:	00da 
  f89b5a:	0106           	btst d0,d6
  f89b5c:	0106           	btst d0,d6
  f89b5e:	0106           	btst d0,d6
  f89b60:	015e           	bchg d0,(a6)+
  f89b62:	705b           	moveq #91,d0
  f89b64:	b08a           	cmp.l a2,d0
  f89b66:	6708           	beq.s 0xf89b70
  f89b68:	724f           	moveq #79,d1
  f89b6a:	b28a           	cmp.l a2,d1
  f89b6c:	6600 0118      	bne.w 0xf89c86
  f89b70:	7002           	moveq #2,d0
  f89b72:	2940 9b1a      	move.l d0,-25830(a4)
  f89b76:	6000 0112      	bra.w 0xf89c8a
  f89b7a:	42ac 9b1a      	clr.l -25830(a4)
  f89b7e:	70cf           	moveq #-49,d0
  f89b80:	d08a           	add.l a2,d0
  f89b82:	721c           	moveq #28,d1
  f89b84:	b280           	cmp.l d0,d1
  f89b86:	6556           	bcs.s 0xf89bde
  f89b88:	d080           	add.l d0,d0
  f89b8a:	303b 0806      	move.w (0xf89b92,pc,d0.l),d0
  f89b8e:	4efb 0002      	jmp (0xf89b92,pc,d0.w)
  f89b92:	003a           	.short 0x003a
  f89b94:	003e           	.short 0x003e
  f89b96:	0048           	.short 0x0048
  f89b98:	004c           	.short 0x004c
  f89b9a:	004c           	.short 0x004c
  f89b9c:	004c           	.short 0x004c
  f89b9e:	004c           	.short 0x004c
  f89ba0:	004c           	.short 0x004c
  f89ba2:	004c           	.short 0x004c
  f89ba4:	004c           	.short 0x004c
  f89ba6:	004c           	.short 0x004c
  f89ba8:	004c           	.short 0x004c
  f89baa:	004c           	.short 0x004c
  f89bac:	004c           	.short 0x004c
  f89bae:	004c           	.short 0x004c
  f89bb0:	004c           	.short 0x004c
  f89bb2:	0582           	bclr d2,d2
  f89bb4:	05da           	bset d2,(a2)+
  f89bb6:	037c           	.short 0x037c
  f89bb8:	035e           	bchg d1,(a6)+
  f89bba:	004c           	.short 0x004c
  f89bbc:	0330 004c      	btst d1,(76,a0,d0.w)
  f89bc0:	031e           	btst d1,(a6)+
  f89bc2:	004c           	.short 0x004c
  f89bc4:	004c           	.short 0x004c
  f89bc6:	004c           	.short 0x004c
  f89bc8:	004c           	.short 0x004c
  f89bca:	01ea 7003      	bset d0,28675(a2)
  f89bce:	60a2           	bra.s 0xf89b72
  f89bd0:	7204           	moveq #4,d1
  f89bd2:	2941 9b1a      	move.l d1,-25830(a4)
  f89bd6:	6000 00b2      	bra.w 0xf89c8a
  f89bda:	7005           	moveq #5,d0
  f89bdc:	6094           	bra.s 0xf89b72
  f89bde:	2f0a           	move.l a2,-(sp)
  f89be0:	487a fe71      	pea 0xf89a53(pc)
  f89be4:	61ff ffff 8876 	bsr.l 0xf8245c
  f89bea:	42ac 9b1a      	clr.l -25830(a4)
  f89bee:	508f           	addq.l #8,sp
  f89bf0:	4878 000a      	pea 0xa
  f89bf4:	61ff ffff a19e 	bsr.l 0xf83d94
  f89bfa:	197c 0001 9b12 	move.b #1,-25838(a4)
  f89c00:	6000 0306      	bra.w 0xf89f08
  f89c04:	42ac 9b1a      	clr.l -25830(a4)
  f89c08:	723b           	moveq #59,d1
  f89c0a:	b28a           	cmp.l a2,d1
  f89c0c:	6716           	beq.s 0xf89c24
  f89c0e:	707e           	moveq #126,d0
  f89c10:	b08a           	cmp.l a2,d0
  f89c12:	6700 029c      	beq.w 0xf89eb0
  f89c16:	2f0a           	move.l a2,-(sp)
  f89c18:	487a fe4e      	pea 0xf89a68(pc)
  f89c1c:	61ff ffff 883e 	bsr.l 0xf8245c
  f89c22:	60ca           	bra.s 0xf89bee
  f89c24:	7206           	moveq #6,d1
  f89c26:	60aa           	bra.s 0xf89bd2
  f89c28:	7033           	moveq #51,d0
  f89c2a:	b08a           	cmp.l a2,d0
  f89c2c:	6710           	beq.s 0xf89c3e
  f89c2e:	7235           	moveq #53,d1
  f89c30:	b28a           	cmp.l a2,d1
  f89c32:	6710           	beq.s 0xf89c44
  f89c34:	7032           	moveq #50,d0
  f89c36:	b08a           	cmp.l a2,d0
  f89c38:	660e           	bne.s 0xf89c48
  f89c3a:	7207           	moveq #7,d1
  f89c3c:	6094           	bra.s 0xf89bd2
  f89c3e:	7008           	moveq #8,d0
  f89c40:	6000 ff30      	bra.w 0xf89b72
  f89c44:	7209           	moveq #9,d1
  f89c46:	608a           	bra.s 0xf89bd2
  f89c48:	42ac 9b1a      	clr.l -25830(a4)
  f89c4c:	2f0a           	move.l a2,-(sp)
  f89c4e:	487a fe2f      	pea 0xf89a7f(pc)
  f89c52:	60c8           	bra.s 0xf89c1c
  f89c54:	42ac 9b1a      	clr.l -25830(a4)
  f89c58:	7043           	moveq #67,d0
  f89c5a:	b08a           	cmp.l a2,d0
  f89c5c:	6700 0264      	beq.w 0xf89ec2
  f89c60:	7244           	moveq #68,d1
  f89c62:	b28a           	cmp.l a2,d1
  f89c64:	6700 024a      	beq.w 0xf89eb0
  f89c68:	2f0a           	move.l a2,-(sp)
  f89c6a:	4878 0035      	pea 0x35
  f89c6e:	487a fe28      	pea 0xf89a98(pc)
  f89c72:	61ff ffff 87e8 	bsr.l 0xf8245c
  f89c78:	4fef 000c      	lea 12(sp),sp
  f89c7c:	6000 ff72      	bra.w 0xf89bf0
  f89c80:	707e           	moveq #126,d0
  f89c82:	b08a           	cmp.l a2,d0
  f89c84:	6690           	bne.s 0xf89c16
  f89c86:	42ac 9b1a      	clr.l -25830(a4)
  f89c8a:	45f8 0000      	lea 0x0,a2
  f89c8e:	200a           	move.l a2,d0
  f89c90:	4cdf 7c04      	movem.l (sp)+,d2/a2-a6
  f89c94:	4e75           	rts
  f89c96:	42ac 9b1a      	clr.l -25830(a4)
  f89c9a:	727e           	moveq #126,d1
  f89c9c:	b28a           	cmp.l a2,d1
  f89c9e:	6700 01aa      	beq.w 0xf89e4a
  f89ca2:	2f0a           	move.l a2,-(sp)
  f89ca4:	487a fe0e      	pea 0xf89ab4(pc)
  f89ca8:	6000 ff72      	bra.w 0xf89c1c
  f89cac:	42ac 9b1a      	clr.l -25830(a4)
  f89cb0:	2a6c 9b16      	movea.l -25834(a4),a5
  f89cb4:	2c4c           	movea.l a4,a6
  f89cb6:	ddfc ffff 9912 	adda.l #-26350,a6
  f89cbc:	47f5 e800      	lea (0,a5,a6.l),a3
  f89cc0:	2f0b           	move.l a3,-(sp)
  f89cc2:	61ff 0000 1530 	bsr.l 0xf8b1f4
  f89cc8:	588f           	addq.l #4,sp
  f89cca:	2400           	move.l d0,d2
  f89ccc:	2200           	move.l d0,d1
  f89cce:	5281           	addq.l #1,d1
  f89cd0:	200d           	move.l a5,d0
  f89cd2:	5280           	addq.l #1,d0
  f89cd4:	2040           	movea.l d0,a0
  f89cd6:	d1c1           	adda.l d1,a0
  f89cd8:	b0fc 01ff      	cmpa.w #511,a0
  f89cdc:	62ac           	bhi.s 0xf89c8a
  f89cde:	2f01           	move.l d1,-(sp)
  f89ce0:	2f0b           	move.l a3,-(sp)
  f89ce2:	4876 0800      	pea (0,a6,d0.l)
  f89ce6:	61ff 0000 1314 	bsr.l 0xf8affc
  f89cec:	320a           	move.w a2,d1
  f89cee:	1d81 d800      	move.b d1,(0,a6,a5.l)
  f89cf2:	2f0b           	move.l a3,-(sp)
  f89cf4:	61ff ffff fac0 	bsr.l 0xf897b6
  f89cfa:	2f02           	move.l d2,-(sp)
  f89cfc:	4878 0008      	pea 0x8
  f89d00:	61ff ffff fad0 	bsr.l 0xf897d2
  f89d06:	52ac 9b16      	addq.l #1,-25834(a4)
  f89d0a:	6000 0342      	bra.w 0xf8a04e
  f89d0e:	701b           	moveq #27,d0
  f89d10:	b08a           	cmp.l a2,d0
  f89d12:	6d4a           	blt.s 0xf89d5e
  f89d14:	200a           	move.l a2,d0
  f89d16:	5380           	subq.l #1,d0
  f89d18:	721a           	moveq #26,d1
  f89d1a:	b280           	cmp.l d0,d1
  f89d1c:	654e           	bcs.s 0xf89d6c
  f89d1e:	d080           	add.l d0,d0
  f89d20:	303b 0806      	move.w (0xf89d28,pc,d0.l),d0
  f89d24:	4efb 0002      	jmp (0xf89d28,pc,d0.w)
  f89d28:	0188 01c8      	movep.w d0,456(a0)
  f89d2c:	0084 0122 019a 	ori.l #19005850,d4
  f89d32:	01e6           	bset d0,-(a6)
  f89d34:	0044 00a6      	ori.w #166,d4
  f89d38:	0044 0054      	ori.w #84,d4
  f89d3c:	029a fec8 0054 	andi.l #-20447148,(a2)+
  f89d42:	0444 0044      	subi.w #68,d4
  f89d46:	03ec 0044      	bset d1,68(a4)
  f89d4a:	fec8           	.short 0xfec8
  f89d4c:	0044 0044      	ori.w #68,d4
  f89d50:	0224 0212      	andi.b #18,-(a4)
  f89d54:	032e 02da      	btst d1,730(a6)
  f89d58:	0500           	btst d2,d0
  f89d5a:	0044 0218      	ori.w #536,d4
  f89d5e:	707f           	moveq #127,d0
  f89d60:	b08a           	cmp.l a2,d0
  f89d62:	676a           	beq.s 0xf89dce
  f89d64:	b4fc 009b      	cmpa.w #155,a2
  f89d68:	6700 01dc      	beq.w 0xf89f46
  f89d6c:	41ea ffe0      	lea -32(a2),a0
  f89d70:	705f           	moveq #95,d0
  f89d72:	b088           	cmp.l a0,d0
  f89d74:	6400 ff3a      	bcc.w 0xf89cb0
  f89d78:	6000 ff10      	bra.w 0xf89c8a
  f89d7c:	4878 000a      	pea 0xa
  f89d80:	61ff ffff a012 	bsr.l 0xf83d94
  f89d86:	42a7           	clr.l -(sp)
  f89d88:	61ff ffff fa66 	bsr.l 0xf897f0
  f89d8e:	422c 9b1e      	clr.b -25826(a4)
  f89d92:	197c 0001 9b12 	move.b #1,-25838(a4)
  f89d98:	220c           	move.l a4,d1
  f89d9a:	0681 ffff 9912 	addi.l #-26350,d1
  f89da0:	2681           	move.l d1,(a3)
  f89da2:	42ac 9b16      	clr.l -25834(a4)
  f89da6:	508f           	addq.l #8,sp
  f89da8:	6000 fee0      	bra.w 0xf89c8a
  f89dac:	487a fd1d      	pea 0xf89acb(pc)
  f89db0:	61ff ffff a020 	bsr.l 0xf83dd2
  f89db6:	42ac 9b16      	clr.l -25834(a4)
  f89dba:	422c 9912      	clr.b -26350(a4)
  f89dbe:	197c 0001 9b12 	move.b #1,-25838(a4)
  f89dc4:	422c 9b1e      	clr.b -25826(a4)
  f89dc8:	588f           	addq.l #4,sp
  f89dca:	6000 fec2      	bra.w 0xf89c8e
  f89dce:	202c 9b16      	move.l -25834(a4),d0
  f89dd2:	6700 feb6      	beq.w 0xf89c8a
  f89dd6:	2400           	move.l d0,d2
  f89dd8:	5382           	subq.l #1,d2
  f89dda:	223c 0000 0200 	move.l #512,d1
  f89de0:	9280           	sub.l d0,d1
  f89de2:	2f01           	move.l d1,-(sp)
  f89de4:	244c           	movea.l a4,a2
  f89de6:	d5fc ffff 9912 	adda.l #-26350,a2
  f89dec:	4872 0800      	pea (0,a2,d0.l)
  f89df0:	4872 2800      	pea (0,a2,d2.l)
  f89df4:	61ff 0000 1206 	bsr.l 0xf8affc
  f89dfa:	2942 9b16      	move.l d2,-25834(a4)
  f89dfe:	4878 0008      	pea 0x8
  f89e02:	61ff ffff 9f90 	bsr.l 0xf83d94
  f89e08:	264c           	movea.l a4,a3
  f89e0a:	d7fc ffff 9b16 	adda.l #-25834,a3
  f89e10:	200a           	move.l a2,d0
  f89e12:	d093           	add.l (a3),d0
  f89e14:	2f00           	move.l d0,-(sp)
  f89e16:	61ff ffff f99e 	bsr.l 0xf897b6
  f89e1c:	4878 0020      	pea 0x20
  f89e20:	61ff ffff 9f72 	bsr.l 0xf83d94
  f89e26:	d5d3           	adda.l (a3),a2
  f89e28:	2f0a           	move.l a2,-(sp)
  f89e2a:	61ff 0000 13c8 	bsr.l 0xf8b1f4
  f89e30:	588f           	addq.l #4,sp
  f89e32:	2040           	movea.l d0,a0
  f89e34:	4868 0001      	pea 1(a0)
  f89e38:	4878 0008      	pea 0x8
  f89e3c:	61ff ffff f994 	bsr.l 0xf897d2
  f89e42:	4fef 0020      	lea 32(sp),sp
  f89e46:	6000 fe42      	bra.w 0xf89c8a
  f89e4a:	202c 9b16      	move.l -25834(a4),d0
  f89e4e:	244c           	movea.l a4,a2
  f89e50:	d5fc ffff 9912 	adda.l #-26350,a2
  f89e56:	4a32 0800      	tst.b (0,a2,d0.l)
  f89e5a:	6700 fe2e      	beq.w 0xf89c8a
  f89e5e:	2400           	move.l d0,d2
  f89e60:	d48a           	add.l a2,d2
  f89e62:	223c 0000 0200 	move.l #512,d1
  f89e68:	9280           	sub.l d0,d1
  f89e6a:	2f01           	move.l d1,-(sp)
  f89e6c:	4872 0801      	pea (1,a2,d0.l)
  f89e70:	2f02           	move.l d2,-(sp)
  f89e72:	61ff 0000 1188 	bsr.l 0xf8affc
  f89e78:	2f02           	move.l d2,-(sp)
  f89e7a:	61ff ffff f93a 	bsr.l 0xf897b6
  f89e80:	4878 0020      	pea 0x20
  f89e84:	61ff ffff 9f0e 	bsr.l 0xf83d94
  f89e8a:	d5ec 9b16      	adda.l -25834(a4),a2
  f89e8e:	2f0a           	move.l a2,-(sp)
  f89e90:	61ff 0000 1362 	bsr.l 0xf8b1f4
  f89e96:	588f           	addq.l #4,sp
  f89e98:	2040           	movea.l d0,a0
  f89e9a:	4868 0001      	pea 1(a0)
  f89e9e:	4878 0008      	pea 0x8
  f89ea2:	61ff ffff f92e 	bsr.l 0xf897d2
  f89ea8:	4fef 001c      	lea 28(sp),sp
  f89eac:	6000 fddc      	bra.w 0xf89c8a
  f89eb0:	2f2c 9b16      	move.l -25834(a4),-(sp)
  f89eb4:	4878 0008      	pea 0x8
  f89eb8:	61ff ffff f918 	bsr.l 0xf897d2
  f89ebe:	6000 fee2      	bra.w 0xf89da2
  f89ec2:	244c           	movea.l a4,a2
  f89ec4:	d5fc ffff 9912 	adda.l #-26350,a2
  f89eca:	200a           	move.l a2,d0
  f89ecc:	d0ac 9b16      	add.l -25834(a4),d0
  f89ed0:	2f00           	move.l d0,-(sp)
  f89ed2:	61ff ffff f8e2 	bsr.l 0xf897b6
  f89ed8:	242c 9b16      	move.l -25834(a4),d2
  f89edc:	4872 2800      	pea (0,a2,d2.l)
  f89ee0:	61ff 0000 1312 	bsr.l 0xf8b1f4
  f89ee6:	d480           	add.l d0,d2
  f89ee8:	2942 9b16      	move.l d2,-25834(a4)
  f89eec:	6000 feb8      	bra.w 0xf89da6
  f89ef0:	202c 9b16      	move.l -25834(a4),d0
  f89ef4:	6700 fd94      	beq.w 0xf89c8a
  f89ef8:	5380           	subq.l #1,d0
  f89efa:	2940 9b16      	move.l d0,-25834(a4)
  f89efe:	4878 0008      	pea 0x8
  f89f02:	61ff ffff 9e90 	bsr.l 0xf83d94
  f89f08:	588f           	addq.l #4,sp
  f89f0a:	6000 fd7e      	bra.w 0xf89c8a
  f89f0e:	202c 9b16      	move.l -25834(a4),d0
  f89f12:	0c80 0000 01fe 	cmpi.l #510,d0
  f89f18:	6200 fd70      	bhi.w 0xf89c8a
  f89f1c:	1034 0920 9912 	move.b (-26350,a4,d0.l),d0
  f89f22:	6700 fd66      	beq.w 0xf89c8a
  f89f26:	0280 0000 00ff 	andi.l #255,d0
  f89f2c:	2f00           	move.l d0,-(sp)
  f89f2e:	61ff ffff 9e64 	bsr.l 0xf83d94
  f89f34:	52ac 9b16      	addq.l #1,-25834(a4)
  f89f38:	60ce           	bra.s 0xf89f08
  f89f3a:	720a           	moveq #10,d1
  f89f3c:	6000 fc94      	bra.w 0xf89bd2
  f89f40:	7001           	moveq #1,d0
  f89f42:	6000 fc2e      	bra.w 0xf89b72
  f89f46:	7202           	moveq #2,d1
  f89f48:	6000 fc88      	bra.w 0xf89bd2
  f89f4c:	2f2c 9b16      	move.l -25834(a4),-(sp)
  f89f50:	4878 0008      	pea 0x8
  f89f54:	61ff ffff f87c 	bsr.l 0xf897d2
  f89f5a:	244c           	movea.l a4,a2
  f89f5c:	d5fc ffff 9912 	adda.l #-26350,a2
  f89f62:	2a4c           	movea.l a4,a5
  f89f64:	dbfc ffff 9b16 	adda.l #-25834,a5
  f89f6a:	200a           	move.l a2,d0
  f89f6c:	d095           	add.l (a5),d0
  f89f6e:	2f00           	move.l d0,-(sp)
  f89f70:	61ff ffff f844 	bsr.l 0xf897b6
  f89f76:	242c 9b16      	move.l -25834(a4),d2
  f89f7a:	4872 2800      	pea (0,a2,d2.l)
  f89f7e:	61ff 0000 1274 	bsr.l 0xf8b1f4
  f89f84:	2640           	movea.l d0,a3
  f89f86:	2e82           	move.l d2,(sp)
  f89f88:	4878 0020      	pea 0x20
  f89f8c:	61ff ffff f844 	bsr.l 0xf897d2
  f89f92:	220b           	move.l a3,d1
  f89f94:	d2ac 9b16      	add.l -25834(a4),d1
  f89f98:	2f01           	move.l d1,-(sp)
  f89f9a:	4878 0008      	pea 0x8
  f89f9e:	61ff ffff f832 	bsr.l 0xf897d2
  f89fa4:	486b 0001      	pea 1(a3)
  f89fa8:	200a           	move.l a2,d0
  f89faa:	d095           	add.l (a5),d0
  f89fac:	2f00           	move.l d0,-(sp)
  f89fae:	2f0a           	move.l a2,-(sp)
  f89fb0:	61ff 0000 104a 	bsr.l 0xf8affc
  f89fb6:	42ac 9b16      	clr.l -25834(a4)
  f89fba:	4fef 0028      	lea 40(sp),sp
  f89fbe:	6000 fcca      	bra.w 0xf89c8a
  f89fc2:	244c           	movea.l a4,a2
  f89fc4:	d5fc ffff 9912 	adda.l #-26350,a2
  f89fca:	220a           	move.l a2,d1
  f89fcc:	d2ac 9b16      	add.l -25834(a4),d1
  f89fd0:	2f01           	move.l d1,-(sp)
  f89fd2:	61ff 0000 1220 	bsr.l 0xf8b1f4
  f89fd8:	2400           	move.l d0,d2
  f89fda:	2e80           	move.l d0,(sp)
  f89fdc:	4878 0020      	pea 0x20
  f89fe0:	61ff ffff f7f0 	bsr.l 0xf897d2
  f89fe6:	2f02           	move.l d2,-(sp)
  f89fe8:	4878 0008      	pea 0x8
  f89fec:	61ff ffff f7e4 	bsr.l 0xf897d2
  f89ff2:	202c 9b16      	move.l -25834(a4),d0
  f89ff6:	4232 0800      	clr.b (0,a2,d0.l)
  f89ffa:	4fef 0010      	lea 16(sp),sp
  f89ffe:	6000 fc8a      	bra.w 0xf89c8a
  f8a002:	266c 9b16      	movea.l -25834(a4),a3
  f8a006:	244c           	movea.l a4,a2
  f8a008:	d5fc ffff 9912 	adda.l #-26350,a2
  f8a00e:	4872 b800      	pea (0,a2,a3.l)
  f8a012:	61ff 0000 11e0 	bsr.l 0xf8b1f4
  f8a018:	2400           	move.l d0,d2
  f8a01a:	2e8b           	move.l a3,(sp)
  f8a01c:	4878 0008      	pea 0x8
  f8a020:	61ff ffff f7b0 	bsr.l 0xf897d2
  f8a026:	2002           	move.l d2,d0
  f8a028:	d0ac 9b16      	add.l -25834(a4),d0
  f8a02c:	2f00           	move.l d0,-(sp)
  f8a02e:	4878 0020      	pea 0x20
  f8a032:	61ff ffff f79e 	bsr.l 0xf897d2
  f8a038:	d4ac 9b16      	add.l -25834(a4),d2
  f8a03c:	2f02           	move.l d2,-(sp)
  f8a03e:	4878 0008      	pea 0x8
  f8a042:	61ff ffff f78e 	bsr.l 0xf897d2
  f8a048:	42ac 9b16      	clr.l -25834(a4)
  f8a04c:	4212           	clr.b (a2)
  f8a04e:	4fef 0018      	lea 24(sp),sp
  f8a052:	6000 fc36      	bra.w 0xf89c8a
  f8a056:	242c 9b16      	move.l -25834(a4),d2
  f8a05a:	6700 fc2e      	beq.w 0xf89c8a
  f8a05e:	2442           	movea.l d2,a2
  f8a060:	264c           	movea.l a4,a3
  f8a062:	d7fc ffff 9912 	adda.l #-26350,a3
  f8a068:	220a           	move.l a2,d1
  f8a06a:	538a           	subq.l #1,a2
  f8a06c:	1033 a800      	move.b (0,a3,a2.l),d0
  f8a070:	0c00 0020      	cmpi.b #32,d0
  f8a074:	6708           	beq.s 0xf8a07e
  f8a076:	0c00 0009      	cmpi.b #9,d0
  f8a07a:	6600 0094      	bne.w 0xf8a110
  f8a07e:	4a8a           	tst.l a2
  f8a080:	66e6           	bne.s 0xf8a068
  f8a082:	4873 2800      	pea (0,a3,d2.l)
  f8a086:	61ff 0000 116c 	bsr.l 0xf8b1f4
  f8a08c:	2a40           	movea.l d0,a5
  f8a08e:	948a           	sub.l a2,d2
  f8a090:	2e82           	move.l d2,(sp)
  f8a092:	4878 0008      	pea 0x8
  f8a096:	61ff ffff f73a 	bsr.l 0xf897d2
  f8a09c:	2c4c           	movea.l a4,a6
  f8a09e:	ddfc ffff 9b16 	adda.l #-25834,a6
  f8a0a4:	220b           	move.l a3,d1
  f8a0a6:	d296           	add.l (a6),d1
  f8a0a8:	2f01           	move.l d1,-(sp)
  f8a0aa:	61ff ffff f70a 	bsr.l 0xf897b6
  f8a0b0:	2016           	move.l (a6),d0
  f8a0b2:	908a           	sub.l a2,d0
  f8a0b4:	2f00           	move.l d0,-(sp)
  f8a0b6:	4878 0020      	pea 0x20
  f8a0ba:	61ff ffff f716 	bsr.l 0xf897d2
  f8a0c0:	200d           	move.l a5,d0
  f8a0c2:	d0ac 9b16      	add.l -25834(a4),d0
  f8a0c6:	908a           	sub.l a2,d0
  f8a0c8:	2f00           	move.l d0,-(sp)
  f8a0ca:	4878 0008      	pea 0x8
  f8a0ce:	61ff ffff f702 	bsr.l 0xf897d2
  f8a0d4:	486d 0001      	pea 1(a5)
  f8a0d8:	220b           	move.l a3,d1
  f8a0da:	d296           	add.l (a6),d1
  f8a0dc:	2f01           	move.l d1,-(sp)
  f8a0de:	4873 a800      	pea (0,a3,a2.l)
  f8a0e2:	61ff 0000 0f18 	bsr.l 0xf8affc
  f8a0e8:	294a 9b16      	move.l a2,-25834(a4)
  f8a0ec:	6000 fecc      	bra.w 0xf89fba
  f8a0f0:	200a           	move.l a2,d0
  f8a0f2:	5380           	subq.l #1,d0
  f8a0f4:	1233 0800      	move.b (0,a3,d0.l),d1
  f8a0f8:	0c01 0020      	cmpi.b #32,d1
  f8a0fc:	6784           	beq.s 0xf8a082
  f8a0fe:	0c01 0009      	cmpi.b #9,d1
  f8a102:	6700 ff7e      	beq.w 0xf8a082
  f8a106:	2440           	movea.l d0,a2
  f8a108:	4a8a           	tst.l a2
  f8a10a:	66e4           	bne.s 0xf8a0f0
  f8a10c:	6000 ff74      	bra.w 0xf8a082
  f8a110:	2441           	movea.l d1,a2
  f8a112:	60f4           	bra.s 0xf8a108
  f8a114:	264c           	movea.l a4,a3
  f8a116:	d7fc ffff 9912 	adda.l #-26350,a3
  f8a11c:	2f0b           	move.l a3,-(sp)
  f8a11e:	61ff 0000 10d4 	bsr.l 0xf8b1f4
  f8a124:	2440           	movea.l d0,a2
  f8a126:	142c 9b1e      	move.b -25826(a4),d2
  f8a12a:	4280           	clr.l d0
  f8a12c:	1002           	move.b d2,d0
  f8a12e:	2e80           	move.l d0,(sp)
  f8a130:	61ff ffff f6be 	bsr.l 0xf897f0
  f8a136:	588f           	addq.l #4,sp
  f8a138:	4a00           	tst.b d0
  f8a13a:	6706           	beq.s 0xf8a142
  f8a13c:	5202           	addq.b #1,d2
  f8a13e:	1942 9b1e      	move.b d2,-25826(a4)
  f8a142:	142c 9b1e      	move.b -25826(a4),d2
  f8a146:	1002           	move.b d2,d0
  f8a148:	5200           	addq.b #1,d0
  f8a14a:	1940 9b1e      	move.b d0,-25826(a4)
  f8a14e:	0280 0000 00ff 	andi.l #255,d0
  f8a154:	2f00           	move.l d0,-(sp)
  f8a156:	2f0b           	move.l a3,-(sp)
  f8a158:	61ff ffff f5d2 	bsr.l 0xf8972c
  f8a15e:	508f           	addq.l #8,sp
  f8a160:	4a00           	tst.b d0
  f8a162:	6642           	bne.s 0xf8a1a6
  f8a164:	1942 9b1e      	move.b d2,-25826(a4)
  f8a168:	6000 fb20      	bra.w 0xf89c8a
  f8a16c:	264c           	movea.l a4,a3
  f8a16e:	d7fc ffff 9912 	adda.l #-26350,a3
  f8a174:	2f0b           	move.l a3,-(sp)
  f8a176:	61ff 0000 107c 	bsr.l 0xf8b1f4
  f8a17c:	2440           	movea.l d0,a2
  f8a17e:	142c 9b1e      	move.b -25826(a4),d2
  f8a182:	4280           	clr.l d0
  f8a184:	1002           	move.b d2,d0
  f8a186:	2e80           	move.l d0,(sp)
  f8a188:	61ff ffff f666 	bsr.l 0xf897f0
  f8a18e:	588f           	addq.l #4,sp
  f8a190:	4a00           	tst.b d0
  f8a192:	670a           	beq.s 0xf8a19e
  f8a194:	4a02           	tst.b d2
  f8a196:	6706           	beq.s 0xf8a19e
  f8a198:	5202           	addq.b #1,d2
  f8a19a:	1942 9b1e      	move.b d2,-25826(a4)
  f8a19e:	142c 9b1e      	move.b -25826(a4),d2
  f8a1a2:	6638           	bne.s 0xf8a1dc
  f8a1a4:	4213           	clr.b (a3)
  f8a1a6:	264c           	movea.l a4,a3
  f8a1a8:	d7fc ffff 9912 	adda.l #-26350,a3
  f8a1ae:	2f0b           	move.l a3,-(sp)
  f8a1b0:	61ff 0000 1042 	bsr.l 0xf8b1f4
  f8a1b6:	2400           	move.l d0,d2
  f8a1b8:	4297           	clr.l (sp)
  f8a1ba:	61ff 0000 1038 	bsr.l 0xf8b1f4
  f8a1c0:	588f           	addq.l #4,sp
  f8a1c2:	d08a           	add.l a2,d0
  f8a1c4:	7250           	moveq #80,d1
  f8a1c6:	b280           	cmp.l d0,d1
  f8a1c8:	641a           	bcc.s 0xf8a1e4
  f8a1ca:	4878 000d      	pea 0xd
  f8a1ce:	61ff ffff 9bc4 	bsr.l 0xf83d94
  f8a1d4:	2942 9b16      	move.l d2,-25834(a4)
  f8a1d8:	6000 fa20      	bra.w 0xf89bfa
  f8a1dc:	1002           	move.b d2,d0
  f8a1de:	5300           	subq.b #1,d0
  f8a1e0:	6000 ff68      	bra.w 0xf8a14a
  f8a1e4:	2f2c 9b16      	move.l -25834(a4),-(sp)
  f8a1e8:	4878 0008      	pea 0x8
  f8a1ec:	61ff ffff f5e4 	bsr.l 0xf897d2
  f8a1f2:	2f0b           	move.l a3,-(sp)
  f8a1f4:	61ff ffff f5c0 	bsr.l 0xf897b6
  f8a1fa:	4fef 000c      	lea 12(sp),sp
  f8a1fe:	b48a           	cmp.l a2,d2
  f8a200:	641e           	bcc.s 0xf8a220
  f8a202:	95c2           	suba.l d2,a2
  f8a204:	2f0a           	move.l a2,-(sp)
  f8a206:	4878 0020      	pea 0x20
  f8a20a:	61ff ffff f5c6 	bsr.l 0xf897d2
  f8a210:	2f0a           	move.l a2,-(sp)
  f8a212:	4878 0008      	pea 0x8
  f8a216:	61ff ffff f5ba 	bsr.l 0xf897d2
  f8a21c:	4fef 0010      	lea 16(sp),sp
  f8a220:	2942 9b16      	move.l d2,-25834(a4)
  f8a224:	6000 fa64      	bra.w 0xf89c8a
  f8a228:	4878 000a      	pea 0xa
  f8a22c:	61ff ffff 9b66 	bsr.l 0xf83d94
  f8a232:	61ff ffff f792 	bsr.l 0xf899c6
  f8a238:	6000 f9c0      	bra.w 0xf89bfa
  f8a23c:	347c 0005      	movea.w #5,a2
  f8a240:	6000 fa4c      	bra.w 0xf89c8e
  f8a244:	48e7 3f20      	movem.l d2-d7/a2,-(sp)
  f8a248:	206f 0024      	movea.l 36(sp),a0
  f8a24c:	2a2f 002c      	move.l 44(sp),d5
  f8a250:	2008           	move.l a0,d0
  f8a252:	2205           	move.l d5,d1
  f8a254:	2400           	move.l d0,d2
  f8a256:	4840           	swap d0
  f8a258:	2601           	move.l d1,d3
  f8a25a:	4841           	swap d1
  f8a25c:	3802           	move.w d2,d4
  f8a25e:	c8c3           	mulu.w d3,d4
  f8a260:	c4c1           	mulu.w d1,d2
  f8a262:	c6c0           	mulu.w d0,d3
  f8a264:	c2c0           	mulu.w d0,d1
  f8a266:	2004           	move.l d4,d0
  f8a268:	b140           	eor.w d0,d0
  f8a26a:	4840           	swap d0
  f8a26c:	d480           	add.l d0,d2
  f8a26e:	d483           	add.l d3,d2
  f8a270:	6406           	bcc.s 0xf8a278
  f8a272:	0681 0001 0000 	addi.l #65536,d1
  f8a278:	4842           	swap d2
  f8a27a:	7000           	moveq #0,d0
  f8a27c:	3002           	move.w d2,d0
  f8a27e:	3404           	move.w d4,d2
  f8a280:	2c02           	move.l d2,d6
  f8a282:	d081           	add.l d1,d0
  f8a284:	2e00           	move.l d0,d7
  f8a286:	45f9 00f8 ae90 	lea 0xf8ae90,a2
  f8a28c:	2f2f 0028      	move.l 40(sp),-(sp)
  f8a290:	2f08           	move.l a0,-(sp)
  f8a292:	4e92           	jsr (a2)
  f8a294:	508f           	addq.l #8,sp
  f8a296:	de80           	add.l d0,d7
  f8a298:	2f05           	move.l d5,-(sp)
  f8a29a:	2f2f 0024      	move.l 36(sp),-(sp)
  f8a29e:	4e92           	jsr (a2)
  f8a2a0:	508f           	addq.l #8,sp
  f8a2a2:	d087           	add.l d7,d0
  f8a2a4:	2206           	move.l d6,d1
  f8a2a6:	4cdf 04fc      	movem.l (sp)+,d2-d7/a2
  f8a2aa:	4e75           	rts
  f8a2ac:	48e7 3800      	movem.l d2-d4,-(sp)
  f8a2b0:	262f 0010      	move.l 16(sp),d3
  f8a2b4:	222f 0014      	move.l 20(sp),d1
  f8a2b8:	242f 0018      	move.l 24(sp),d2
  f8a2bc:	6728           	beq.s 0xf8a2e6
  f8a2be:	7820           	moveq #32,d4
  f8a2c0:	9882           	sub.l d2,d4
  f8a2c2:	4a84           	tst.l d4
  f8a2c4:	6f10           	ble.s 0xf8a2d6
  f8a2c6:	2003           	move.l d3,d0
  f8a2c8:	e4a8           	lsr.l d2,d0
  f8a2ca:	e4a9           	lsr.l d2,d1
  f8a2cc:	e9ab           	lsl.l d4,d3
  f8a2ce:	8283           	or.l d3,d1
  f8a2d0:	4cdf 001c      	movem.l (sp)+,d2-d4
  f8a2d4:	4e75           	rts
  f8a2d6:	70e0           	moveq #-32,d0
  f8a2d8:	d480           	add.l d0,d2
  f8a2da:	2203           	move.l d3,d1
  f8a2dc:	e4a9           	lsr.l d2,d1
  f8a2de:	7000           	moveq #0,d0
  f8a2e0:	4cdf 001c      	movem.l (sp)+,d2-d4
  f8a2e4:	4e75           	rts
  f8a2e6:	2003           	move.l d3,d0
  f8a2e8:	4cdf 001c      	movem.l (sp)+,d2-d4
  f8a2ec:	4e75           	rts
  f8a2ee:	0000 48e7      	ori.b #-25,d0
  f8a2f2:	3800           	move.w d0,d4
  f8a2f4:	202f 0010      	move.l 16(sp),d0
  f8a2f8:	262f 0014      	move.l 20(sp),d3
  f8a2fc:	242f 0018      	move.l 24(sp),d2
  f8a300:	6728           	beq.s 0xf8a32a
  f8a302:	7820           	moveq #32,d4
  f8a304:	9882           	sub.l d2,d4
  f8a306:	4a84           	tst.l d4
  f8a308:	6f10           	ble.s 0xf8a31a
  f8a30a:	2203           	move.l d3,d1
  f8a30c:	e5a9           	lsl.l d2,d1
  f8a30e:	e5a8           	lsl.l d2,d0
  f8a310:	e8ab           	lsr.l d4,d3
  f8a312:	8083           	or.l d3,d0
  f8a314:	4cdf 001c      	movem.l (sp)+,d2-d4
  f8a318:	4e75           	rts
  f8a31a:	70e0           	moveq #-32,d0
  f8a31c:	d480           	add.l d0,d2
  f8a31e:	2003           	move.l d3,d0
  f8a320:	e5a8           	lsl.l d2,d0
  f8a322:	7200           	moveq #0,d1
  f8a324:	4cdf 001c      	movem.l (sp)+,d2-d4
  f8a328:	4e75           	rts
  f8a32a:	2203           	move.l d3,d1
  f8a32c:	4cdf 001c      	movem.l (sp)+,d2-d4
  f8a330:	4e75           	rts
  f8a332:	0000 518f      	ori.b #-113,d0
  f8a336:	48e7 3f3e      	movem.l d2-d7/a2-a6,-(sp)
  f8a33a:	202f 0038      	move.l 56(sp),d0
  f8a33e:	246f 003c      	movea.l 60(sp),a2
  f8a342:	222f 0040      	move.l 64(sp),d1
  f8a346:	2a2f 0044      	move.l 68(sp),d5
  f8a34a:	2e0a           	move.l a2,d7
  f8a34c:	2c00           	move.l d0,d6
  f8a34e:	4a81           	tst.l d1
  f8a350:	6600 0104      	bne.w 0xf8a456
  f8a354:	b085           	cmp.l d5,d0
  f8a356:	6400 0112      	bcc.w 0xf8a46a
  f8a35a:	0c85 0000 ffff 	cmpi.l #65535,d5
  f8a360:	6300 03b2      	bls.w 0xf8a714
  f8a364:	0c85 00ff ffff 	cmpi.l #16777215,d5
  f8a36a:	6200 0512      	bhi.w 0xf8a87e
  f8a36e:	7210           	moveq #16,d1
  f8a370:	2405           	move.l d5,d2
  f8a372:	e2aa           	lsr.l d1,d2
  f8a374:	41f9 00f8 ad90 	lea 0xf8ad90,a0
  f8a37a:	1430 2800      	move.b (0,a0,d2.l),d2
  f8a37e:	0282 0000 00ff 	andi.l #255,d2
  f8a384:	d282           	add.l d2,d1
  f8a386:	7420           	moveq #32,d2
  f8a388:	9481           	sub.l d1,d2
  f8a38a:	7620           	moveq #32,d3
  f8a38c:	b681           	cmp.l d1,d3
  f8a38e:	670e           	beq.s 0xf8a39e
  f8a390:	e5ad           	lsl.l d2,d5
  f8a392:	e5a8           	lsl.l d2,d0
  f8a394:	2c0a           	move.l a2,d6
  f8a396:	e2ae           	lsr.l d1,d6
  f8a398:	8c80           	or.l d0,d6
  f8a39a:	2e0a           	move.l a2,d7
  f8a39c:	e5af           	lsl.l d2,d7
  f8a39e:	2605           	move.l d5,d3
  f8a3a0:	4243           	clr.w d3
  f8a3a2:	4843           	swap d3
  f8a3a4:	2805           	move.l d5,d4
  f8a3a6:	0284 0000 ffff 	andi.l #65535,d4
  f8a3ac:	4bf9 00f8 aec8 	lea 0xf8aec8,a5
  f8a3b2:	2f03           	move.l d3,-(sp)
  f8a3b4:	2f06           	move.l d6,-(sp)
  f8a3b6:	4e95           	jsr (a5)
  f8a3b8:	508f           	addq.l #8,sp
  f8a3ba:	2400           	move.l d0,d2
  f8a3bc:	49f9 00f8 ae90 	lea 0xf8ae90,a4
  f8a3c2:	2f00           	move.l d0,-(sp)
  f8a3c4:	2f04           	move.l d4,-(sp)
  f8a3c6:	4e94           	jsr (a4)
  f8a3c8:	508f           	addq.l #8,sp
  f8a3ca:	2440           	movea.l d0,a2
  f8a3cc:	47f9 00f8 aebc 	lea 0xf8aebc,a3
  f8a3d2:	2f03           	move.l d3,-(sp)
  f8a3d4:	2f06           	move.l d6,-(sp)
  f8a3d6:	4e93           	jsr (a3)
  f8a3d8:	508f           	addq.l #8,sp
  f8a3da:	4840           	swap d0
  f8a3dc:	4240           	clr.w d0
  f8a3de:	2207           	move.l d7,d1
  f8a3e0:	4241           	clr.w d1
  f8a3e2:	4841           	swap d1
  f8a3e4:	8280           	or.l d0,d1
  f8a3e6:	b28a           	cmp.l a2,d1
  f8a3e8:	6416           	bcc.s 0xf8a400
  f8a3ea:	2002           	move.l d2,d0
  f8a3ec:	5380           	subq.l #1,d0
  f8a3ee:	d285           	add.l d5,d1
  f8a3f0:	b285           	cmp.l d5,d1
  f8a3f2:	6500 043e      	bcs.w 0xf8a832
  f8a3f6:	b28a           	cmp.l a2,d1
  f8a3f8:	6400 0438      	bcc.w 0xf8a832
  f8a3fc:	5582           	subq.l #2,d2
  f8a3fe:	d285           	add.l d5,d1
  f8a400:	2c01           	move.l d1,d6
  f8a402:	9c8a           	sub.l a2,d6
  f8a404:	2f03           	move.l d3,-(sp)
  f8a406:	2f06           	move.l d6,-(sp)
  f8a408:	4e95           	jsr (a5)
  f8a40a:	508f           	addq.l #8,sp
  f8a40c:	2440           	movea.l d0,a2
  f8a40e:	2f00           	move.l d0,-(sp)
  f8a410:	2f04           	move.l d4,-(sp)
  f8a412:	4e94           	jsr (a4)
  f8a414:	508f           	addq.l #8,sp
  f8a416:	2800           	move.l d0,d4
  f8a418:	2f03           	move.l d3,-(sp)
  f8a41a:	2f06           	move.l d6,-(sp)
  f8a41c:	4e93           	jsr (a3)
  f8a41e:	508f           	addq.l #8,sp
  f8a420:	2200           	move.l d0,d1
  f8a422:	4841           	swap d1
  f8a424:	4241           	clr.w d1
  f8a426:	8247           	or.w d7,d1
  f8a428:	b284           	cmp.l d4,d1
  f8a42a:	6414           	bcc.s 0xf8a440
  f8a42c:	200a           	move.l a2,d0
  f8a42e:	5380           	subq.l #1,d0
  f8a430:	d285           	add.l d5,d1
  f8a432:	b285           	cmp.l d5,d1
  f8a434:	6500 0402      	bcs.w 0xf8a838
  f8a438:	b284           	cmp.l d4,d1
  f8a43a:	6400 03fc      	bcc.w 0xf8a838
  f8a43e:	558a           	subq.l #2,a2
  f8a440:	2202           	move.l d2,d1
  f8a442:	4841           	swap d1
  f8a444:	4241           	clr.w d1
  f8a446:	200a           	move.l a2,d0
  f8a448:	8280           	or.l d0,d1
  f8a44a:	7c00           	moveq #0,d6
  f8a44c:	2006           	move.l d6,d0
  f8a44e:	4cdf 7cfc      	movem.l (sp)+,d2-d7/a2-a6
  f8a452:	508f           	addq.l #8,sp
  f8a454:	4e75           	rts
  f8a456:	b081           	cmp.l d1,d0
  f8a458:	6400 0114      	bcc.w 0xf8a56e
  f8a45c:	7200           	moveq #0,d1
  f8a45e:	7c00           	moveq #0,d6
  f8a460:	2006           	move.l d6,d0
  f8a462:	4cdf 7cfc      	movem.l (sp)+,d2-d7/a2-a6
  f8a466:	508f           	addq.l #8,sp
  f8a468:	4e75           	rts
  f8a46a:	4a85           	tst.l d5
  f8a46c:	6700 02ba      	beq.w 0xf8a728
  f8a470:	0c85 0000 ffff 	cmpi.l #65535,d5
  f8a476:	6200 03ec      	bhi.w 0xf8a864
  f8a47a:	0c85 0000 00ff 	cmpi.l #255,d5
  f8a480:	52c2           	shi d2
  f8a482:	4882           	ext.w d2
  f8a484:	48c2           	ext.l d2
  f8a486:	4482           	neg.l d2
  f8a488:	e78a           	lsl.l #3,d2
  f8a48a:	2205           	move.l d5,d1
  f8a48c:	e4a9           	lsr.l d2,d1
  f8a48e:	41f9 00f8 ad90 	lea 0xf8ad90,a0
  f8a494:	1230 1800      	move.b (0,a0,d1.l),d1
  f8a498:	0281 0000 00ff 	andi.l #255,d1
  f8a49e:	d282           	add.l d2,d1
  f8a4a0:	7620           	moveq #32,d3
  f8a4a2:	9681           	sub.l d1,d3
  f8a4a4:	7420           	moveq #32,d2
  f8a4a6:	b481           	cmp.l d1,d2
  f8a4a8:	6600 02a0      	bne.w 0xf8a74a
  f8a4ac:	2440           	movea.l d0,a2
  f8a4ae:	95c5           	suba.l d5,a2
  f8a4b0:	2605           	move.l d5,d3
  f8a4b2:	4243           	clr.w d3
  f8a4b4:	4843           	swap d3
  f8a4b6:	2805           	move.l d5,d4
  f8a4b8:	0284 0000 ffff 	andi.l #65535,d4
  f8a4be:	7c01           	moveq #1,d6
  f8a4c0:	4bf9 00f8 aec8 	lea 0xf8aec8,a5
  f8a4c6:	49f9 00f8 ae90 	lea 0xf8ae90,a4
  f8a4cc:	47f9 00f8 aebc 	lea 0xf8aebc,a3
  f8a4d2:	2f03           	move.l d3,-(sp)
  f8a4d4:	2f0a           	move.l a2,-(sp)
  f8a4d6:	4e95           	jsr (a5)
  f8a4d8:	508f           	addq.l #8,sp
  f8a4da:	2400           	move.l d0,d2
  f8a4dc:	2f04           	move.l d4,-(sp)
  f8a4de:	2f00           	move.l d0,-(sp)
  f8a4e0:	4e94           	jsr (a4)
  f8a4e2:	508f           	addq.l #8,sp
  f8a4e4:	2f03           	move.l d3,-(sp)
  f8a4e6:	2f0a           	move.l a2,-(sp)
  f8a4e8:	2f40 0034      	move.l d0,52(sp)
  f8a4ec:	4e93           	jsr (a3)
  f8a4ee:	508f           	addq.l #8,sp
  f8a4f0:	4840           	swap d0
  f8a4f2:	4240           	clr.w d0
  f8a4f4:	2207           	move.l d7,d1
  f8a4f6:	4241           	clr.w d1
  f8a4f8:	4841           	swap d1
  f8a4fa:	8280           	or.l d0,d1
  f8a4fc:	206f 002c      	movea.l 44(sp),a0
  f8a500:	b288           	cmp.l a0,d1
  f8a502:	6416           	bcc.s 0xf8a51a
  f8a504:	2002           	move.l d2,d0
  f8a506:	5380           	subq.l #1,d0
  f8a508:	d285           	add.l d5,d1
  f8a50a:	b285           	cmp.l d5,d1
  f8a50c:	6500 030e      	bcs.w 0xf8a81c
  f8a510:	b288           	cmp.l a0,d1
  f8a512:	6400 0308      	bcc.w 0xf8a81c
  f8a516:	5582           	subq.l #2,d2
  f8a518:	d285           	add.l d5,d1
  f8a51a:	2c41           	movea.l d1,a6
  f8a51c:	9dc8           	suba.l a0,a6
  f8a51e:	2f03           	move.l d3,-(sp)
  f8a520:	2f0e           	move.l a6,-(sp)
  f8a522:	4e95           	jsr (a5)
  f8a524:	508f           	addq.l #8,sp
  f8a526:	2440           	movea.l d0,a2
  f8a528:	2f04           	move.l d4,-(sp)
  f8a52a:	2f00           	move.l d0,-(sp)
  f8a52c:	4e94           	jsr (a4)
  f8a52e:	508f           	addq.l #8,sp
  f8a530:	2800           	move.l d0,d4
  f8a532:	2f03           	move.l d3,-(sp)
  f8a534:	2f0e           	move.l a6,-(sp)
  f8a536:	4e93           	jsr (a3)
  f8a538:	508f           	addq.l #8,sp
  f8a53a:	2200           	move.l d0,d1
  f8a53c:	4841           	swap d1
  f8a53e:	4241           	clr.w d1
  f8a540:	8247           	or.w d7,d1
  f8a542:	b284           	cmp.l d4,d1
  f8a544:	6414           	bcc.s 0xf8a55a
  f8a546:	200a           	move.l a2,d0
  f8a548:	5380           	subq.l #1,d0
  f8a54a:	d285           	add.l d5,d1
  f8a54c:	b285           	cmp.l d5,d1
  f8a54e:	6500 02d2      	bcs.w 0xf8a822
  f8a552:	b284           	cmp.l d4,d1
  f8a554:	6400 02cc      	bcc.w 0xf8a822
  f8a558:	558a           	subq.l #2,a2
  f8a55a:	2202           	move.l d2,d1
  f8a55c:	4841           	swap d1
  f8a55e:	4241           	clr.w d1
  f8a560:	240a           	move.l a2,d2
  f8a562:	8282           	or.l d2,d1
  f8a564:	2006           	move.l d6,d0
  f8a566:	4cdf 7cfc      	movem.l (sp)+,d2-d7/a2-a6
  f8a56a:	508f           	addq.l #8,sp
  f8a56c:	4e75           	rts
  f8a56e:	0c81 0000 ffff 	cmpi.l #65535,d1
  f8a574:	6344           	bls.s 0xf8a5ba
  f8a576:	0c81 00ff ffff 	cmpi.l #16777215,d1
  f8a57c:	6200 02fa      	bhi.w 0xf8a878
  f8a580:	7410           	moveq #16,d2
  f8a582:	2601           	move.l d1,d3
  f8a584:	e4ab           	lsr.l d2,d3
  f8a586:	41f9 00f8 ad90 	lea 0xf8ad90,a0
  f8a58c:	1630 3800      	move.b (0,a0,d3.l),d3
  f8a590:	0283 0000 00ff 	andi.l #255,d3
  f8a596:	d483           	add.l d3,d2
  f8a598:	7e20           	moveq #32,d7
  f8a59a:	9e82           	sub.l d2,d7
  f8a59c:	7620           	moveq #32,d3
  f8a59e:	b682           	cmp.l d2,d3
  f8a5a0:	6648           	bne.s 0xf8a5ea
  f8a5a2:	b081           	cmp.l d1,d0
  f8a5a4:	6206           	bhi.s 0xf8a5ac
  f8a5a6:	b5c5           	cmpa.l d5,a2
  f8a5a8:	6500 feb2      	bcs.w 0xf8a45c
  f8a5ac:	7201           	moveq #1,d1
  f8a5ae:	7c00           	moveq #0,d6
  f8a5b0:	2006           	move.l d6,d0
  f8a5b2:	4cdf 7cfc      	movem.l (sp)+,d2-d7/a2-a6
  f8a5b6:	508f           	addq.l #8,sp
  f8a5b8:	4e75           	rts
  f8a5ba:	0c81 0000 00ff 	cmpi.l #255,d1
  f8a5c0:	52c2           	shi d2
  f8a5c2:	4882           	ext.w d2
  f8a5c4:	48c2           	ext.l d2
  f8a5c6:	4482           	neg.l d2
  f8a5c8:	e78a           	lsl.l #3,d2
  f8a5ca:	2601           	move.l d1,d3
  f8a5cc:	e4ab           	lsr.l d2,d3
  f8a5ce:	41f9 00f8 ad90 	lea 0xf8ad90,a0
  f8a5d4:	1630 3800      	move.b (0,a0,d3.l),d3
  f8a5d8:	0283 0000 00ff 	andi.l #255,d3
  f8a5de:	d483           	add.l d3,d2
  f8a5e0:	7e20           	moveq #32,d7
  f8a5e2:	9e82           	sub.l d2,d7
  f8a5e4:	7620           	moveq #32,d3
  f8a5e6:	b682           	cmp.l d2,d3
  f8a5e8:	67b8           	beq.s 0xf8a5a2
  f8a5ea:	efa9           	lsl.l d7,d1
  f8a5ec:	2605           	move.l d5,d3
  f8a5ee:	e4ab           	lsr.l d2,d3
  f8a5f0:	8681           	or.l d1,d3
  f8a5f2:	efad           	lsl.l d7,d5
  f8a5f4:	2f45 0030      	move.l d5,48(sp)
  f8a5f8:	2200           	move.l d0,d1
  f8a5fa:	e4a9           	lsr.l d2,d1
  f8a5fc:	efa8           	lsl.l d7,d0
  f8a5fe:	280a           	move.l a2,d4
  f8a600:	e4ac           	lsr.l d2,d4
  f8a602:	8880           	or.l d0,d4
  f8a604:	2a03           	move.l d3,d5
  f8a606:	4245           	clr.w d5
  f8a608:	4845           	swap d5
  f8a60a:	2003           	move.l d3,d0
  f8a60c:	0280 0000 ffff 	andi.l #65535,d0
  f8a612:	2c40           	movea.l d0,a6
  f8a614:	4bf9 00f8 aec8 	lea 0xf8aec8,a5
  f8a61a:	2f05           	move.l d5,-(sp)
  f8a61c:	2f01           	move.l d1,-(sp)
  f8a61e:	2f41 0034      	move.l d1,52(sp)
  f8a622:	4e95           	jsr (a5)
  f8a624:	508f           	addq.l #8,sp
  f8a626:	2400           	move.l d0,d2
  f8a628:	49f9 00f8 ae90 	lea 0xf8ae90,a4
  f8a62e:	2f00           	move.l d0,-(sp)
  f8a630:	2f0e           	move.l a6,-(sp)
  f8a632:	4e94           	jsr (a4)
  f8a634:	508f           	addq.l #8,sp
  f8a636:	2c00           	move.l d0,d6
  f8a638:	47f9 00f8 aebc 	lea 0xf8aebc,a3
  f8a63e:	2f05           	move.l d5,-(sp)
  f8a640:	222f 0030      	move.l 48(sp),d1
  f8a644:	2f01           	move.l d1,-(sp)
  f8a646:	4e93           	jsr (a3)
  f8a648:	508f           	addq.l #8,sp
  f8a64a:	4840           	swap d0
  f8a64c:	4240           	clr.w d0
  f8a64e:	2204           	move.l d4,d1
  f8a650:	4241           	clr.w d1
  f8a652:	4841           	swap d1
  f8a654:	8280           	or.l d0,d1
  f8a656:	b286           	cmp.l d6,d1
  f8a658:	6416           	bcc.s 0xf8a670
  f8a65a:	2002           	move.l d2,d0
  f8a65c:	5380           	subq.l #1,d0
  f8a65e:	d283           	add.l d3,d1
  f8a660:	b283           	cmp.l d3,d1
  f8a662:	6500 023e      	bcs.w 0xf8a8a2
  f8a666:	b286           	cmp.l d6,d1
  f8a668:	6400 0238      	bcc.w 0xf8a8a2
  f8a66c:	5582           	subq.l #2,d2
  f8a66e:	d283           	add.l d3,d1
  f8a670:	9286           	sub.l d6,d1
  f8a672:	2f05           	move.l d5,-(sp)
  f8a674:	2f01           	move.l d1,-(sp)
  f8a676:	2f41 0034      	move.l d1,52(sp)
  f8a67a:	4e95           	jsr (a5)
  f8a67c:	508f           	addq.l #8,sp
  f8a67e:	2a40           	movea.l d0,a5
  f8a680:	2f00           	move.l d0,-(sp)
  f8a682:	2f0e           	move.l a6,-(sp)
  f8a684:	4e94           	jsr (a4)
  f8a686:	508f           	addq.l #8,sp
  f8a688:	2840           	movea.l d0,a4
  f8a68a:	2f05           	move.l d5,-(sp)
  f8a68c:	222f 0030      	move.l 48(sp),d1
  f8a690:	2f01           	move.l d1,-(sp)
  f8a692:	4e93           	jsr (a3)
  f8a694:	508f           	addq.l #8,sp
  f8a696:	2200           	move.l d0,d1
  f8a698:	4841           	swap d1
  f8a69a:	4241           	clr.w d1
  f8a69c:	8244           	or.w d4,d1
  f8a69e:	b28c           	cmp.l a4,d1
  f8a6a0:	6416           	bcc.s 0xf8a6b8
  f8a6a2:	200d           	move.l a5,d0
  f8a6a4:	5380           	subq.l #1,d0
  f8a6a6:	d283           	add.l d3,d1
  f8a6a8:	b283           	cmp.l d3,d1
  f8a6aa:	6500 01ea      	bcs.w 0xf8a896
  f8a6ae:	b28c           	cmp.l a4,d1
  f8a6b0:	6400 01e4      	bcc.w 0xf8a896
  f8a6b4:	558d           	subq.l #2,a5
  f8a6b6:	d283           	add.l d3,d1
  f8a6b8:	2041           	movea.l d1,a0
  f8a6ba:	91cc           	suba.l a4,a0
  f8a6bc:	4842           	swap d2
  f8a6be:	4242           	clr.w d2
  f8a6c0:	2a0d           	move.l a5,d5
  f8a6c2:	8a82           	or.l d2,d5
  f8a6c4:	2005           	move.l d5,d0
  f8a6c6:	222f 0030      	move.l 48(sp),d1
  f8a6ca:	2400           	move.l d0,d2
  f8a6cc:	4840           	swap d0
  f8a6ce:	2601           	move.l d1,d3
  f8a6d0:	4841           	swap d1
  f8a6d2:	3802           	move.w d2,d4
  f8a6d4:	c8c3           	mulu.w d3,d4
  f8a6d6:	c4c1           	mulu.w d1,d2
  f8a6d8:	c6c0           	mulu.w d0,d3
  f8a6da:	c2c0           	mulu.w d0,d1
  f8a6dc:	2004           	move.l d4,d0
  f8a6de:	b140           	eor.w d0,d0
  f8a6e0:	4840           	swap d0
  f8a6e2:	d480           	add.l d0,d2
  f8a6e4:	d483           	add.l d3,d2
  f8a6e6:	6406           	bcc.s 0xf8a6ee
  f8a6e8:	0681 0001 0000 	addi.l #65536,d1
  f8a6ee:	4842           	swap d2
  f8a6f0:	7000           	moveq #0,d0
  f8a6f2:	3002           	move.w d2,d0
  f8a6f4:	3404           	move.w d4,d2
  f8a6f6:	2242           	movea.l d2,a1
  f8a6f8:	d081           	add.l d1,d0
  f8a6fa:	2c00           	move.l d0,d6
  f8a6fc:	bc88           	cmp.l a0,d6
  f8a6fe:	6200 0154      	bhi.w 0xf8a854
  f8a702:	6700 0146      	beq.w 0xf8a84a
  f8a706:	2205           	move.l d5,d1
  f8a708:	7c00           	moveq #0,d6
  f8a70a:	2006           	move.l d6,d0
  f8a70c:	4cdf 7cfc      	movem.l (sp)+,d2-d7/a2-a6
  f8a710:	508f           	addq.l #8,sp
  f8a712:	4e75           	rts
  f8a714:	0c85 0000 00ff 	cmpi.l #255,d5
  f8a71a:	52c1           	shi d1
  f8a71c:	4881           	ext.w d1
  f8a71e:	48c1           	ext.l d1
  f8a720:	4481           	neg.l d1
  f8a722:	e789           	lsl.l #3,d1
  f8a724:	6000 fc4a      	bra.w 0xf8a370
  f8a728:	7200           	moveq #0,d1
  f8a72a:	7400           	moveq #0,d2
  f8a72c:	41f9 00f8 ad90 	lea 0xf8ad90,a0
  f8a732:	1230 1800      	move.b (0,a0,d1.l),d1
  f8a736:	0281 0000 00ff 	andi.l #255,d1
  f8a73c:	d282           	add.l d2,d1
  f8a73e:	7620           	moveq #32,d3
  f8a740:	9681           	sub.l d1,d3
  f8a742:	7420           	moveq #32,d2
  f8a744:	b481           	cmp.l d1,d2
  f8a746:	6700 fd64      	beq.w 0xf8a4ac
  f8a74a:	e7ad           	lsl.l d3,d5
  f8a74c:	2400           	move.l d0,d2
  f8a74e:	e2aa           	lsr.l d1,d2
  f8a750:	2042           	movea.l d2,a0
  f8a752:	e7a8           	lsl.l d3,d0
  f8a754:	240a           	move.l a2,d2
  f8a756:	e2aa           	lsr.l d1,d2
  f8a758:	8480           	or.l d0,d2
  f8a75a:	2e0a           	move.l a2,d7
  f8a75c:	e7af           	lsl.l d3,d7
  f8a75e:	2605           	move.l d5,d3
  f8a760:	4243           	clr.w d3
  f8a762:	4843           	swap d3
  f8a764:	2805           	move.l d5,d4
  f8a766:	0284 0000 ffff 	andi.l #65535,d4
  f8a76c:	4bf9 00f8 aec8 	lea 0xf8aec8,a5
  f8a772:	2f03           	move.l d3,-(sp)
  f8a774:	2f08           	move.l a0,-(sp)
  f8a776:	2f48 0034      	move.l a0,52(sp)
  f8a77a:	4e95           	jsr (a5)
  f8a77c:	508f           	addq.l #8,sp
  f8a77e:	2c00           	move.l d0,d6
  f8a780:	49f9 00f8 ae90 	lea 0xf8ae90,a4
  f8a786:	2f00           	move.l d0,-(sp)
  f8a788:	2f04           	move.l d4,-(sp)
  f8a78a:	4e94           	jsr (a4)
  f8a78c:	508f           	addq.l #8,sp
  f8a78e:	2c40           	movea.l d0,a6
  f8a790:	47f9 00f8 aebc 	lea 0xf8aebc,a3
  f8a796:	2f03           	move.l d3,-(sp)
  f8a798:	206f 0030      	movea.l 48(sp),a0
  f8a79c:	2f08           	move.l a0,-(sp)
  f8a79e:	4e93           	jsr (a3)
  f8a7a0:	508f           	addq.l #8,sp
  f8a7a2:	4840           	swap d0
  f8a7a4:	4240           	clr.w d0
  f8a7a6:	2202           	move.l d2,d1
  f8a7a8:	4241           	clr.w d1
  f8a7aa:	4841           	swap d1
  f8a7ac:	8280           	or.l d0,d1
  f8a7ae:	b28e           	cmp.l a6,d1
  f8a7b0:	6416           	bcc.s 0xf8a7c8
  f8a7b2:	2006           	move.l d6,d0
  f8a7b4:	5380           	subq.l #1,d0
  f8a7b6:	d285           	add.l d5,d1
  f8a7b8:	b285           	cmp.l d5,d1
  f8a7ba:	6500 00e0      	bcs.w 0xf8a89c
  f8a7be:	b28e           	cmp.l a6,d1
  f8a7c0:	6400 00da      	bcc.w 0xf8a89c
  f8a7c4:	5586           	subq.l #2,d6
  f8a7c6:	d285           	add.l d5,d1
  f8a7c8:	2441           	movea.l d1,a2
  f8a7ca:	95ce           	suba.l a6,a2
  f8a7cc:	2f03           	move.l d3,-(sp)
  f8a7ce:	2f0a           	move.l a2,-(sp)
  f8a7d0:	4e95           	jsr (a5)
  f8a7d2:	508f           	addq.l #8,sp
  f8a7d4:	2c40           	movea.l d0,a6
  f8a7d6:	2f00           	move.l d0,-(sp)
  f8a7d8:	2f04           	move.l d4,-(sp)
  f8a7da:	4e94           	jsr (a4)
  f8a7dc:	508f           	addq.l #8,sp
  f8a7de:	2f03           	move.l d3,-(sp)
  f8a7e0:	2f0a           	move.l a2,-(sp)
  f8a7e2:	2f40 0034      	move.l d0,52(sp)
  f8a7e6:	4e93           	jsr (a3)
  f8a7e8:	508f           	addq.l #8,sp
  f8a7ea:	4840           	swap d0
  f8a7ec:	4240           	clr.w d0
  f8a7ee:	8042           	or.w d2,d0
  f8a7f0:	222f 002c      	move.l 44(sp),d1
  f8a7f4:	b081           	cmp.l d1,d0
  f8a7f6:	6414           	bcc.s 0xf8a80c
  f8a7f8:	41ee ffff      	lea -1(a6),a0
  f8a7fc:	d085           	add.l d5,d0
  f8a7fe:	b085           	cmp.l d5,d0
  f8a800:	6500 0082      	bcs.w 0xf8a884
  f8a804:	b081           	cmp.l d1,d0
  f8a806:	647c           	bcc.s 0xf8a884
  f8a808:	558e           	subq.l #2,a6
  f8a80a:	d085           	add.l d5,d0
  f8a80c:	2440           	movea.l d0,a2
  f8a80e:	95c1           	suba.l d1,a2
  f8a810:	4846           	swap d6
  f8a812:	4246           	clr.w d6
  f8a814:	200e           	move.l a6,d0
  f8a816:	8c80           	or.l d0,d6
  f8a818:	6000 fcb8      	bra.w 0xf8a4d2
  f8a81c:	2400           	move.l d0,d2
  f8a81e:	6000 fcfa      	bra.w 0xf8a51a
  f8a822:	2440           	movea.l d0,a2
  f8a824:	2202           	move.l d2,d1
  f8a826:	4841           	swap d1
  f8a828:	4241           	clr.w d1
  f8a82a:	240a           	move.l a2,d2
  f8a82c:	8282           	or.l d2,d1
  f8a82e:	6000 fd34      	bra.w 0xf8a564
  f8a832:	2400           	move.l d0,d2
  f8a834:	6000 fbca      	bra.w 0xf8a400
  f8a838:	2440           	movea.l d0,a2
  f8a83a:	2202           	move.l d2,d1
  f8a83c:	4841           	swap d1
  f8a83e:	4241           	clr.w d1
  f8a840:	200a           	move.l a2,d0
  f8a842:	8280           	or.l d0,d1
  f8a844:	7c00           	moveq #0,d6
  f8a846:	6000 fc04      	bra.w 0xf8a44c
  f8a84a:	200a           	move.l a2,d0
  f8a84c:	efa8           	lsl.l d7,d0
  f8a84e:	b3c0           	cmpa.l d0,a1
  f8a850:	6300 feb4      	bls.w 0xf8a706
  f8a854:	2205           	move.l d5,d1
  f8a856:	5381           	subq.l #1,d1
  f8a858:	7c00           	moveq #0,d6
  f8a85a:	2006           	move.l d6,d0
  f8a85c:	4cdf 7cfc      	movem.l (sp)+,d2-d7/a2-a6
  f8a860:	508f           	addq.l #8,sp
  f8a862:	4e75           	rts
  f8a864:	2205           	move.l d5,d1
  f8a866:	0c85 00ff ffff 	cmpi.l #16777215,d5
  f8a86c:	623a           	bhi.s 0xf8a8a8
  f8a86e:	4241           	clr.w d1
  f8a870:	4841           	swap d1
  f8a872:	7410           	moveq #16,d2
  f8a874:	6000 fc18      	bra.w 0xf8a48e
  f8a878:	7418           	moveq #24,d2
  f8a87a:	6000 fd06      	bra.w 0xf8a582
  f8a87e:	7218           	moveq #24,d1
  f8a880:	6000 faee      	bra.w 0xf8a370
  f8a884:	2c48           	movea.l a0,a6
  f8a886:	2440           	movea.l d0,a2
  f8a888:	95c1           	suba.l d1,a2
  f8a88a:	4846           	swap d6
  f8a88c:	4246           	clr.w d6
  f8a88e:	200e           	move.l a6,d0
  f8a890:	8c80           	or.l d0,d6
  f8a892:	6000 fc3e      	bra.w 0xf8a4d2
  f8a896:	2a40           	movea.l d0,a5
  f8a898:	6000 fe1e      	bra.w 0xf8a6b8
  f8a89c:	2c00           	move.l d0,d6
  f8a89e:	6000 ff28      	bra.w 0xf8a7c8
  f8a8a2:	2400           	move.l d0,d2
  f8a8a4:	6000 fdca      	bra.w 0xf8a670
  f8a8a8:	4241           	clr.w d1
  f8a8aa:	4841           	swap d1
  f8a8ac:	e049           	lsr.w #8,d1
  f8a8ae:	7418           	moveq #24,d2
  f8a8b0:	6000 fbdc      	bra.w 0xf8a48e
  f8a8b4:	4fef fff0      	lea -16(sp),sp
  f8a8b8:	48e7 3f3e      	movem.l d2-d7/a2-a6,-(sp)
  f8a8bc:	202f 0040      	move.l 64(sp),d0
  f8a8c0:	222f 0044      	move.l 68(sp),d1
  f8a8c4:	242f 0048      	move.l 72(sp),d2
  f8a8c8:	2a2f 004c      	move.l 76(sp),d5
  f8a8cc:	2601           	move.l d1,d3
  f8a8ce:	2040           	movea.l d0,a0
  f8a8d0:	2800           	move.l d0,d4
  f8a8d2:	4a82           	tst.l d2
  f8a8d4:	6600 00e8      	bne.w 0xf8a9be
  f8a8d8:	b085           	cmp.l d5,d0
  f8a8da:	6400 013c      	bcc.w 0xf8aa18
  f8a8de:	0c85 0000 ffff 	cmpi.l #65535,d5
  f8a8e4:	6300 01ea      	bls.w 0xf8aad0
  f8a8e8:	0c85 00ff ffff 	cmpi.l #16777215,d5
  f8a8ee:	6200 047a      	bhi.w 0xf8ad6a
  f8a8f2:	7410           	moveq #16,d2
  f8a8f4:	2c05           	move.l d5,d6
  f8a8f6:	e4ae           	lsr.l d2,d6
  f8a8f8:	41f9 00f8 ad90 	lea 0xf8ad90,a0
  f8a8fe:	1c30 6800      	move.b (0,a0,d6.l),d6
  f8a902:	0286 0000 00ff 	andi.l #255,d6
  f8a908:	dc82           	add.l d2,d6
  f8a90a:	7420           	moveq #32,d2
  f8a90c:	9486           	sub.l d6,d2
  f8a90e:	7e20           	moveq #32,d7
  f8a910:	be86           	cmp.l d6,d7
  f8a912:	670e           	beq.s 0xf8a922
  f8a914:	e5ad           	lsl.l d2,d5
  f8a916:	e5a8           	lsl.l d2,d0
  f8a918:	2801           	move.l d1,d4
  f8a91a:	ecac           	lsr.l d6,d4
  f8a91c:	8880           	or.l d0,d4
  f8a91e:	2601           	move.l d1,d3
  f8a920:	e5ab           	lsl.l d2,d3
  f8a922:	2c05           	move.l d5,d6
  f8a924:	4246           	clr.w d6
  f8a926:	4846           	swap d6
  f8a928:	2e05           	move.l d5,d7
  f8a92a:	0287 0000 ffff 	andi.l #65535,d7
  f8a930:	4df9 00f8 aec8 	lea 0xf8aec8,a6
  f8a936:	2f06           	move.l d6,-(sp)
  f8a938:	2f04           	move.l d4,-(sp)
  f8a93a:	4e96           	jsr (a6)
  f8a93c:	508f           	addq.l #8,sp
  f8a93e:	47f9 00f8 ae90 	lea 0xf8ae90,a3
  f8a944:	2f07           	move.l d7,-(sp)
  f8a946:	2f00           	move.l d0,-(sp)
  f8a948:	4e93           	jsr (a3)
  f8a94a:	508f           	addq.l #8,sp
  f8a94c:	2840           	movea.l d0,a4
  f8a94e:	45f9 00f8 aebc 	lea 0xf8aebc,a2
  f8a954:	2f06           	move.l d6,-(sp)
  f8a956:	2f04           	move.l d4,-(sp)
  f8a958:	4e92           	jsr (a2)
  f8a95a:	508f           	addq.l #8,sp
  f8a95c:	4840           	swap d0
  f8a95e:	4240           	clr.w d0
  f8a960:	2203           	move.l d3,d1
  f8a962:	4241           	clr.w d1
  f8a964:	4841           	swap d1
  f8a966:	8280           	or.l d0,d1
  f8a968:	b28c           	cmp.l a4,d1
  f8a96a:	640c           	bcc.s 0xf8a978
  f8a96c:	d285           	add.l d5,d1
  f8a96e:	b285           	cmp.l d5,d1
  f8a970:	6506           	bcs.s 0xf8a978
  f8a972:	b28c           	cmp.l a4,d1
  f8a974:	6402           	bcc.s 0xf8a978
  f8a976:	d285           	add.l d5,d1
  f8a978:	2801           	move.l d1,d4
  f8a97a:	988c           	sub.l a4,d4
  f8a97c:	2f06           	move.l d6,-(sp)
  f8a97e:	2f04           	move.l d4,-(sp)
  f8a980:	4e96           	jsr (a6)
  f8a982:	588f           	addq.l #4,sp
  f8a984:	2e87           	move.l d7,(sp)
  f8a986:	2f00           	move.l d0,-(sp)
  f8a988:	4e93           	jsr (a3)
  f8a98a:	508f           	addq.l #8,sp
  f8a98c:	2e00           	move.l d0,d7
  f8a98e:	2f06           	move.l d6,-(sp)
  f8a990:	2f04           	move.l d4,-(sp)
  f8a992:	4e92           	jsr (a2)
  f8a994:	508f           	addq.l #8,sp
  f8a996:	2200           	move.l d0,d1
  f8a998:	4841           	swap d1
  f8a99a:	4241           	clr.w d1
  f8a99c:	8243           	or.w d3,d1
  f8a99e:	b287           	cmp.l d7,d1
  f8a9a0:	640c           	bcc.s 0xf8a9ae
  f8a9a2:	d285           	add.l d5,d1
  f8a9a4:	b285           	cmp.l d5,d1
  f8a9a6:	6506           	bcs.s 0xf8a9ae
  f8a9a8:	b287           	cmp.l d7,d1
  f8a9aa:	6402           	bcc.s 0xf8a9ae
  f8a9ac:	d285           	add.l d5,d1
  f8a9ae:	9287           	sub.l d7,d1
  f8a9b0:	7000           	moveq #0,d0
  f8a9b2:	e4a9           	lsr.l d2,d1
  f8a9b4:	4cdf 7cfc      	movem.l (sp)+,d2-d7/a2-a6
  f8a9b8:	4fef 0010      	lea 16(sp),sp
  f8a9bc:	4e75           	rts
  f8a9be:	2241           	movea.l d1,a1
  f8a9c0:	b082           	cmp.l d2,d0
  f8a9c2:	65f0           	bcs.s 0xf8a9b4
  f8a9c4:	0c82 0000 ffff 	cmpi.l #65535,d2
  f8a9ca:	6300 0118      	bls.w 0xf8aae4
  f8a9ce:	0c82 00ff ffff 	cmpi.l #16777215,d2
  f8a9d4:	6200 039a      	bhi.w 0xf8ad70
  f8a9d8:	7610           	moveq #16,d3
  f8a9da:	2802           	move.l d2,d4
  f8a9dc:	e6ac           	lsr.l d3,d4
  f8a9de:	45f9 00f8 ad90 	lea 0xf8ad90,a2
  f8a9e4:	7c00           	moveq #0,d6
  f8a9e6:	1c32 4800      	move.b (0,a2,d4.l),d6
  f8a9ea:	dc83           	add.l d3,d6
  f8a9ec:	3a7c 0020      	movea.w #32,a5
  f8a9f0:	9bc6           	suba.l d6,a5
  f8a9f2:	7620           	moveq #32,d3
  f8a9f4:	b686           	cmp.l d6,d3
  f8a9f6:	6600 011c      	bne.w 0xf8ab14
  f8a9fa:	b082           	cmp.l d2,d0
  f8a9fc:	6204           	bhi.s 0xf8aa02
  f8a9fe:	b285           	cmp.l d5,d1
  f8aa00:	6508           	bcs.s 0xf8aa0a
  f8aa02:	9285           	sub.l d5,d1
  f8aa04:	9182           	subx.l d2,d0
  f8aa06:	2241           	movea.l d1,a1
  f8aa08:	2040           	movea.l d0,a0
  f8aa0a:	2008           	move.l a0,d0
  f8aa0c:	2209           	move.l a1,d1
  f8aa0e:	4cdf 7cfc      	movem.l (sp)+,d2-d7/a2-a6
  f8aa12:	4fef 0010      	lea 16(sp),sp
  f8aa16:	4e75           	rts
  f8aa18:	4a85           	tst.l d5
  f8aa1a:	6700 0248      	beq.w 0xf8ac64
  f8aa1e:	0c85 0000 ffff 	cmpi.l #65535,d5
  f8aa24:	6200 0330      	bhi.w 0xf8ad56
  f8aa28:	0c85 0000 00ff 	cmpi.l #255,d5
  f8aa2e:	52c2           	shi d2
  f8aa30:	4882           	ext.w d2
  f8aa32:	48c2           	ext.l d2
  f8aa34:	4482           	neg.l d2
  f8aa36:	e78a           	lsl.l #3,d2
  f8aa38:	2805           	move.l d5,d4
  f8aa3a:	e4ac           	lsr.l d2,d4
  f8aa3c:	41f9 00f8 ad90 	lea 0xf8ad90,a0
  f8aa42:	7c00           	moveq #0,d6
  f8aa44:	1c30 4800      	move.b (0,a0,d4.l),d6
  f8aa48:	dc82           	add.l d2,d6
  f8aa4a:	7420           	moveq #32,d2
  f8aa4c:	9486           	sub.l d6,d2
  f8aa4e:	7820           	moveq #32,d4
  f8aa50:	b886           	cmp.l d6,d4
  f8aa52:	6600 022e      	bne.w 0xf8ac82
  f8aa56:	2800           	move.l d0,d4
  f8aa58:	9885           	sub.l d5,d4
  f8aa5a:	2c05           	move.l d5,d6
  f8aa5c:	4246           	clr.w d6
  f8aa5e:	4846           	swap d6
  f8aa60:	2e05           	move.l d5,d7
  f8aa62:	0287 0000 ffff 	andi.l #65535,d7
  f8aa68:	4df9 00f8 aec8 	lea 0xf8aec8,a6
  f8aa6e:	47f9 00f8 ae90 	lea 0xf8ae90,a3
  f8aa74:	45f9 00f8 aebc 	lea 0xf8aebc,a2
  f8aa7a:	2f06           	move.l d6,-(sp)
  f8aa7c:	2f04           	move.l d4,-(sp)
  f8aa7e:	4e96           	jsr (a6)
  f8aa80:	588f           	addq.l #4,sp
  f8aa82:	2e87           	move.l d7,(sp)
  f8aa84:	2f00           	move.l d0,-(sp)
  f8aa86:	4e93           	jsr (a3)
  f8aa88:	508f           	addq.l #8,sp
  f8aa8a:	2840           	movea.l d0,a4
  f8aa8c:	2f06           	move.l d6,-(sp)
  f8aa8e:	2f04           	move.l d4,-(sp)
  f8aa90:	4e92           	jsr (a2)
  f8aa92:	508f           	addq.l #8,sp
  f8aa94:	4840           	swap d0
  f8aa96:	4240           	clr.w d0
  f8aa98:	2203           	move.l d3,d1
  f8aa9a:	4241           	clr.w d1
  f8aa9c:	4841           	swap d1
  f8aa9e:	8280           	or.l d0,d1
  f8aaa0:	b28c           	cmp.l a4,d1
  f8aaa2:	640c           	bcc.s 0xf8aab0
  f8aaa4:	d285           	add.l d5,d1
  f8aaa6:	b285           	cmp.l d5,d1
  f8aaa8:	6506           	bcs.s 0xf8aab0
  f8aaaa:	b28c           	cmp.l a4,d1
  f8aaac:	6402           	bcc.s 0xf8aab0
  f8aaae:	d285           	add.l d5,d1
  f8aab0:	2801           	move.l d1,d4
  f8aab2:	988c           	sub.l a4,d4
  f8aab4:	2f06           	move.l d6,-(sp)
  f8aab6:	2f04           	move.l d4,-(sp)
  f8aab8:	4e96           	jsr (a6)
  f8aaba:	588f           	addq.l #4,sp
  f8aabc:	2e87           	move.l d7,(sp)
  f8aabe:	2f00           	move.l d0,-(sp)
  f8aac0:	4e93           	jsr (a3)
  f8aac2:	508f           	addq.l #8,sp
  f8aac4:	2e00           	move.l d0,d7
  f8aac6:	2f06           	move.l d6,-(sp)
  f8aac8:	2f04           	move.l d4,-(sp)
  f8aaca:	4e92           	jsr (a2)
  f8aacc:	6000 fec6      	bra.w 0xf8a994
  f8aad0:	0c85 0000 00ff 	cmpi.l #255,d5
  f8aad6:	52c2           	shi d2
  f8aad8:	4882           	ext.w d2
  f8aada:	48c2           	ext.l d2
  f8aadc:	4482           	neg.l d2
  f8aade:	e78a           	lsl.l #3,d2
  f8aae0:	6000 fe12      	bra.w 0xf8a8f4
  f8aae4:	0c82 0000 00ff 	cmpi.l #255,d2
  f8aaea:	52c3           	shi d3
  f8aaec:	4883           	ext.w d3
  f8aaee:	48c3           	ext.l d3
  f8aaf0:	4483           	neg.l d3
  f8aaf2:	e78b           	lsl.l #3,d3
  f8aaf4:	2802           	move.l d2,d4
  f8aaf6:	e6ac           	lsr.l d3,d4
  f8aaf8:	45f9 00f8 ad90 	lea 0xf8ad90,a2
  f8aafe:	7c00           	moveq #0,d6
  f8ab00:	1c32 4800      	move.b (0,a2,d4.l),d6
  f8ab04:	dc83           	add.l d3,d6
  f8ab06:	3a7c 0020      	movea.w #32,a5
  f8ab0a:	9bc6           	suba.l d6,a5
  f8ab0c:	7620           	moveq #32,d3
  f8ab0e:	b686           	cmp.l d6,d3
  f8ab10:	6700 fee8      	beq.w 0xf8a9fa
  f8ab14:	280d           	move.l a5,d4
  f8ab16:	e9aa           	lsl.l d4,d2
  f8ab18:	2605           	move.l d5,d3
  f8ab1a:	ecab           	lsr.l d6,d3
  f8ab1c:	8682           	or.l d2,d3
  f8ab1e:	2843           	movea.l d3,a4
  f8ab20:	e9ad           	lsl.l d4,d5
  f8ab22:	2e00           	move.l d0,d7
  f8ab24:	ecaf           	lsr.l d6,d7
  f8ab26:	e9a8           	lsl.l d4,d0
  f8ab28:	2601           	move.l d1,d3
  f8ab2a:	ecab           	lsr.l d6,d3
  f8ab2c:	8680           	or.l d0,d3
  f8ab2e:	e9a9           	lsl.l d4,d1
  f8ab30:	2f41 0038      	move.l d1,56(sp)
  f8ab34:	280c           	move.l a4,d4
  f8ab36:	4244           	clr.w d4
  f8ab38:	4844           	swap d4
  f8ab3a:	240c           	move.l a4,d2
  f8ab3c:	0282 0000 ffff 	andi.l #65535,d2
  f8ab42:	2f42 0034      	move.l d2,52(sp)
  f8ab46:	4df9 00f8 aec8 	lea 0xf8aec8,a6
  f8ab4c:	2f04           	move.l d4,-(sp)
  f8ab4e:	2f07           	move.l d7,-(sp)
  f8ab50:	4e96           	jsr (a6)
  f8ab52:	508f           	addq.l #8,sp
  f8ab54:	2400           	move.l d0,d2
  f8ab56:	47f9 00f8 ae90 	lea 0xf8ae90,a3
  f8ab5c:	2f00           	move.l d0,-(sp)
  f8ab5e:	2f2f 0038      	move.l 56(sp),-(sp)
  f8ab62:	4e93           	jsr (a3)
  f8ab64:	508f           	addq.l #8,sp
  f8ab66:	45f9 00f8 aebc 	lea 0xf8aebc,a2
  f8ab6c:	2f04           	move.l d4,-(sp)
  f8ab6e:	2f07           	move.l d7,-(sp)
  f8ab70:	2f40 0038      	move.l d0,56(sp)
  f8ab74:	4e92           	jsr (a2)
  f8ab76:	508f           	addq.l #8,sp
  f8ab78:	2200           	move.l d0,d1
  f8ab7a:	4841           	swap d1
  f8ab7c:	4241           	clr.w d1
  f8ab7e:	2003           	move.l d3,d0
  f8ab80:	4240           	clr.w d0
  f8ab82:	4840           	swap d0
  f8ab84:	8081           	or.l d1,d0
  f8ab86:	206f 0030      	movea.l 48(sp),a0
  f8ab8a:	b088           	cmp.l a0,d0
  f8ab8c:	6416           	bcc.s 0xf8aba4
  f8ab8e:	2242           	movea.l d2,a1
  f8ab90:	5389           	subq.l #1,a1
  f8ab92:	d08c           	add.l a4,d0
  f8ab94:	b08c           	cmp.l a4,d0
  f8ab96:	6500 01e4      	bcs.w 0xf8ad7c
  f8ab9a:	b088           	cmp.l a0,d0
  f8ab9c:	6400 01de      	bcc.w 0xf8ad7c
  f8aba0:	5582           	subq.l #2,d2
  f8aba2:	d08c           	add.l a4,d0
  f8aba4:	2240           	movea.l d0,a1
  f8aba6:	93c8           	suba.l a0,a1
  f8aba8:	2f04           	move.l d4,-(sp)
  f8abaa:	2f09           	move.l a1,-(sp)
  f8abac:	2f49 0038      	move.l a1,56(sp)
  f8abb0:	4e96           	jsr (a6)
  f8abb2:	508f           	addq.l #8,sp
  f8abb4:	2f00           	move.l d0,-(sp)
  f8abb6:	2f2f 0038      	move.l 56(sp),-(sp)
  f8abba:	2f40 0034      	move.l d0,52(sp)
  f8abbe:	4e93           	jsr (a3)
  f8abc0:	508f           	addq.l #8,sp
  f8abc2:	2640           	movea.l d0,a3
  f8abc4:	2f04           	move.l d4,-(sp)
  f8abc6:	226f 0034      	movea.l 52(sp),a1
  f8abca:	2f09           	move.l a1,-(sp)
  f8abcc:	4e92           	jsr (a2)
  f8abce:	508f           	addq.l #8,sp
  f8abd0:	4840           	swap d0
  f8abd2:	4240           	clr.w d0
  f8abd4:	8043           	or.w d3,d0
  f8abd6:	222f 002c      	move.l 44(sp),d1
  f8abda:	b08b           	cmp.l a3,d0
  f8abdc:	6416           	bcc.s 0xf8abf4
  f8abde:	2041           	movea.l d1,a0
  f8abe0:	5388           	subq.l #1,a0
  f8abe2:	d08c           	add.l a4,d0
  f8abe4:	b08c           	cmp.l a4,d0
  f8abe6:	6500 018e      	bcs.w 0xf8ad76
  f8abea:	b08b           	cmp.l a3,d0
  f8abec:	6400 0188      	bcc.w 0xf8ad76
  f8abf0:	5581           	subq.l #2,d1
  f8abf2:	d08c           	add.l a4,d0
  f8abf4:	2040           	movea.l d0,a0
  f8abf6:	91cb           	suba.l a3,a0
  f8abf8:	4842           	swap d2
  f8abfa:	4242           	clr.w d2
  f8abfc:	8481           	or.l d1,d2
  f8abfe:	2242           	movea.l d2,a1
  f8ac00:	2009           	move.l a1,d0
  f8ac02:	2205           	move.l d5,d1
  f8ac04:	2400           	move.l d0,d2
  f8ac06:	4840           	swap d0
  f8ac08:	2601           	move.l d1,d3
  f8ac0a:	4841           	swap d1
  f8ac0c:	3802           	move.w d2,d4
  f8ac0e:	c8c3           	mulu.w d3,d4
  f8ac10:	c4c1           	mulu.w d1,d2
  f8ac12:	c6c0           	mulu.w d0,d3
  f8ac14:	c2c0           	mulu.w d0,d1
  f8ac16:	2004           	move.l d4,d0
  f8ac18:	b140           	eor.w d0,d0
  f8ac1a:	4840           	swap d0
  f8ac1c:	d480           	add.l d0,d2
  f8ac1e:	d483           	add.l d3,d2
  f8ac20:	6406           	bcc.s 0xf8ac28
  f8ac22:	0681 0001 0000 	addi.l #65536,d1
  f8ac28:	4842           	swap d2
  f8ac2a:	7000           	moveq #0,d0
  f8ac2c:	3002           	move.w d2,d0
  f8ac2e:	3404           	move.w d4,d2
  f8ac30:	2442           	movea.l d2,a2
  f8ac32:	d081           	add.l d1,d0
  f8ac34:	2240           	movea.l d0,a1
  f8ac36:	2209           	move.l a1,d1
  f8ac38:	240a           	move.l a2,d2
  f8ac3a:	b3c8           	cmpa.l a0,a1
  f8ac3c:	6200 00f2      	bhi.w 0xf8ad30
  f8ac40:	6700 00e6      	beq.w 0xf8ad28
  f8ac44:	2008           	move.l a0,d0
  f8ac46:	2e2f 0038      	move.l 56(sp),d7
  f8ac4a:	9e82           	sub.l d2,d7
  f8ac4c:	9181           	subx.l d1,d0
  f8ac4e:	2200           	move.l d0,d1
  f8ac50:	eda9           	lsl.l d6,d1
  f8ac52:	280d           	move.l a5,d4
  f8ac54:	e8af           	lsr.l d4,d7
  f8ac56:	e8a8           	lsr.l d4,d0
  f8ac58:	8287           	or.l d7,d1
  f8ac5a:	4cdf 7cfc      	movem.l (sp)+,d2-d7/a2-a6
  f8ac5e:	4fef 0010      	lea 16(sp),sp
  f8ac62:	4e75           	rts
  f8ac64:	7800           	moveq #0,d4
  f8ac66:	7400           	moveq #0,d2
  f8ac68:	41f9 00f8 ad90 	lea 0xf8ad90,a0
  f8ac6e:	7c00           	moveq #0,d6
  f8ac70:	1c30 4800      	move.b (0,a0,d4.l),d6
  f8ac74:	dc82           	add.l d2,d6
  f8ac76:	7420           	moveq #32,d2
  f8ac78:	9486           	sub.l d6,d2
  f8ac7a:	7820           	moveq #32,d4
  f8ac7c:	b886           	cmp.l d6,d4
  f8ac7e:	6700 fdd6      	beq.w 0xf8aa56
  f8ac82:	e5ad           	lsl.l d2,d5
  f8ac84:	2e00           	move.l d0,d7
  f8ac86:	ecaf           	lsr.l d6,d7
  f8ac88:	2a47           	movea.l d7,a5
  f8ac8a:	e5a8           	lsl.l d2,d0
  f8ac8c:	2801           	move.l d1,d4
  f8ac8e:	ecac           	lsr.l d6,d4
  f8ac90:	8880           	or.l d0,d4
  f8ac92:	2601           	move.l d1,d3
  f8ac94:	e5ab           	lsl.l d2,d3
  f8ac96:	2c05           	move.l d5,d6
  f8ac98:	4246           	clr.w d6
  f8ac9a:	4846           	swap d6
  f8ac9c:	2e05           	move.l d5,d7
  f8ac9e:	0287 0000 ffff 	andi.l #65535,d7
  f8aca4:	4df9 00f8 aec8 	lea 0xf8aec8,a6
  f8acaa:	2f06           	move.l d6,-(sp)
  f8acac:	2f0d           	move.l a5,-(sp)
  f8acae:	4e96           	jsr (a6)
  f8acb0:	508f           	addq.l #8,sp
  f8acb2:	47f9 00f8 ae90 	lea 0xf8ae90,a3
  f8acb8:	2f07           	move.l d7,-(sp)
  f8acba:	2f00           	move.l d0,-(sp)
  f8acbc:	4e93           	jsr (a3)
  f8acbe:	508f           	addq.l #8,sp
  f8acc0:	2840           	movea.l d0,a4
  f8acc2:	45f9 00f8 aebc 	lea 0xf8aebc,a2
  f8acc8:	2f06           	move.l d6,-(sp)
  f8acca:	2f0d           	move.l a5,-(sp)
  f8accc:	4e92           	jsr (a2)
  f8acce:	508f           	addq.l #8,sp
  f8acd0:	4840           	swap d0
  f8acd2:	4240           	clr.w d0
  f8acd4:	2204           	move.l d4,d1
  f8acd6:	4241           	clr.w d1
  f8acd8:	4841           	swap d1
  f8acda:	8280           	or.l d0,d1
  f8acdc:	b28c           	cmp.l a4,d1
  f8acde:	640c           	bcc.s 0xf8acec
  f8ace0:	d285           	add.l d5,d1
  f8ace2:	b285           	cmp.l d5,d1
  f8ace4:	6506           	bcs.s 0xf8acec
  f8ace6:	b28c           	cmp.l a4,d1
  f8ace8:	6402           	bcc.s 0xf8acec
  f8acea:	d285           	add.l d5,d1
  f8acec:	2a41           	movea.l d1,a5
  f8acee:	9bcc           	suba.l a4,a5
  f8acf0:	2f06           	move.l d6,-(sp)
  f8acf2:	2f0d           	move.l a5,-(sp)
  f8acf4:	4e96           	jsr (a6)
  f8acf6:	588f           	addq.l #4,sp
  f8acf8:	2e87           	move.l d7,(sp)
  f8acfa:	2f00           	move.l d0,-(sp)
  f8acfc:	4e93           	jsr (a3)
  f8acfe:	508f           	addq.l #8,sp
  f8ad00:	2840           	movea.l d0,a4
  f8ad02:	2f06           	move.l d6,-(sp)
  f8ad04:	2f0d           	move.l a5,-(sp)
  f8ad06:	4e92           	jsr (a2)
  f8ad08:	508f           	addq.l #8,sp
  f8ad0a:	4840           	swap d0
  f8ad0c:	4240           	clr.w d0
  f8ad0e:	8044           	or.w d4,d0
  f8ad10:	b08c           	cmp.l a4,d0
  f8ad12:	640c           	bcc.s 0xf8ad20
  f8ad14:	d085           	add.l d5,d0
  f8ad16:	b085           	cmp.l d5,d0
  f8ad18:	6506           	bcs.s 0xf8ad20
  f8ad1a:	b08c           	cmp.l a4,d0
  f8ad1c:	6402           	bcc.s 0xf8ad20
  f8ad1e:	d085           	add.l d5,d0
  f8ad20:	2800           	move.l d0,d4
  f8ad22:	988c           	sub.l a4,d4
  f8ad24:	6000 fd54      	bra.w 0xf8aa7a
  f8ad28:	b5ef 0038      	cmpa.l 56(sp),a2
  f8ad2c:	6300 ff16      	bls.w 0xf8ac44
  f8ad30:	2209           	move.l a1,d1
  f8ad32:	200a           	move.l a2,d0
  f8ad34:	260c           	move.l a4,d3
  f8ad36:	9085           	sub.l d5,d0
  f8ad38:	9383           	subx.l d3,d1
  f8ad3a:	2400           	move.l d0,d2
  f8ad3c:	2008           	move.l a0,d0
  f8ad3e:	2e2f 0038      	move.l 56(sp),d7
  f8ad42:	9e82           	sub.l d2,d7
  f8ad44:	9181           	subx.l d1,d0
  f8ad46:	2200           	move.l d0,d1
  f8ad48:	eda9           	lsl.l d6,d1
  f8ad4a:	280d           	move.l a5,d4
  f8ad4c:	e8af           	lsr.l d4,d7
  f8ad4e:	e8a8           	lsr.l d4,d0
  f8ad50:	8287           	or.l d7,d1
  f8ad52:	6000 ff06      	bra.w 0xf8ac5a
  f8ad56:	2805           	move.l d5,d4
  f8ad58:	0c85 00ff ffff 	cmpi.l #16777215,d5
  f8ad5e:	6222           	bhi.s 0xf8ad82
  f8ad60:	4244           	clr.w d4
  f8ad62:	4844           	swap d4
  f8ad64:	7410           	moveq #16,d2
  f8ad66:	6000 fcd4      	bra.w 0xf8aa3c
  f8ad6a:	7418           	moveq #24,d2
  f8ad6c:	6000 fb86      	bra.w 0xf8a8f4
  f8ad70:	7618           	moveq #24,d3
  f8ad72:	6000 fc66      	bra.w 0xf8a9da
  f8ad76:	2208           	move.l a0,d1
  f8ad78:	6000 fe7a      	bra.w 0xf8abf4
  f8ad7c:	2409           	move.l a1,d2
  f8ad7e:	6000 fe24      	bra.w 0xf8aba4
  f8ad82:	4244           	clr.w d4
  f8ad84:	4844           	swap d4
  f8ad86:	e04c           	lsr.w #8,d4
  f8ad88:	7418           	moveq #24,d2
  f8ad8a:	6000 fcb0      	bra.w 0xf8aa3c
  f8ad8e:	0000 0001      	ori.b #1,d0
  f8ad92:	0202 0303      	andi.b #3,d2
  f8ad96:	0303           	btst d1,d3
  f8ad98:	0404 0404      	subi.b #4,d4
  f8ad9c:	0404 0404      	subi.b #4,d4
  f8ada0:	0505           	btst d2,d5
  f8ada2:	0505           	btst d2,d5
  f8ada4:	0505           	btst d2,d5
  f8ada6:	0505           	btst d2,d5
  f8ada8:	0505           	btst d2,d5
  f8adaa:	0505           	btst d2,d5
  f8adac:	0505           	btst d2,d5
  f8adae:	0505           	btst d2,d5
  f8adb0:	0606 0606      	addi.b #6,d6
  f8adb4:	0606 0606      	addi.b #6,d6
  f8adb8:	0606 0606      	addi.b #6,d6
  f8adbc:	0606 0606      	addi.b #6,d6
  f8adc0:	0606 0606      	addi.b #6,d6
  f8adc4:	0606 0606      	addi.b #6,d6
  f8adc8:	0606 0606      	addi.b #6,d6
  f8adcc:	0606 0606      	addi.b #6,d6
  f8add0:	0707           	btst d3,d7
  f8add2:	0707           	btst d3,d7
  f8add4:	0707           	btst d3,d7
  f8add6:	0707           	btst d3,d7
  f8add8:	0707           	btst d3,d7
  f8adda:	0707           	btst d3,d7
  f8addc:	0707           	btst d3,d7
  f8adde:	0707           	btst d3,d7
  f8ade0:	0707           	btst d3,d7
  f8ade2:	0707           	btst d3,d7
  f8ade4:	0707           	btst d3,d7
  f8ade6:	0707           	btst d3,d7
  f8ade8:	0707           	btst d3,d7
  f8adea:	0707           	btst d3,d7
  f8adec:	0707           	btst d3,d7
  f8adee:	0707           	btst d3,d7
  f8adf0:	0707           	btst d3,d7
  f8adf2:	0707           	btst d3,d7
  f8adf4:	0707           	btst d3,d7
  f8adf6:	0707           	btst d3,d7
  f8adf8:	0707           	btst d3,d7
  f8adfa:	0707           	btst d3,d7
  f8adfc:	0707           	btst d3,d7
  f8adfe:	0707           	btst d3,d7
  f8ae00:	0707           	btst d3,d7
  f8ae02:	0707           	btst d3,d7
  f8ae04:	0707           	btst d3,d7
  f8ae06:	0707           	btst d3,d7
  f8ae08:	0707           	btst d3,d7
  f8ae0a:	0707           	btst d3,d7
  f8ae0c:	0707           	btst d3,d7
  f8ae0e:	0707           	btst d3,d7
  f8ae10:	0808           	.short 0x0808
  f8ae12:	0808           	.short 0x0808
  f8ae14:	0808           	.short 0x0808
  f8ae16:	0808           	.short 0x0808
  f8ae18:	0808           	.short 0x0808
  f8ae1a:	0808           	.short 0x0808
  f8ae1c:	0808           	.short 0x0808
  f8ae1e:	0808           	.short 0x0808
  f8ae20:	0808           	.short 0x0808
  f8ae22:	0808           	.short 0x0808
  f8ae24:	0808           	.short 0x0808
  f8ae26:	0808           	.short 0x0808
  f8ae28:	0808           	.short 0x0808
  f8ae2a:	0808           	.short 0x0808
  f8ae2c:	0808           	.short 0x0808
  f8ae2e:	0808           	.short 0x0808
  f8ae30:	0808           	.short 0x0808
  f8ae32:	0808           	.short 0x0808
  f8ae34:	0808           	.short 0x0808
  f8ae36:	0808           	.short 0x0808
  f8ae38:	0808           	.short 0x0808
  f8ae3a:	0808           	.short 0x0808
  f8ae3c:	0808           	.short 0x0808
  f8ae3e:	0808           	.short 0x0808
  f8ae40:	0808           	.short 0x0808
  f8ae42:	0808           	.short 0x0808
  f8ae44:	0808           	.short 0x0808
  f8ae46:	0808           	.short 0x0808
  f8ae48:	0808           	.short 0x0808
  f8ae4a:	0808           	.short 0x0808
  f8ae4c:	0808           	.short 0x0808
  f8ae4e:	0808           	.short 0x0808
  f8ae50:	0808           	.short 0x0808
  f8ae52:	0808           	.short 0x0808
  f8ae54:	0808           	.short 0x0808
  f8ae56:	0808           	.short 0x0808
  f8ae58:	0808           	.short 0x0808
  f8ae5a:	0808           	.short 0x0808
  f8ae5c:	0808           	.short 0x0808
  f8ae5e:	0808           	.short 0x0808
  f8ae60:	0808           	.short 0x0808
  f8ae62:	0808           	.short 0x0808
  f8ae64:	0808           	.short 0x0808
  f8ae66:	0808           	.short 0x0808
  f8ae68:	0808           	.short 0x0808
  f8ae6a:	0808           	.short 0x0808
  f8ae6c:	0808           	.short 0x0808
  f8ae6e:	0808           	.short 0x0808
  f8ae70:	0808           	.short 0x0808
  f8ae72:	0808           	.short 0x0808
  f8ae74:	0808           	.short 0x0808
  f8ae76:	0808           	.short 0x0808
  f8ae78:	0808           	.short 0x0808
  f8ae7a:	0808           	.short 0x0808
  f8ae7c:	0808           	.short 0x0808
  f8ae7e:	0808           	.short 0x0808
  f8ae80:	0808           	.short 0x0808
  f8ae82:	0808           	.short 0x0808
  f8ae84:	0808           	.short 0x0808
  f8ae86:	0808           	.short 0x0808
  f8ae88:	0808           	.short 0x0808
  f8ae8a:	0808           	.short 0x0808
  f8ae8c:	0808           	.short 0x0808
  f8ae8e:	0808           	.short 0x0808
  f8ae90:	4cef 0003 0004 	movem.l 4(sp),d0-d1
  f8ae96:	2f03           	move.l d3,-(sp)
  f8ae98:	2f02           	move.l d2,-(sp)
  f8ae9a:	3401           	move.w d1,d2
  f8ae9c:	c4c0           	mulu.w d0,d2
  f8ae9e:	2601           	move.l d1,d3
  f8aea0:	4843           	swap d3
  f8aea2:	c6c0           	mulu.w d0,d3
  f8aea4:	4843           	swap d3
  f8aea6:	4243           	clr.w d3
  f8aea8:	d483           	add.l d3,d2
  f8aeaa:	4840           	swap d0
  f8aeac:	c0c1           	mulu.w d1,d0
  f8aeae:	4840           	swap d0
  f8aeb0:	4240           	clr.w d0
  f8aeb2:	d082           	add.l d2,d0
  f8aeb4:	241f           	move.l (sp)+,d2
  f8aeb6:	261f           	move.l (sp)+,d3
  f8aeb8:	4e75           	rts
  f8aeba:	0000 4cef      	ori.b #-17,d0
  f8aebe:	0003 0004      	ori.b #4,d3
  f8aec2:	610a           	bsr.s 0xf8aece
  f8aec4:	2001           	move.l d1,d0
  f8aec6:	4e75           	rts
  f8aec8:	4cef 0003 0004 	movem.l 4(sp),d0-d1
  f8aece:	2f03           	move.l d3,-(sp)
  f8aed0:	2f02           	move.l d2,-(sp)
  f8aed2:	2601           	move.l d1,d3
  f8aed4:	4841           	swap d1
  f8aed6:	4a41           	tst.w d1
  f8aed8:	6618           	bne.s 0xf8aef2
  f8aeda:	3400           	move.w d0,d2
  f8aedc:	4240           	clr.w d0
  f8aede:	4840           	swap d0
  f8aee0:	80c3           	divu.w d3,d0
  f8aee2:	2200           	move.l d0,d1
  f8aee4:	4840           	swap d0
  f8aee6:	3202           	move.w d2,d1
  f8aee8:	82c3           	divu.w d3,d1
  f8aeea:	3001           	move.w d1,d0
  f8aeec:	4241           	clr.w d1
  f8aeee:	4841           	swap d1
  f8aef0:	601c           	bra.s 0xf8af0e
  f8aef2:	2200           	move.l d0,d1
  f8aef4:	4840           	swap d0
  f8aef6:	4240           	clr.w d0
  f8aef8:	4241           	clr.w d1
  f8aefa:	4841           	swap d1
  f8aefc:	740f           	moveq #15,d2
  f8aefe:	d080           	add.l d0,d0
  f8af00:	d381           	addx.l d1,d1
  f8af02:	b681           	cmp.l d1,d3
  f8af04:	6204           	bhi.s 0xf8af0a
  f8af06:	9283           	sub.l d3,d1
  f8af08:	5240           	addq.w #1,d0
  f8af0a:	51ca fff2      	dbf d2,0xf8aefe
  f8af0e:	241f           	move.l (sp)+,d2
  f8af10:	261f           	move.l (sp)+,d3
  f8af12:	4e75           	rts
  f8af14:	48e7 2030      	movem.l d2/a2-a3,-(sp)
  f8af18:	206f 0010      	movea.l 16(sp),a0
  f8af1c:	226f 0014      	movea.l 20(sp),a1
  f8af20:	202f 0018      	move.l 24(sp),d0
  f8af24:	7203           	moveq #3,d1
  f8af26:	b280           	cmp.l d0,d1
  f8af28:	6424           	bcc.s 0xf8af4e
  f8af2a:	2648           	movea.l a0,a3
  f8af2c:	2449           	movea.l a1,a2
  f8af2e:	2209           	move.l a1,d1
  f8af30:	2408           	move.l a0,d2
  f8af32:	8282           	or.l d2,d1
  f8af34:	7403           	moveq #3,d2
  f8af36:	c282           	and.l d2,d1
  f8af38:	6634           	bne.s 0xf8af6e
  f8af3a:	224a           	movea.l a2,a1
  f8af3c:	204b           	movea.l a3,a0
  f8af3e:	b78a           	cmpm.l (a2)+,(a3)+
  f8af40:	662c           	bne.s 0xf8af6e
  f8af42:	5980           	subq.l #4,d0
  f8af44:	7203           	moveq #3,d1
  f8af46:	b280           	cmp.l d0,d1
  f8af48:	65f0           	bcs.s 0xf8af3a
  f8af4a:	204b           	movea.l a3,a0
  f8af4c:	224a           	movea.l a2,a1
  f8af4e:	2440           	movea.l d0,a2
  f8af50:	538a           	subq.l #1,a2
  f8af52:	4a80           	tst.l d0
  f8af54:	6712           	beq.s 0xf8af68
  f8af56:	45f0 a801      	lea (1,a0,a2.l),a2
  f8af5a:	1018           	move.b (a0)+,d0
  f8af5c:	1219           	move.b (a1)+,d1
  f8af5e:	b200           	cmp.b d0,d1
  f8af60:	6616           	bne.s 0xf8af78
  f8af62:	b5c8           	cmpa.l a0,a2
  f8af64:	66f4           	bne.s 0xf8af5a
  f8af66:	7000           	moveq #0,d0
  f8af68:	4cdf 0c04      	movem.l (sp)+,d2/a2-a3
  f8af6c:	4e75           	rts
  f8af6e:	2440           	movea.l d0,a2
  f8af70:	538a           	subq.l #1,a2
  f8af72:	45f0 a801      	lea (1,a0,a2.l),a2
  f8af76:	60e2           	bra.s 0xf8af5a
  f8af78:	0280 0000 00ff 	andi.l #255,d0
  f8af7e:	0281 0000 00ff 	andi.l #255,d1
  f8af84:	9081           	sub.l d1,d0
  f8af86:	4cdf 0c04      	movem.l (sp)+,d2/a2-a3
  f8af8a:	4e75           	rts
  f8af8c:	206f 0004      	movea.l 4(sp),a0
  f8af90:	226f 0008      	movea.l 8(sp),a1
  f8af94:	222f 000c      	move.l 12(sp),d1
  f8af98:	0c81 0000 0008 	cmpi.l #8,d1
  f8af9e:	6500 0050      	bcs.w 0xf8aff0
  f8afa2:	2008           	move.l a0,d0
  f8afa4:	0280 0000 0003 	andi.l #3,d0
  f8afaa:	6600 0044      	bne.w 0xf8aff0
  f8afae:	2009           	move.l a1,d0
  f8afb0:	0280 0000 0003 	andi.l #3,d0
  f8afb6:	6600 0038      	bne.w 0xf8aff0
  f8afba:	2001           	move.l d1,d0
  f8afbc:	0281 0000 0003 	andi.l #3,d1
  f8afc2:	e688           	lsr.l #3,d0
  f8afc4:	6400 0004      	bcc.w 0xf8afca
  f8afc8:	20d9           	move.l (a1)+,(a0)+
  f8afca:	e288           	lsr.l #1,d0
  f8afcc:	6400 000e      	bcc.w 0xf8afdc
  f8afd0:	6000 0006      	bra.w 0xf8afd8
  f8afd4:	20d9           	move.l (a1)+,(a0)+
  f8afd6:	20d9           	move.l (a1)+,(a0)+
  f8afd8:	20d9           	move.l (a1)+,(a0)+
  f8afda:	20d9           	move.l (a1)+,(a0)+
  f8afdc:	51c8 fff6      	dbf d0,0xf8afd4
  f8afe0:	0480 0001 0000 	subi.l #65536,d0
  f8afe6:	6a00 ffec      	bpl.w 0xf8afd4
  f8afea:	6000 0004      	bra.w 0xf8aff0
  f8afee:	10d9           	move.b (a1)+,(a0)+
  f8aff0:	51c9 fffc      	dbf d1,0xf8afee
  f8aff4:	202f 0004      	move.l 4(sp),d0
  f8aff8:	4e75           	rts
  f8affa:	0000 48e7      	ori.b #-25,d0
  f8affe:	3038 202f      	move.w 0x202f,d0
  f8b002:	0018 206f      	ori.b #111,(a0)+
  f8b006:	001c 222f      	ori.b #47,(a4)+
  f8b00a:	0020 b1c0      	ori.b #-64,-(a0)
  f8b00e:	6420           	bcc.s 0xf8b030
  f8b010:	43f0 1800      	lea (0,a0,d1.l),a1
  f8b014:	b089           	cmp.l a1,d0
  f8b016:	6418           	bcc.s 0xf8b030
  f8b018:	4a81           	tst.l d1
  f8b01a:	670e           	beq.s 0xf8b02a
  f8b01c:	2640           	movea.l d0,a3
  f8b01e:	45f3 18ff      	lea (-1,a3,d1.l),a2
  f8b022:	14a1           	move.b -(a1),(a2)
  f8b024:	538a           	subq.l #1,a2
  f8b026:	b3c8           	cmpa.l a0,a1
  f8b028:	66f8           	bne.s 0xf8b022
  f8b02a:	4cdf 1c0c      	movem.l (sp)+,d2-d3/a2-a4
  f8b02e:	4e75           	rts
  f8b030:	740f           	moveq #15,d2
  f8b032:	b481           	cmp.l d1,d2
  f8b034:	6400 0096      	bcc.w 0xf8b0cc
  f8b038:	2408           	move.l a0,d2
  f8b03a:	8480           	or.l d0,d2
  f8b03c:	7603           	moveq #3,d3
  f8b03e:	c483           	and.l d3,d2
  f8b040:	6600 0098      	bne.w 0xf8b0da
  f8b044:	387c fff0      	movea.w #-16,a4
  f8b048:	d9c1           	adda.l d1,a4
  f8b04a:	240c           	move.l a4,d2
  f8b04c:	76f0           	moveq #-16,d3
  f8b04e:	c483           	and.l d3,d2
  f8b050:	2842           	movea.l d2,a4
  f8b052:	49ec 0010      	lea 16(a4),a4
  f8b056:	43f4 0800      	lea (0,a4,d0.l),a1
  f8b05a:	2648           	movea.l a0,a3
  f8b05c:	2440           	movea.l d0,a2
  f8b05e:	2493           	move.l (a3),(a2)
  f8b060:	256b 0004 0004 	move.l 4(a3),4(a2)
  f8b066:	256b 0008 0008 	move.l 8(a3),8(a2)
  f8b06c:	47eb 0010      	lea 16(a3),a3
  f8b070:	45ea 0010      	lea 16(a2),a2
  f8b074:	256b fffc fffc 	move.l -4(a3),-4(a2)
  f8b07a:	b3ca           	cmpa.l a2,a1
  f8b07c:	66e0           	bne.s 0xf8b05e
  f8b07e:	d1cc           	adda.l a4,a0
  f8b080:	740f           	moveq #15,d2
  f8b082:	c481           	and.l d1,d2
  f8b084:	760c           	moveq #12,d3
  f8b086:	c681           	and.l d1,d3
  f8b088:	675c           	beq.s 0xf8b0e6
  f8b08a:	2649           	movea.l a1,a3
  f8b08c:	2448           	movea.l a0,a2
  f8b08e:	26da           	move.l (a2)+,(a3)+
  f8b090:	2842           	movea.l d2,a4
  f8b092:	99ca           	suba.l a2,a4
  f8b094:	49f0 c800      	lea (0,a0,a4.l),a4
  f8b098:	7603           	moveq #3,d3
  f8b09a:	b68c           	cmp.l a4,d3
  f8b09c:	65f0           	bcs.s 0xf8b08e
  f8b09e:	c283           	and.l d3,d1
  f8b0a0:	5982           	subq.l #4,d2
  f8b0a2:	76fc           	moveq #-4,d3
  f8b0a4:	c483           	and.l d3,d2
  f8b0a6:	5882           	addq.l #4,d2
  f8b0a8:	d3c2           	adda.l d2,a1
  f8b0aa:	d1c2           	adda.l d2,a0
  f8b0ac:	2401           	move.l d1,d2
  f8b0ae:	5382           	subq.l #1,d2
  f8b0b0:	4a81           	tst.l d1
  f8b0b2:	6700 ff76      	beq.w 0xf8b02a
  f8b0b6:	45f0 2801      	lea (1,a0,d2.l),a2
  f8b0ba:	12d8           	move.b (a0)+,(a1)+
  f8b0bc:	b5c8           	cmpa.l a0,a2
  f8b0be:	6700 ff6a      	beq.w 0xf8b02a
  f8b0c2:	12d8           	move.b (a0)+,(a1)+
  f8b0c4:	b5c8           	cmpa.l a0,a2
  f8b0c6:	66f2           	bne.s 0xf8b0ba
  f8b0c8:	6000 ff60      	bra.w 0xf8b02a
  f8b0cc:	2240           	movea.l d0,a1
  f8b0ce:	2401           	move.l d1,d2
  f8b0d0:	5382           	subq.l #1,d2
  f8b0d2:	4a81           	tst.l d1
  f8b0d4:	66e0           	bne.s 0xf8b0b6
  f8b0d6:	6000 ff52      	bra.w 0xf8b02a
  f8b0da:	2401           	move.l d1,d2
  f8b0dc:	5382           	subq.l #1,d2
  f8b0de:	2240           	movea.l d0,a1
  f8b0e0:	45f0 2801      	lea (1,a0,d2.l),a2
  f8b0e4:	60d4           	bra.s 0xf8b0ba
  f8b0e6:	2202           	move.l d2,d1
  f8b0e8:	2401           	move.l d1,d2
  f8b0ea:	5382           	subq.l #1,d2
  f8b0ec:	4a81           	tst.l d1
  f8b0ee:	66c6           	bne.s 0xf8b0b6
  f8b0f0:	6000 ff38      	bra.w 0xf8b02a
  f8b0f4:	206f 0004      	movea.l 4(sp),a0
  f8b0f8:	202f 0008      	move.l 8(sp),d0
  f8b0fc:	222f 000c      	move.l 12(sp),d1
  f8b100:	0c81 0000 0010 	cmpi.l #16,d1
  f8b106:	6500 0054      	bcs.w 0xf8b15c
  f8b10a:	2f02           	move.l d2,-(sp)
  f8b10c:	1400           	move.b d0,d2
  f8b10e:	e188           	lsl.l #8,d0
  f8b110:	1002           	move.b d2,d0
  f8b112:	3400           	move.w d0,d2
  f8b114:	4840           	swap d0
  f8b116:	3002           	move.w d2,d0
  f8b118:	2408           	move.l a0,d2
  f8b11a:	4482           	neg.l d2
  f8b11c:	0282 0000 0003 	andi.l #3,d2
  f8b122:	6700 0014      	beq.w 0xf8b138
  f8b126:	9282           	sub.l d2,d1
  f8b128:	e28a           	lsr.l #1,d2
  f8b12a:	6400 0004      	bcc.w 0xf8b130
  f8b12e:	10c0           	move.b d0,(a0)+
  f8b130:	e28a           	lsr.l #1,d2
  f8b132:	6400 0004      	bcc.w 0xf8b138
  f8b136:	30c0           	move.w d0,(a0)+
  f8b138:	2401           	move.l d1,d2
  f8b13a:	e48a           	lsr.l #2,d2
  f8b13c:	5382           	subq.l #1,d2
  f8b13e:	20c0           	move.l d0,(a0)+
  f8b140:	51ca fffc      	dbf d2,0xf8b13e
  f8b144:	0482 0001 0000 	subi.l #65536,d2
  f8b14a:	6a00 fff2      	bpl.w 0xf8b13e
  f8b14e:	0281 0000 0003 	andi.l #3,d1
  f8b154:	241f           	move.l (sp)+,d2
  f8b156:	6000 0004      	bra.w 0xf8b15c
  f8b15a:	10c0           	move.b d0,(a0)+
  f8b15c:	51c9 fffc      	dbf d1,0xf8b15a
  f8b160:	202f 0004      	move.l 4(sp),d0
  f8b164:	4e75           	rts
  f8b166:	0000 2f0a      	ori.b #10,d0
  f8b16a:	206f 0008      	movea.l 8(sp),a0
  f8b16e:	226f 000c      	movea.l 12(sp),a1
  f8b172:	2008           	move.l a0,d0
  f8b174:	2209           	move.l a1,d1
  f8b176:	8081           	or.l d1,d0
  f8b178:	7203           	moveq #3,d1
  f8b17a:	c081           	and.l d1,d0
  f8b17c:	6624           	bne.s 0xf8b1a2
  f8b17e:	2010           	move.l (a0),d0
  f8b180:	b091           	cmp.l (a1),d0
  f8b182:	661e           	bne.s 0xf8b1a2
  f8b184:	2200           	move.l d0,d1
  f8b186:	0681 fefe feff 	addi.l #-16843009,d1
  f8b18c:	4680           	not.l d0
  f8b18e:	c081           	and.l d1,d0
  f8b190:	0280 8080 8080 	andi.l #-2139062144,d0
  f8b196:	6638           	bne.s 0xf8b1d0
  f8b198:	5888           	addq.l #4,a0
  f8b19a:	5889           	addq.l #4,a1
  f8b19c:	2010           	move.l (a0),d0
  f8b19e:	b091           	cmp.l (a1),d0
  f8b1a0:	67e2           	beq.s 0xf8b184
  f8b1a2:	1010           	move.b (a0),d0
  f8b1a4:	6730           	beq.s 0xf8b1d6
  f8b1a6:	2449           	movea.l a1,a2
  f8b1a8:	224a           	movea.l a2,a1
  f8b1aa:	b01a           	cmp.b (a2)+,d0
  f8b1ac:	6614           	bne.s 0xf8b1c2
  f8b1ae:	5288           	addq.l #1,a0
  f8b1b0:	1010           	move.b (a0),d0
  f8b1b2:	66f4           	bne.s 0xf8b1a8
  f8b1b4:	224a           	movea.l a2,a1
  f8b1b6:	7000           	moveq #0,d0
  f8b1b8:	7200           	moveq #0,d1
  f8b1ba:	1211           	move.b (a1),d1
  f8b1bc:	9081           	sub.l d1,d0
  f8b1be:	245f           	movea.l (sp)+,a2
  f8b1c0:	4e75           	rts
  f8b1c2:	0280 0000 00ff 	andi.l #255,d0
  f8b1c8:	7200           	moveq #0,d1
  f8b1ca:	1211           	move.b (a1),d1
  f8b1cc:	9081           	sub.l d1,d0
  f8b1ce:	60ee           	bra.s 0xf8b1be
  f8b1d0:	7000           	moveq #0,d0
  f8b1d2:	245f           	movea.l (sp)+,a2
  f8b1d4:	4e75           	rts
  f8b1d6:	7000           	moveq #0,d0
  f8b1d8:	7200           	moveq #0,d1
  f8b1da:	1211           	move.b (a1),d1
  f8b1dc:	9081           	sub.l d1,d0
  f8b1de:	60de           	bra.s 0xf8b1be
  f8b1e0:	202f 0004      	move.l 4(sp),d0
  f8b1e4:	206f 0008      	movea.l 8(sp),a0
  f8b1e8:	2240           	movea.l d0,a1
  f8b1ea:	7200           	moveq #0,d1
  f8b1ec:	4641           	not.w d1
  f8b1ee:	12d8           	move.b (a0)+,(a1)+
  f8b1f0:	66fc           	bne.s 0xf8b1ee
  f8b1f2:	4e75           	rts
  f8b1f4:	222f 0004      	move.l 4(sp),d1
  f8b1f8:	2041           	movea.l d1,a0
  f8b1fa:	70ff           	moveq #-1,d0
  f8b1fc:	4a18           	tst.b (a0)+
  f8b1fe:	66fc           	bne.s 0xf8b1fc
  f8b200:	91c1           	suba.l d1,a0
  f8b202:	2008           	move.l a0,d0
  f8b204:	5380           	subq.l #1,d0
  f8b206:	4e75           	rts
  f8b208:	48e7 3030      	movem.l d2-d3/a2-a3,-(sp)
  f8b20c:	206f 0014      	movea.l 20(sp),a0
  f8b210:	226f 0018      	movea.l 24(sp),a1
  f8b214:	202f 001c      	move.l 28(sp),d0
  f8b218:	673e           	beq.s 0xf8b258
  f8b21a:	2608           	move.l a0,d3
  f8b21c:	2449           	movea.l a1,a2
  f8b21e:	2208           	move.l a0,d1
  f8b220:	2409           	move.l a1,d2
  f8b222:	8282           	or.l d2,d1
  f8b224:	7403           	moveq #3,d2
  f8b226:	c282           	and.l d2,d1
  f8b228:	6736           	beq.s 0xf8b260
  f8b22a:	1210           	move.b (a0),d1
  f8b22c:	1411           	move.b (a1),d2
  f8b22e:	b401           	cmp.b d1,d2
  f8b230:	666c           	bne.s 0xf8b29e
  f8b232:	7401           	moveq #1,d2
  f8b234:	b480           	cmp.l d0,d2
  f8b236:	6720           	beq.s 0xf8b258
  f8b238:	2648           	movea.l a0,a3
  f8b23a:	4a01           	tst.b d1
  f8b23c:	671a           	beq.s 0xf8b258
  f8b23e:	5288           	addq.l #1,a0
  f8b240:	5289           	addq.l #1,a1
  f8b242:	1210           	move.b (a0),d1
  f8b244:	1411           	move.b (a1),d2
  f8b246:	b401           	cmp.b d1,d2
  f8b248:	6654           	bne.s 0xf8b29e
  f8b24a:	2400           	move.l d0,d2
  f8b24c:	9488           	sub.l a0,d2
  f8b24e:	45f3 28ff      	lea (-1,a3,d2.l),a2
  f8b252:	b4fc 0000      	cmpa.w #0,a2
  f8b256:	66e2           	bne.s 0xf8b23a
  f8b258:	7000           	moveq #0,d0
  f8b25a:	4cdf 0c0c      	movem.l (sp)+,d2-d3/a2-a3
  f8b25e:	4e75           	rts
  f8b260:	b480           	cmp.l d0,d2
  f8b262:	64c6           	bcc.s 0xf8b22a
  f8b264:	224a           	movea.l a2,a1
  f8b266:	2043           	movea.l d3,a0
  f8b268:	2210           	move.l (a0),d1
  f8b26a:	5883           	addq.l #4,d3
  f8b26c:	b29a           	cmp.l (a2)+,d1
  f8b26e:	6624           	bne.s 0xf8b294
  f8b270:	5980           	subq.l #4,d0
  f8b272:	67e4           	beq.s 0xf8b258
  f8b274:	2401           	move.l d1,d2
  f8b276:	0682 fefe feff 	addi.l #-16843009,d2
  f8b27c:	4681           	not.l d1
  f8b27e:	c282           	and.l d2,d1
  f8b280:	0281 8080 8080 	andi.l #-2139062144,d1
  f8b286:	66d0           	bne.s 0xf8b258
  f8b288:	7203           	moveq #3,d1
  f8b28a:	b280           	cmp.l d0,d1
  f8b28c:	65d6           	bcs.s 0xf8b264
  f8b28e:	2043           	movea.l d3,a0
  f8b290:	224a           	movea.l a2,a1
  f8b292:	6096           	bra.s 0xf8b22a
  f8b294:	1210           	move.b (a0),d1
  f8b296:	1411           	move.b (a1),d2
  f8b298:	2648           	movea.l a0,a3
  f8b29a:	b202           	cmp.b d2,d1
  f8b29c:	679c           	beq.s 0xf8b23a
  f8b29e:	7000           	moveq #0,d0
  f8b2a0:	1001           	move.b d1,d0
  f8b2a2:	0282 0000 00ff 	andi.l #255,d2
  f8b2a8:	9082           	sub.l d2,d0
  f8b2aa:	4cdf 0c0c      	movem.l (sp)+,d2-d3/a2-a3
  f8b2ae:	4e75           	rts
  f8b2b0:	48e7 3820      	movem.l d2-d4/a2,-(sp)
  f8b2b4:	202f 0014      	move.l 20(sp),d0
  f8b2b8:	246f 0018      	movea.l 24(sp),a2
  f8b2bc:	222f 001c      	move.l 28(sp),d1
  f8b2c0:	204a           	movea.l a2,a0
  f8b2c2:	240a           	move.l a2,d2
  f8b2c4:	8480           	or.l d0,d2
  f8b2c6:	7603           	moveq #3,d3
  f8b2c8:	c483           	and.l d3,d2
  f8b2ca:	2240           	movea.l d0,a1
  f8b2cc:	6604           	bne.s 0xf8b2d2
  f8b2ce:	b681           	cmp.l d1,d3
  f8b2d0:	651c           	bcs.s 0xf8b2ee
  f8b2d2:	4a81           	tst.l d1
  f8b2d4:	6712           	beq.s 0xf8b2e8
  f8b2d6:	2601           	move.l d1,d3
  f8b2d8:	5383           	subq.l #1,d3
  f8b2da:	2049           	movea.l a1,a0
  f8b2dc:	141a           	move.b (a2)+,d2
  f8b2de:	10c2           	move.b d2,(a0)+
  f8b2e0:	6736           	beq.s 0xf8b318
  f8b2e2:	2248           	movea.l a0,a1
  f8b2e4:	2203           	move.l d3,d1
  f8b2e6:	66ee           	bne.s 0xf8b2d6
  f8b2e8:	4cdf 041c      	movem.l (sp)+,d2-d4/a2
  f8b2ec:	4e75           	rts
  f8b2ee:	2448           	movea.l a0,a2
  f8b2f0:	2610           	move.l (a0),d3
  f8b2f2:	5888           	addq.l #4,a0
  f8b2f4:	2403           	move.l d3,d2
  f8b2f6:	0682 fefe feff 	addi.l #-16843009,d2
  f8b2fc:	2803           	move.l d3,d4
  f8b2fe:	4684           	not.l d4
  f8b300:	c484           	and.l d4,d2
  f8b302:	0282 8080 8080 	andi.l #-2139062144,d2
  f8b308:	66c8           	bne.s 0xf8b2d2
  f8b30a:	5981           	subq.l #4,d1
  f8b30c:	22c3           	move.l d3,(a1)+
  f8b30e:	7403           	moveq #3,d2
  f8b310:	b481           	cmp.l d1,d2
  f8b312:	65da           	bcs.s 0xf8b2ee
  f8b314:	2448           	movea.l a0,a2
  f8b316:	60ba           	bra.s 0xf8b2d2
  f8b318:	d3c1           	adda.l d1,a1
  f8b31a:	4a83           	tst.l d3
  f8b31c:	67ca           	beq.s 0xf8b2e8
  f8b31e:	4218           	clr.b (a0)+
  f8b320:	b3c8           	cmpa.l a0,a1
  f8b322:	67c4           	beq.s 0xf8b2e8
  f8b324:	4218           	clr.b (a0)+
  f8b326:	b3c8           	cmpa.l a0,a1
  f8b328:	66f4           	bne.s 0xf8b31e
  f8b32a:	60bc           	bra.s 0xf8b2e8
  f8b32c:	48e7 3f30      	movem.l d2-d7/a2-a3,-(sp)
  f8b330:	206f 0024      	movea.l 36(sp),a0
  f8b334:	2c2f 0028      	move.l 40(sp),d6
  f8b338:	246f 002c      	movea.l 44(sp),a2
  f8b33c:	7001           	moveq #1,d0
  f8b33e:	b086           	cmp.l d6,d0
  f8b340:	6400 00ee      	bcc.w 0xf8b430
  f8b344:	7a01           	moveq #1,d5
  f8b346:	327c 0001      	movea.w #1,a1
  f8b34a:	7400           	moveq #0,d2
  f8b34c:	70ff           	moveq #-1,d0
  f8b34e:	7201           	moveq #1,d1
  f8b350:	1830 1800      	move.b (0,a0,d1.l),d4
  f8b354:	47f0 0800      	lea (0,a0,d0.l),a3
  f8b358:	1633 9800      	move.b (0,a3,a1.l),d3
  f8b35c:	b604           	cmp.b d4,d3
  f8b35e:	636c           	bls.s 0xf8b3cc
  f8b360:	2a01           	move.l d1,d5
  f8b362:	9a80           	sub.l d0,d5
  f8b364:	2401           	move.l d1,d2
  f8b366:	327c 0001      	movea.w #1,a1
  f8b36a:	2202           	move.l d2,d1
  f8b36c:	d289           	add.l a1,d1
  f8b36e:	b286           	cmp.l d6,d1
  f8b370:	65de           	bcs.s 0xf8b350
  f8b372:	2485           	move.l d5,(a2)
  f8b374:	7e01           	moveq #1,d7
  f8b376:	327c 0001      	movea.w #1,a1
  f8b37a:	7400           	moveq #0,d2
  f8b37c:	7aff           	moveq #-1,d5
  f8b37e:	7201           	moveq #1,d1
  f8b380:	1830 1800      	move.b (0,a0,d1.l),d4
  f8b384:	47f0 5800      	lea (0,a0,d5.l),a3
  f8b388:	1633 9800      	move.b (0,a3,a1.l),d3
  f8b38c:	b604           	cmp.b d4,d3
  f8b38e:	6424           	bcc.s 0xf8b3b4
  f8b390:	2e01           	move.l d1,d7
  f8b392:	9e85           	sub.l d5,d7
  f8b394:	2401           	move.l d1,d2
  f8b396:	327c 0001      	movea.w #1,a1
  f8b39a:	2202           	move.l d2,d1
  f8b39c:	d289           	add.l a1,d1
  f8b39e:	b286           	cmp.l d6,d1
  f8b3a0:	65de           	bcs.s 0xf8b380
  f8b3a2:	5285           	addq.l #1,d5
  f8b3a4:	5280           	addq.l #1,d0
  f8b3a6:	b085           	cmp.l d5,d0
  f8b3a8:	6204           	bhi.s 0xf8b3ae
  f8b3aa:	2487           	move.l d7,(a2)
  f8b3ac:	2005           	move.l d5,d0
  f8b3ae:	4cdf 0cfc      	movem.l (sp)+,d2-d7/a2-a3
  f8b3b2:	4e75           	rts
  f8b3b4:	b604           	cmp.b d4,d3
  f8b3b6:	672e           	beq.s 0xf8b3e6
  f8b3b8:	2a02           	move.l d2,d5
  f8b3ba:	5282           	addq.l #1,d2
  f8b3bc:	7e01           	moveq #1,d7
  f8b3be:	327c 0001      	movea.w #1,a1
  f8b3c2:	2202           	move.l d2,d1
  f8b3c4:	d289           	add.l a1,d1
  f8b3c6:	b286           	cmp.l d6,d1
  f8b3c8:	65b6           	bcs.s 0xf8b380
  f8b3ca:	60d6           	bra.s 0xf8b3a2
  f8b3cc:	b604           	cmp.b d4,d3
  f8b3ce:	6726           	beq.s 0xf8b3f6
  f8b3d0:	2002           	move.l d2,d0
  f8b3d2:	5282           	addq.l #1,d2
  f8b3d4:	7a01           	moveq #1,d5
  f8b3d6:	327c 0001      	movea.w #1,a1
  f8b3da:	2202           	move.l d2,d1
  f8b3dc:	d289           	add.l a1,d1
  f8b3de:	b286           	cmp.l d6,d1
  f8b3e0:	6500 ff6e      	bcs.w 0xf8b350
  f8b3e4:	608c           	bra.s 0xf8b372
  f8b3e6:	be89           	cmp.l a1,d7
  f8b3e8:	6720           	beq.s 0xf8b40a
  f8b3ea:	5289           	addq.l #1,a1
  f8b3ec:	2202           	move.l d2,d1
  f8b3ee:	d289           	add.l a1,d1
  f8b3f0:	b286           	cmp.l d6,d1
  f8b3f2:	658c           	bcs.s 0xf8b380
  f8b3f4:	60ac           	bra.s 0xf8b3a2
  f8b3f6:	ba89           	cmp.l a1,d5
  f8b3f8:	6722           	beq.s 0xf8b41c
  f8b3fa:	5289           	addq.l #1,a1
  f8b3fc:	2202           	move.l d2,d1
  f8b3fe:	d289           	add.l a1,d1
  f8b400:	b286           	cmp.l d6,d1
  f8b402:	6500 ff4c      	bcs.w 0xf8b350
  f8b406:	6000 ff6a      	bra.w 0xf8b372
  f8b40a:	d489           	add.l a1,d2
  f8b40c:	327c 0001      	movea.w #1,a1
  f8b410:	2202           	move.l d2,d1
  f8b412:	d289           	add.l a1,d1
  f8b414:	b286           	cmp.l d6,d1
  f8b416:	6500 ff68      	bcs.w 0xf8b380
  f8b41a:	6086           	bra.s 0xf8b3a2
  f8b41c:	d489           	add.l a1,d2
  f8b41e:	327c 0001      	movea.w #1,a1
  f8b422:	2202           	move.l d2,d1
  f8b424:	d289           	add.l a1,d1
  f8b426:	b286           	cmp.l d6,d1
  f8b428:	6500 ff26      	bcs.w 0xf8b350
  f8b42c:	6000 ff44      	bra.w 0xf8b372
  f8b430:	7e01           	moveq #1,d7
  f8b432:	7a00           	moveq #0,d5
  f8b434:	2487           	move.l d7,(a2)
  f8b436:	2005           	move.l d5,d0
  f8b438:	6000 ff74      	bra.w 0xf8b3ae
  f8b43c:	4e55 fbf0      	link.w a5,#-1040
  f8b440:	48e7 3f3a      	movem.l d2-d7/a2-a4/a6,-(sp)
  f8b444:	246d 0008      	movea.l 8(a5),a2
  f8b448:	282d 000c      	move.l 12(a5),d4
  f8b44c:	266d 0010      	movea.l 16(a5),a3
  f8b450:	242d 0014      	move.l 20(a5),d2
  f8b454:	486d fbfc      	pea -1028(a5)
  f8b458:	2f02           	move.l d2,-(sp)
  f8b45a:	2f0b           	move.l a3,-(sp)
  f8b45c:	4eba fece      	jsr 0xf8b32c(pc)
  f8b460:	2600           	move.l d0,d3
  f8b462:	41ed fc00      	lea -1024(a5),a0
  f8b466:	2b4d fbf4      	move.l a5,-1036(a5)
  f8b46a:	4fef 000c      	lea 12(sp),sp
  f8b46e:	20c2           	move.l d2,(a0)+
  f8b470:	b1ed fbf4      	cmpa.l -1036(a5),a0
  f8b474:	66f8           	bne.s 0xf8b46e
  f8b476:	4a82           	tst.l d2
  f8b478:	671e           	beq.s 0xf8b498
  f8b47a:	224b           	movea.l a3,a1
  f8b47c:	200b           	move.l a3,d0
  f8b47e:	d082           	add.l d2,d0
  f8b480:	7200           	moveq #0,d1
  f8b482:	1219           	move.b (a1)+,d1
  f8b484:	d281           	add.l d1,d1
  f8b486:	d281           	add.l d1,d1
  f8b488:	41f5 1800      	lea (0,a5,d1.l),a0
  f8b48c:	2200           	move.l d0,d1
  f8b48e:	9289           	sub.l a1,d1
  f8b490:	2141 fc00      	move.l d1,-1024(a0)
  f8b494:	b3c0           	cmpa.l d0,a1
  f8b496:	66e8           	bne.s 0xf8b480
  f8b498:	2a2d fbfc      	move.l -1028(a5),d5
  f8b49c:	2f03           	move.l d3,-(sp)
  f8b49e:	4873 5800      	pea (0,a3,d5.l)
  f8b4a2:	2f0b           	move.l a3,-(sp)
  f8b4a4:	4eb9 00f8 af14 	jsr 0xf8af14
  f8b4aa:	4fef 000c      	lea 12(sp),sp
  f8b4ae:	4a80           	tst.l d0
  f8b4b0:	6600 0114      	bne.w 0xf8b5c6
  f8b4b4:	7c00           	moveq #0,d6
  f8b4b6:	7e00           	moveq #0,d7
  f8b4b8:	49f9 00f8 b8f4 	lea 0xf8b8f4,a4
  f8b4be:	2c42           	movea.l d2,a6
  f8b4c0:	538e           	subq.l #1,a6
  f8b4c2:	7201           	moveq #1,d1
  f8b4c4:	9283           	sub.l d3,d1
  f8b4c6:	2b41 fbf4      	move.l d1,-1036(a5)
  f8b4ca:	2202           	move.l d2,d1
  f8b4cc:	9285           	sub.l d5,d1
  f8b4ce:	2b41 fbf8      	move.l d1,-1032(a5)
  f8b4d2:	2207           	move.l d7,d1
  f8b4d4:	d282           	add.l d2,d1
  f8b4d6:	2b41 fbf0      	move.l d1,-1040(a5)
  f8b4da:	9284           	sub.l d4,d1
  f8b4dc:	2f01           	move.l d1,-(sp)
  f8b4de:	42a7           	clr.l -(sp)
  f8b4e0:	4872 4800      	pea (0,a2,d4.l)
  f8b4e4:	4e94           	jsr (a4)
  f8b4e6:	4fef 000c      	lea 12(sp),sp
  f8b4ea:	4a80           	tst.l d0
  f8b4ec:	664e           	bne.s 0xf8b53c
  f8b4ee:	4aad fbf0      	tst.l -1040(a5)
  f8b4f2:	6748           	beq.s 0xf8b53c
  f8b4f4:	222d fbf0      	move.l -1040(a5),d1
  f8b4f8:	7000           	moveq #0,d0
  f8b4fa:	1032 18ff      	move.b (-1,a2,d1.l),d0
  f8b4fe:	d080           	add.l d0,d0
  f8b500:	d080           	add.l d0,d0
  f8b502:	41f5 0800      	lea (0,a5,d0.l),a0
  f8b506:	2028 fc00      	move.l -1024(a0),d0
  f8b50a:	673c           	beq.s 0xf8b548
  f8b50c:	4a86           	tst.l d6
  f8b50e:	6708           	beq.s 0xf8b518
  f8b510:	b085           	cmp.l d5,d0
  f8b512:	6404           	bcc.s 0xf8b518
  f8b514:	202d fbf8      	move.l -1032(a5),d0
  f8b518:	de80           	add.l d0,d7
  f8b51a:	7c00           	moveq #0,d6
  f8b51c:	282d fbf0      	move.l -1040(a5),d4
  f8b520:	2207           	move.l d7,d1
  f8b522:	d282           	add.l d2,d1
  f8b524:	2b41 fbf0      	move.l d1,-1040(a5)
  f8b528:	9284           	sub.l d4,d1
  f8b52a:	2f01           	move.l d1,-(sp)
  f8b52c:	42a7           	clr.l -(sp)
  f8b52e:	4872 4800      	pea (0,a2,d4.l)
  f8b532:	4e94           	jsr (a4)
  f8b534:	4fef 000c      	lea 12(sp),sp
  f8b538:	4a80           	tst.l d0
  f8b53a:	67b2           	beq.s 0xf8b4ee
  f8b53c:	7000           	moveq #0,d0
  f8b53e:	4ced 5cfc fbc8 	movem.l -1080(a5),d2-d7/a2-a4/a6
  f8b544:	4e5d           	unlk a5
  f8b546:	4e75           	rts
  f8b548:	2046           	movea.l d6,a0
  f8b54a:	b686           	cmp.l d6,d3
  f8b54c:	6302           	bls.s 0xf8b550
  f8b54e:	2043           	movea.l d3,a0
  f8b550:	43f2 7800      	lea (0,a2,d7.l),a1
  f8b554:	bdc8           	cmpa.l a0,a6
  f8b556:	6310           	bls.s 0xf8b568
  f8b558:	1033 8800      	move.b (0,a3,a0.l),d0
  f8b55c:	b031 8800      	cmp.b (0,a1,a0.l),d0
  f8b560:	664c           	bne.s 0xf8b5ae
  f8b562:	5288           	addq.l #1,a0
  f8b564:	bdc8           	cmpa.l a0,a6
  f8b566:	66f0           	bne.s 0xf8b558
  f8b568:	2043           	movea.l d3,a0
  f8b56a:	5388           	subq.l #1,a0
  f8b56c:	43f2 7800      	lea (0,a2,d7.l),a1
  f8b570:	b686           	cmp.l d6,d3
  f8b572:	6300 012a      	bls.w 0xf8b69e
  f8b576:	1233 8800      	move.b (0,a3,a0.l),d1
  f8b57a:	b231 8800      	cmp.b (0,a1,a0.l),d1
  f8b57e:	6614           	bne.s 0xf8b594
  f8b580:	2808           	move.l a0,d4
  f8b582:	5384           	subq.l #1,d4
  f8b584:	b1c6           	cmpa.l d6,a0
  f8b586:	670e           	beq.s 0xf8b596
  f8b588:	2044           	movea.l d4,a0
  f8b58a:	1233 8800      	move.b (0,a3,a0.l),d1
  f8b58e:	b231 8800      	cmp.b (0,a1,a0.l),d1
  f8b592:	67ec           	beq.s 0xf8b580
  f8b594:	5288           	addq.l #1,a0
  f8b596:	2246           	movea.l d6,a1
  f8b598:	5289           	addq.l #1,a1
  f8b59a:	b1c9           	cmpa.l a1,a0
  f8b59c:	6500 0106      	bcs.w 0xf8b6a4
  f8b5a0:	de85           	add.l d5,d7
  f8b5a2:	2c2d fbf8      	move.l -1032(a5),d6
  f8b5a6:	282d fbf0      	move.l -1040(a5),d4
  f8b5aa:	6000 ff74      	bra.w 0xf8b520
  f8b5ae:	b1ce           	cmpa.l a6,a0
  f8b5b0:	64b6           	bcc.s 0xf8b568
  f8b5b2:	222d fbf4      	move.l -1036(a5),d1
  f8b5b6:	d287           	add.l d7,d1
  f8b5b8:	2e01           	move.l d1,d7
  f8b5ba:	de88           	add.l a0,d7
  f8b5bc:	7c00           	moveq #0,d6
  f8b5be:	282d fbf0      	move.l -1040(a5),d4
  f8b5c2:	6000 ff5c      	bra.w 0xf8b520
  f8b5c6:	2a02           	move.l d2,d5
  f8b5c8:	9a83           	sub.l d3,d5
  f8b5ca:	b685           	cmp.l d5,d3
  f8b5cc:	6200 00ac      	bhi.w 0xf8b67a
  f8b5d0:	5285           	addq.l #1,d5
  f8b5d2:	9dce           	suba.l a6,a6
  f8b5d4:	49f9 00f8 b8f4 	lea 0xf8b8f4,a4
  f8b5da:	2202           	move.l d2,d1
  f8b5dc:	5381           	subq.l #1,d1
  f8b5de:	2b41 fbf4      	move.l d1,-1036(a5)
  f8b5e2:	7c01           	moveq #1,d6
  f8b5e4:	9c83           	sub.l d3,d6
  f8b5e6:	2e0e           	move.l a6,d7
  f8b5e8:	de82           	add.l d2,d7
  f8b5ea:	2007           	move.l d7,d0
  f8b5ec:	9084           	sub.l d4,d0
  f8b5ee:	2f00           	move.l d0,-(sp)
  f8b5f0:	42a7           	clr.l -(sp)
  f8b5f2:	4872 4800      	pea (0,a2,d4.l)
  f8b5f6:	4e94           	jsr (a4)
  f8b5f8:	4fef 000c      	lea 12(sp),sp
  f8b5fc:	4a80           	tst.l d0
  f8b5fe:	6600 ff3c      	bne.w 0xf8b53c
  f8b602:	4a87           	tst.l d7
  f8b604:	6700 ff36      	beq.w 0xf8b53c
  f8b608:	7000           	moveq #0,d0
  f8b60a:	1032 78ff      	move.b (-1,a2,d7.l),d0
  f8b60e:	d080           	add.l d0,d0
  f8b610:	d080           	add.l d0,d0
  f8b612:	41f5 0800      	lea (0,a5,d0.l),a0
  f8b616:	2028 fc00      	move.l -1024(a0),d0
  f8b61a:	6706           	beq.s 0xf8b622
  f8b61c:	ddc0           	adda.l d0,a6
  f8b61e:	2807           	move.l d7,d4
  f8b620:	60c4           	bra.s 0xf8b5e6
  f8b622:	41f2 e800      	lea (0,a2,a6.l),a0
  f8b626:	b6ad fbf4      	cmp.l -1036(a5),d3
  f8b62a:	6418           	bcc.s 0xf8b644
  f8b62c:	2203           	move.l d3,d1
  f8b62e:	41f2 e800      	lea (0,a2,a6.l),a0
  f8b632:	1033 1800      	move.b (0,a3,d1.l),d0
  f8b636:	b030 1800      	cmp.b (0,a0,d1.l),d0
  f8b63a:	662e           	bne.s 0xf8b66a
  f8b63c:	5281           	addq.l #1,d1
  f8b63e:	b2ad fbf4      	cmp.l -1036(a5),d1
  f8b642:	66ee           	bne.s 0xf8b632
  f8b644:	2003           	move.l d3,d0
  f8b646:	5380           	subq.l #1,d0
  f8b648:	4a83           	tst.l d3
  f8b64a:	6712           	beq.s 0xf8b65e
  f8b64c:	1233 0800      	move.b (0,a3,d0.l),d1
  f8b650:	b230 0800      	cmp.b (0,a0,d0.l),d1
  f8b654:	6640           	bne.s 0xf8b696
  f8b656:	5380           	subq.l #1,d0
  f8b658:	72ff           	moveq #-1,d1
  f8b65a:	b280           	cmp.l d0,d1
  f8b65c:	66ee           	bne.s 0xf8b64c
  f8b65e:	2008           	move.l a0,d0
  f8b660:	4ced 5cfc fbc8 	movem.l -1080(a5),d2-d7/a2-a4/a6
  f8b666:	4e5d           	unlk a5
  f8b668:	4e75           	rts
  f8b66a:	b2ad fbf4      	cmp.l -1036(a5),d1
  f8b66e:	64d4           	bcc.s 0xf8b644
  f8b670:	ddc6           	adda.l d6,a6
  f8b672:	ddc1           	adda.l d1,a6
  f8b674:	2807           	move.l d7,d4
  f8b676:	6000 ff6e      	bra.w 0xf8b5e6
  f8b67a:	2a03           	move.l d3,d5
  f8b67c:	5285           	addq.l #1,d5
  f8b67e:	9dce           	suba.l a6,a6
  f8b680:	49f9 00f8 b8f4 	lea 0xf8b8f4,a4
  f8b686:	2202           	move.l d2,d1
  f8b688:	5381           	subq.l #1,d1
  f8b68a:	2b41 fbf4      	move.l d1,-1036(a5)
  f8b68e:	7c01           	moveq #1,d6
  f8b690:	9c83           	sub.l d3,d6
  f8b692:	6000 ff52      	bra.w 0xf8b5e6
  f8b696:	ddc5           	adda.l d5,a6
  f8b698:	2807           	move.l d7,d4
  f8b69a:	6000 ff4a      	bra.w 0xf8b5e6
  f8b69e:	2043           	movea.l d3,a0
  f8b6a0:	6000 fef4      	bra.w 0xf8b596
  f8b6a4:	200a           	move.l a2,d0
  f8b6a6:	d087           	add.l d7,d0
  f8b6a8:	4ced 5cfc fbc8 	movem.l -1080(a5),d2-d7/a2-a4/a6
  f8b6ae:	4e5d           	unlk a5
  f8b6b0:	4e75           	rts
  f8b6b2:	4e55 fff4      	link.w a5,#-12
  f8b6b6:	48e7 3f3a      	movem.l d2-d7/a2-a4/a6,-(sp)
  f8b6ba:	266d 0008      	movea.l 8(a5),a3
  f8b6be:	246d 000c      	movea.l 12(a5),a2
  f8b6c2:	1213           	move.b (a3),d1
  f8b6c4:	1812           	move.b (a2),d4
  f8b6c6:	4a01           	tst.b d1
  f8b6c8:	677e           	beq.s 0xf8b748
  f8b6ca:	240a           	move.l a2,d2
  f8b6cc:	224b           	movea.l a3,a1
  f8b6ce:	7601           	moveq #1,d3
  f8b6d0:	2042           	movea.l d2,a0
  f8b6d2:	1010           	move.b (a0),d0
  f8b6d4:	5282           	addq.l #1,d2
  f8b6d6:	4a00           	tst.b d0
  f8b6d8:	671a           	beq.s 0xf8b6f4
  f8b6da:	5289           	addq.l #1,a1
  f8b6dc:	b200           	cmp.b d0,d1
  f8b6de:	57c0           	seq d0
  f8b6e0:	4880           	ext.w d0
  f8b6e2:	48c0           	ext.l d0
  f8b6e4:	4480           	neg.l d0
  f8b6e6:	c680           	and.l d0,d3
  f8b6e8:	1211           	move.b (a1),d1
  f8b6ea:	66e4           	bne.s 0xf8b6d0
  f8b6ec:	4a28 0001      	tst.b 1(a0)
  f8b6f0:	6668           	bne.s 0xf8b75a
  f8b6f2:	2042           	movea.l d2,a0
  f8b6f4:	4a83           	tst.l d3
  f8b6f6:	6654           	bne.s 0xf8b74c
  f8b6f8:	2408           	move.l a0,d2
  f8b6fa:	948a           	sub.l a2,d2
  f8b6fc:	4884           	ext.w d4
  f8b6fe:	3044           	movea.w d4,a0
  f8b700:	2f08           	move.l a0,-(sp)
  f8b702:	486b 0001      	pea 1(a3)
  f8b706:	4eb9 00f8 b990 	jsr 0xf8b990
  f8b70c:	2840           	movea.l d0,a4
  f8b70e:	508f           	addq.l #8,sp
  f8b710:	4a80           	tst.l d0
  f8b712:	6746           	beq.s 0xf8b75a
  f8b714:	7001           	moveq #1,d0
  f8b716:	b082           	cmp.l d2,d0
  f8b718:	6722           	beq.s 0xf8b73c
  f8b71a:	d7c2           	adda.l d2,a3
  f8b71c:	b9cb           	cmpa.l a3,a4
  f8b71e:	6248           	bhi.s 0xf8b768
  f8b720:	220b           	move.l a3,d1
  f8b722:	928c           	sub.l a4,d1
  f8b724:	701f           	moveq #31,d0
  f8b726:	b082           	cmp.l d2,d0
  f8b728:	6442           	bcc.s 0xf8b76c
  f8b72a:	2f02           	move.l d2,-(sp)
  f8b72c:	2f0a           	move.l a2,-(sp)
  f8b72e:	2f01           	move.l d1,-(sp)
  f8b730:	2f0c           	move.l a4,-(sp)
  f8b732:	4eba fd08      	jsr 0xf8b43c(pc)
  f8b736:	2840           	movea.l d0,a4
  f8b738:	4fef 0010      	lea 16(sp),sp
  f8b73c:	200c           	move.l a4,d0
  f8b73e:	4ced 5cfc ffcc 	movem.l -52(a5),d2-d7/a2-a4/a6
  f8b744:	4e5d           	unlk a5
  f8b746:	4e75           	rts
  f8b748:	4a04           	tst.b d4
  f8b74a:	660e           	bne.s 0xf8b75a
  f8b74c:	284b           	movea.l a3,a4
  f8b74e:	200c           	move.l a4,d0
  f8b750:	4ced 5cfc ffcc 	movem.l -52(a5),d2-d7/a2-a4/a6
  f8b756:	4e5d           	unlk a5
  f8b758:	4e75           	rts
  f8b75a:	99cc           	suba.l a4,a4
  f8b75c:	200c           	move.l a4,d0
  f8b75e:	4ced 5cfc ffcc 	movem.l -52(a5),d2-d7/a2-a4/a6
  f8b764:	4e5d           	unlk a5
  f8b766:	4e75           	rts
  f8b768:	7201           	moveq #1,d1
  f8b76a:	60b8           	bra.s 0xf8b724
  f8b76c:	486d fffc      	pea -4(a5)
  f8b770:	2f02           	move.l d2,-(sp)
  f8b772:	2f0a           	move.l a2,-(sp)
  f8b774:	2b41 fff8      	move.l d1,-8(a5)
  f8b778:	4eba fbb2      	jsr 0xf8b32c(pc)
  f8b77c:	2600           	move.l d0,d3
  f8b77e:	2a2d fffc      	move.l -4(a5),d5
  f8b782:	2f00           	move.l d0,-(sp)
  f8b784:	4872 5800      	pea (0,a2,d5.l)
  f8b788:	2f0a           	move.l a2,-(sp)
  f8b78a:	4eb9 00f8 af14 	jsr 0xf8af14
  f8b790:	4fef 0018      	lea 24(sp),sp
  f8b794:	222d fff8      	move.l -8(a5),d1
  f8b798:	4a80           	tst.l d0
  f8b79a:	6700 0082      	beq.w 0xf8b81e
  f8b79e:	2a02           	move.l d2,d5
  f8b7a0:	9a83           	sub.l d3,d5
  f8b7a2:	b685           	cmp.l d5,d3
  f8b7a4:	6302           	bls.s 0xf8b7a8
  f8b7a6:	2a03           	move.l d3,d5
  f8b7a8:	5285           	addq.l #1,d5
  f8b7aa:	7c00           	moveq #0,d6
  f8b7ac:	47f9 00f8 b8f4 	lea 0xf8b8f4,a3
  f8b7b2:	7801           	moveq #1,d4
  f8b7b4:	9883           	sub.l d3,d4
  f8b7b6:	2e02           	move.l d2,d7
  f8b7b8:	de86           	add.l d6,d7
  f8b7ba:	2007           	move.l d7,d0
  f8b7bc:	9081           	sub.l d1,d0
  f8b7be:	2f00           	move.l d0,-(sp)
  f8b7c0:	42a7           	clr.l -(sp)
  f8b7c2:	4874 1800      	pea (0,a4,d1.l)
  f8b7c6:	4e93           	jsr (a3)
  f8b7c8:	4fef 000c      	lea 12(sp),sp
  f8b7cc:	4a80           	tst.l d0
  f8b7ce:	668a           	bne.s 0xf8b75a
  f8b7d0:	4a87           	tst.l d7
  f8b7d2:	6786           	beq.s 0xf8b75a
  f8b7d4:	41f4 6800      	lea (0,a4,d6.l),a0
  f8b7d8:	b682           	cmp.l d2,d3
  f8b7da:	6418           	bcc.s 0xf8b7f4
  f8b7dc:	2203           	move.l d3,d1
  f8b7de:	41f4 6800      	lea (0,a4,d6.l),a0
  f8b7e2:	1032 1800      	move.b (0,a2,d1.l),d0
  f8b7e6:	b030 1800      	cmp.b (0,a0,d1.l),d0
  f8b7ea:	6600 00dc      	bne.w 0xf8b8c8
  f8b7ee:	5281           	addq.l #1,d1
  f8b7f0:	b282           	cmp.l d2,d1
  f8b7f2:	66ee           	bne.s 0xf8b7e2
  f8b7f4:	2003           	move.l d3,d0
  f8b7f6:	5380           	subq.l #1,d0
  f8b7f8:	4a83           	tst.l d3
  f8b7fa:	6714           	beq.s 0xf8b810
  f8b7fc:	1232 0800      	move.b (0,a2,d0.l),d1
  f8b800:	b230 0800      	cmp.b (0,a0,d0.l),d1
  f8b804:	6600 00d6      	bne.w 0xf8b8dc
  f8b808:	5380           	subq.l #1,d0
  f8b80a:	72ff           	moveq #-1,d1
  f8b80c:	b280           	cmp.l d0,d1
  f8b80e:	66ec           	bne.s 0xf8b7fc
  f8b810:	2848           	movea.l a0,a4
  f8b812:	200c           	move.l a4,d0
  f8b814:	4ced 5cfc ffcc 	movem.l -52(a5),d2-d7/a2-a4/a6
  f8b81a:	4e5d           	unlk a5
  f8b81c:	4e75           	rts
  f8b81e:	7e00           	moveq #0,d7
  f8b820:	42ad fff4      	clr.l -12(a5)
  f8b824:	47f9 00f8 b8f4 	lea 0xf8b8f4,a3
  f8b82a:	7801           	moveq #1,d4
  f8b82c:	9883           	sub.l d3,d4
  f8b82e:	2c02           	move.l d2,d6
  f8b830:	9c85           	sub.l d5,d6
  f8b832:	2c6d fff4      	movea.l -12(a5),a6
  f8b836:	ddc2           	adda.l d2,a6
  f8b838:	200e           	move.l a6,d0
  f8b83a:	9081           	sub.l d1,d0
  f8b83c:	2f00           	move.l d0,-(sp)
  f8b83e:	42a7           	clr.l -(sp)
  f8b840:	4874 1800      	pea (0,a4,d1.l)
  f8b844:	4e93           	jsr (a3)
  f8b846:	4fef 000c      	lea 12(sp),sp
  f8b84a:	4a80           	tst.l d0
  f8b84c:	6600 ff0c      	bne.w 0xf8b75a
  f8b850:	bcfc 0000      	cmpa.w #0,a6
  f8b854:	6700 ff04      	beq.w 0xf8b75a
  f8b858:	2043           	movea.l d3,a0
  f8b85a:	be83           	cmp.l d3,d7
  f8b85c:	6302           	bls.s 0xf8b860
  f8b85e:	2047           	movea.l d7,a0
  f8b860:	226d fff4      	movea.l -12(a5),a1
  f8b864:	d3cc           	adda.l a4,a1
  f8b866:	b1c2           	cmpa.l d2,a0
  f8b868:	6410           	bcc.s 0xf8b87a
  f8b86a:	1232 8800      	move.b (0,a2,a0.l),d1
  f8b86e:	b231 8800      	cmp.b (0,a1,a0.l),d1
  f8b872:	663c           	bne.s 0xf8b8b0
  f8b874:	5288           	addq.l #1,a0
  f8b876:	b1c2           	cmpa.l d2,a0
  f8b878:	66f0           	bne.s 0xf8b86a
  f8b87a:	2043           	movea.l d3,a0
  f8b87c:	5388           	subq.l #1,a0
  f8b87e:	226d fff4      	movea.l -12(a5),a1
  f8b882:	d3cc           	adda.l a4,a1
  f8b884:	be83           	cmp.l d3,d7
  f8b886:	6416           	bcc.s 0xf8b89e
  f8b888:	1032 8800      	move.b (0,a2,a0.l),d0
  f8b88c:	b031 8800      	cmp.b (0,a1,a0.l),d0
  f8b890:	6646           	bne.s 0xf8b8d8
  f8b892:	2008           	move.l a0,d0
  f8b894:	5380           	subq.l #1,d0
  f8b896:	b1c7           	cmpa.l d7,a0
  f8b898:	6706           	beq.s 0xf8b8a0
  f8b89a:	2040           	movea.l d0,a0
  f8b89c:	60ea           	bra.s 0xf8b888
  f8b89e:	2043           	movea.l d3,a0
  f8b8a0:	5287           	addq.l #1,d7
  f8b8a2:	b1c7           	cmpa.l d7,a0
  f8b8a4:	653e           	bcs.s 0xf8b8e4
  f8b8a6:	dbad fff4      	add.l d5,-12(a5)
  f8b8aa:	2e06           	move.l d6,d7
  f8b8ac:	220e           	move.l a6,d1
  f8b8ae:	6082           	bra.s 0xf8b832
  f8b8b0:	b1c2           	cmpa.l d2,a0
  f8b8b2:	64c6           	bcc.s 0xf8b87a
  f8b8b4:	222d fff4      	move.l -12(a5),d1
  f8b8b8:	d284           	add.l d4,d1
  f8b8ba:	d1c1           	adda.l d1,a0
  f8b8bc:	2b48 fff4      	move.l a0,-12(a5)
  f8b8c0:	7e00           	moveq #0,d7
  f8b8c2:	220e           	move.l a6,d1
  f8b8c4:	6000 ff6c      	bra.w 0xf8b832
  f8b8c8:	b282           	cmp.l d2,d1
  f8b8ca:	6400 ff28      	bcc.w 0xf8b7f4
  f8b8ce:	dc84           	add.l d4,d6
  f8b8d0:	dc81           	add.l d1,d6
  f8b8d2:	2207           	move.l d7,d1
  f8b8d4:	6000 fee0      	bra.w 0xf8b7b6
  f8b8d8:	5288           	addq.l #1,a0
  f8b8da:	60c4           	bra.s 0xf8b8a0
  f8b8dc:	dc85           	add.l d5,d6
  f8b8de:	2207           	move.l d7,d1
  f8b8e0:	6000 fed4      	bra.w 0xf8b7b6
  f8b8e4:	d9ed fff4      	adda.l -12(a5),a4
  f8b8e8:	200c           	move.l a4,d0
  f8b8ea:	4ced 5cfc ffcc 	movem.l -52(a5),d2-d7/a2-a4/a6
  f8b8f0:	4e5d           	unlk a5
  f8b8f2:	4e75           	rts
  f8b8f4:	48e7 3820      	movem.l d2-d4/a2,-(sp)
  f8b8f8:	202f 0014      	move.l 20(sp),d0
  f8b8fc:	142f 001b      	move.b 27(sp),d2
  f8b900:	2200           	move.l d0,d1
  f8b902:	7603           	moveq #3,d3
  f8b904:	c680           	and.l d0,d3
  f8b906:	206f 001c      	movea.l 28(sp),a0
  f8b90a:	672a           	beq.s 0xf8b936
  f8b90c:	5388           	subq.l #1,a0
  f8b90e:	4aaf 001c      	tst.l 28(sp)
  f8b912:	6716           	beq.s 0xf8b92a
  f8b914:	2241           	movea.l d1,a1
  f8b916:	5281           	addq.l #1,d1
  f8b918:	b411           	cmp.b (a1),d2
  f8b91a:	6710           	beq.s 0xf8b92c
  f8b91c:	7003           	moveq #3,d0
  f8b91e:	c081           	and.l d1,d0
  f8b920:	6712           	beq.s 0xf8b934
  f8b922:	5388           	subq.l #1,a0
  f8b924:	70ff           	moveq #-1,d0
  f8b926:	b088           	cmp.l a0,d0
  f8b928:	66ea           	bne.s 0xf8b914
  f8b92a:	93c9           	suba.l a1,a1
  f8b92c:	2009           	move.l a1,d0
  f8b92e:	4cdf 041c      	movem.l (sp)+,d2-d4/a2
  f8b932:	4e75           	rts
  f8b934:	2001           	move.l d1,d0
  f8b936:	7203           	moveq #3,d1
  f8b938:	b288           	cmp.l a0,d1
  f8b93a:	643c           	bcc.s 0xf8b978
  f8b93c:	7200           	moveq #0,d1
  f8b93e:	4601           	not.b d1
  f8b940:	c2af 0018      	and.l 24(sp),d1
  f8b944:	2801           	move.l d1,d4
  f8b946:	e18c           	lsl.l #8,d4
  f8b948:	d881           	add.l d1,d4
  f8b94a:	2204           	move.l d4,d1
  f8b94c:	4841           	swap d1
  f8b94e:	4241           	clr.w d1
  f8b950:	d881           	add.l d1,d4
  f8b952:	2240           	movea.l d0,a1
  f8b954:	2009           	move.l a1,d0
  f8b956:	2619           	move.l (a1)+,d3
  f8b958:	b983           	eor.l d4,d3
  f8b95a:	2203           	move.l d3,d1
  f8b95c:	0681 fefe feff 	addi.l #-16843009,d1
  f8b962:	4683           	not.l d3
  f8b964:	c283           	and.l d3,d1
  f8b966:	0281 8080 8080 	andi.l #-2139062144,d1
  f8b96c:	6610           	bne.s 0xf8b97e
  f8b96e:	5988           	subq.l #4,a0
  f8b970:	7003           	moveq #3,d0
  f8b972:	b088           	cmp.l a0,d0
  f8b974:	65de           	bcs.s 0xf8b954
  f8b976:	2009           	move.l a1,d0
  f8b978:	b0fc 0000      	cmpa.w #0,a0
  f8b97c:	67ac           	beq.s 0xf8b92a
  f8b97e:	2440           	movea.l d0,a2
  f8b980:	d088           	add.l a0,d0
  f8b982:	224a           	movea.l a2,a1
  f8b984:	b41a           	cmp.b (a2)+,d2
  f8b986:	67a4           	beq.s 0xf8b92c
  f8b988:	b08a           	cmp.l a2,d0
  f8b98a:	66f6           	bne.s 0xf8b982
  f8b98c:	93c9           	suba.l a1,a1
  f8b98e:	609c           	bra.s 0xf8b92c
  f8b990:	48e7 3800      	movem.l d2-d4,-(sp)
  f8b994:	202f 0010      	move.l 16(sp),d0
  f8b998:	142f 0017      	move.b 23(sp),d2
  f8b99c:	2240           	movea.l d0,a1
  f8b99e:	7203           	moveq #3,d1
  f8b9a0:	c280           	and.l d0,d1
  f8b9a2:	4a02           	tst.b d2
  f8b9a4:	6700 00a0      	beq.w 0xf8ba46
  f8b9a8:	2040           	movea.l d0,a0
  f8b9aa:	4a81           	tst.l d1
  f8b9ac:	671a           	beq.s 0xf8b9c8
  f8b9ae:	2049           	movea.l a1,a0
  f8b9b0:	1011           	move.b (a1),d0
  f8b9b2:	5289           	addq.l #1,a1
  f8b9b4:	6700 0086      	beq.w 0xf8ba3c
  f8b9b8:	b400           	cmp.b d0,d2
  f8b9ba:	6700 0082      	beq.w 0xf8ba3e
  f8b9be:	2009           	move.l a1,d0
  f8b9c0:	7203           	moveq #3,d1
  f8b9c2:	c081           	and.l d1,d0
  f8b9c4:	66e8           	bne.s 0xf8b9ae
  f8b9c6:	2049           	movea.l a1,a0
  f8b9c8:	7000           	moveq #0,d0
  f8b9ca:	4600           	not.b d0
  f8b9cc:	c0af 0014      	and.l 20(sp),d0
  f8b9d0:	2800           	move.l d0,d4
  f8b9d2:	e18c           	lsl.l #8,d4
  f8b9d4:	d880           	add.l d0,d4
  f8b9d6:	2004           	move.l d4,d0
  f8b9d8:	4840           	swap d0
  f8b9da:	4240           	clr.w d0
  f8b9dc:	d880           	add.l d0,d4
  f8b9de:	2210           	move.l (a0),d1
  f8b9e0:	2604           	move.l d4,d3
  f8b9e2:	b383           	eor.l d1,d3
  f8b9e4:	2001           	move.l d1,d0
  f8b9e6:	0680 fefe feff 	addi.l #-16843009,d0
  f8b9ec:	4681           	not.l d1
  f8b9ee:	c081           	and.l d1,d0
  f8b9f0:	2203           	move.l d3,d1
  f8b9f2:	0681 fefe feff 	addi.l #-16843009,d1
  f8b9f8:	4683           	not.l d3
  f8b9fa:	c283           	and.l d3,d1
  f8b9fc:	8081           	or.l d1,d0
  f8b9fe:	0280 8080 8080 	andi.l #-2139062144,d0
  f8ba04:	662a           	bne.s 0xf8ba30
  f8ba06:	5888           	addq.l #4,a0
  f8ba08:	2210           	move.l (a0),d1
  f8ba0a:	2601           	move.l d1,d3
  f8ba0c:	b983           	eor.l d4,d3
  f8ba0e:	2001           	move.l d1,d0
  f8ba10:	0680 fefe feff 	addi.l #-16843009,d0
  f8ba16:	4681           	not.l d1
  f8ba18:	c081           	and.l d1,d0
  f8ba1a:	2203           	move.l d3,d1
  f8ba1c:	0681 fefe feff 	addi.l #-16843009,d1
  f8ba22:	4683           	not.l d3
  f8ba24:	c283           	and.l d3,d1
  f8ba26:	8081           	or.l d1,d0
  f8ba28:	0280 8080 8080 	andi.l #-2139062144,d0
  f8ba2e:	67d6           	beq.s 0xf8ba06
  f8ba30:	1010           	move.b (a0),d0
  f8ba32:	6708           	beq.s 0xf8ba3c
  f8ba34:	b002           	cmp.b d2,d0
  f8ba36:	6706           	beq.s 0xf8ba3e
  f8ba38:	5288           	addq.l #1,a0
  f8ba3a:	60f4           	bra.s 0xf8ba30
  f8ba3c:	91c8           	suba.l a0,a0
  f8ba3e:	2008           	move.l a0,d0
  f8ba40:	4cdf 001c      	movem.l (sp)+,d2-d4
  f8ba44:	4e75           	rts
  f8ba46:	4a81           	tst.l d1
  f8ba48:	6750           	beq.s 0xf8ba9a
  f8ba4a:	2049           	movea.l a1,a0
  f8ba4c:	4a19           	tst.b (a1)+
  f8ba4e:	67ee           	beq.s 0xf8ba3e
  f8ba50:	2009           	move.l a1,d0
  f8ba52:	7203           	moveq #3,d1
  f8ba54:	c081           	and.l d1,d0
  f8ba56:	66f2           	bne.s 0xf8ba4a
  f8ba58:	2049           	movea.l a1,a0
  f8ba5a:	2210           	move.l (a0),d1
  f8ba5c:	2001           	move.l d1,d0
  f8ba5e:	0680 fefe feff 	addi.l #-16843009,d0
  f8ba64:	4681           	not.l d1
  f8ba66:	c081           	and.l d1,d0
  f8ba68:	0280 8080 8080 	andi.l #-2139062144,d0
  f8ba6e:	6618           	bne.s 0xf8ba88
  f8ba70:	5888           	addq.l #4,a0
  f8ba72:	2210           	move.l (a0),d1
  f8ba74:	2001           	move.l d1,d0
  f8ba76:	0680 fefe feff 	addi.l #-16843009,d0
  f8ba7c:	4681           	not.l d1
  f8ba7e:	c081           	and.l d1,d0
  f8ba80:	0280 8080 8080 	andi.l #-2139062144,d0
  f8ba86:	67e8           	beq.s 0xf8ba70
  f8ba88:	4a10           	tst.b (a0)
  f8ba8a:	67b2           	beq.s 0xf8ba3e
  f8ba8c:	5288           	addq.l #1,a0
  f8ba8e:	4a10           	tst.b (a0)
  f8ba90:	67ac           	beq.s 0xf8ba3e
  f8ba92:	5288           	addq.l #1,a0
  f8ba94:	4a10           	tst.b (a0)
  f8ba96:	66f4           	bne.s 0xf8ba8c
  f8ba98:	60a4           	bra.s 0xf8ba3e
  f8ba9a:	2040           	movea.l d0,a0
  f8ba9c:	60bc           	bra.s 0xf8ba5a
  f8ba9e:	0000           	Address 0x0000000000f8baa0 is out of bounds.
.short 0x0000
